 AL_AE

 Timestamp is 66c2d5e3 (Mon Aug 19 13:19:31 2024)

 Preferred load address is 0000000140000000

 Start         Length     Name                   Class
 0001:00000000 00000260H .text$di                CODE
 0001:00000260 000381c0H .text$mn                CODE
 0001:00038420 00000040H .text$mn$00             CODE
 0001:00038460 00001dd0H .text$x                 CODE
 0001:0003a230 000001a5H .text$yd                CODE
 0002:00000000 000006a8H .idata$5                DATA
 0002:000006a8 00000038H .00cfg                  DATA
 0002:000006e0 00000008H .CRT$XCA                DATA
 0002:000006e8 00000008H .CRT$XCAA               DATA
 0002:000006f0 00000008H .CRT$XCL                DATA
 0002:000006f8 00000038H .CRT$XCU                DATA
 0002:00000730 00000008H .CRT$XCZ                DATA
 0002:00000738 00000008H .CRT$XIA                DATA
 0002:00000740 00000008H .CRT$XIAA               DATA
 0002:00000748 00000008H .CRT$XIAC               DATA
 0002:00000750 00000008H .CRT$XIZ                DATA
 0002:00000758 00000008H .CRT$XLA                DATA
 0002:00000760 00000008H .CRT$XLZ                DATA
 0002:00000768 00000008H .CRT$XPA                DATA
 0002:00000770 00000008H .CRT$XPZ                DATA
 0002:00000778 00000008H .CRT$XTA                DATA
 0002:00000780 00000010H .CRT$XTZ                DATA
 0002:00000788 00000000H .gehcont$y              DATA
 0002:00000788 00000000H .gfids$y                DATA
 0002:00000790 00008270H .rdata                  DATA
 0002:00008a00 00000080H .rdata$CastGuardVftablesA DATA
 0002:00008a80 00000080H .rdata$CastGuardVftablesC DATA
 0002:00008b00 00000030H .rdata$T                DATA
 0002:00008b30 0000184cH .rdata$r                DATA
 0002:0000a37c 00000838H .rdata$voltmd           DATA
 0002:0000abb4 0000048cH .rdata$zzzdbg           DATA
 0002:0000b040 00000008H .rtc$IAA                DATA
 0002:0000b048 00000028H .rtc$IMZ                DATA
 0002:0000b070 00000008H .rtc$IZZ                DATA
 0002:0000b078 00000008H .rtc$TAA                DATA
 0002:0000b080 00000028H .rtc$TMZ                DATA
 0002:0000b0a8 00000008H .rtc$TZZ                DATA
 0002:0000b0b0 00000004H .tls                    DATA
 0002:0000b0b4 00000004H .tls$                   DATA
 0002:0000b0b8 00000008H .tls$ZZZ                DATA
 0002:0000b0c0 000067d8H .xdata                  DATA
 0002:00011898 00000338H .xdata$x                DATA
 0002:00011bd0 0000004cH .edata                  DATA
 0002:00011c1c 00000064H .idata$2                DATA
 0002:00011c80 00000018H .idata$3                DATA
 0002:00011c98 000006a8H .idata$4                DATA
 0002:00012340 00001ad2H .idata$6                DATA
 0003:00000000 00000980H .data                   DATA
 0003:00000980 00000650H .data$r                 DATA
 0003:00000fd0 000010c0H .data$rs                DATA
 0003:00002090 007bc20cH .bss                    DATA
 0004:00000000 000043a4H .pdata                  DATA
 0005:00000000 000004f2H .msvcjmc                DATA
 0006:00000000 000000a0H .rsrc$01                DATA
 0006:000000a0 00000440H .rsrc$02                DATA

  Address         Publics by Value              Rva+Base               Lib:Object

 0000:00000000       __AbsoluteZero             0000000000000000     <absolute>
 0000:00000000       ___safe_se_handler_count   0000000000000000     <absolute>
 0000:00000000       ___safe_se_handler_table   0000000000000000     <absolute>
 0000:00000000       __arm64x_extra_rfe_table   0000000000000000     <absolute>
 0000:00000000       __arm64x_extra_rfe_table_size 0000000000000000     <absolute>
 0000:00000000       __arm64x_native_entrypoint 0000000000000000     <absolute>
 0000:00000000       __arm64x_redirection_metadata 0000000000000000     <absolute>
 0000:00000000       __arm64x_redirection_metadata_count 0000000000000000     <absolute>
 0000:00000000       __dynamic_value_reloc_table 0000000000000000     <absolute>
 0000:00000000       __enclave_config           0000000000000000     <absolute>
 0000:00000000       __guard_check_icall_a64n_fptr 0000000000000000     <absolute>
 0000:00000000       __guard_eh_cont_count      0000000000000000     <absolute>
 0000:00000000       __guard_eh_cont_table      0000000000000000     <absolute>
 0000:00000000       __guard_fids_count         0000000000000000     <absolute>
 0000:00000000       __guard_fids_table         0000000000000000     <absolute>
 0000:00000000       __guard_iat_count          0000000000000000     <absolute>
 0000:00000000       __guard_iat_table          0000000000000000     <absolute>
 0000:00000000       __guard_longjmp_count      0000000000000000     <absolute>
 0000:00000000       __guard_longjmp_table      0000000000000000     <absolute>
 0000:00000000       __hybrid_auxiliary_delayload_iat 0000000000000000     <absolute>
 0000:00000000       __hybrid_auxiliary_delayload_iat_copy 0000000000000000     <absolute>
 0000:00000000       __hybrid_auxiliary_iat     0000000000000000     <absolute>
 0000:00000000       __hybrid_auxiliary_iat_copy 0000000000000000     <absolute>
 0000:00000000       __hybrid_code_map          0000000000000000     <absolute>
 0000:00000000       __hybrid_code_map_count    0000000000000000     <absolute>
 0000:00000000       __hybrid_image_info_bitfield 0000000000000000     <absolute>
 0000:00000000       __x64_code_ranges_to_entry_points 0000000000000000     <absolute>
 0000:00000000       __x64_code_ranges_to_entry_points_count 0000000000000000     <absolute>
 0000:00000100       __guard_flags              0000000000000100     <absolute>
 0000:00000000       __ImageBase                0000000140000000     <linker-defined>
 0001:00000260       ??$?0$$V@?$_Compressed_pair@V?$allocator@D@std@@V?$_String_val@U?$_Simple_types@D@std@@@2@$00@std@@QEAA@U_Zero_then_variadic_args_t@1@@Z 0000000140001260 f i alAELibCore.obj
 0001:000002b0       ??$?0$$V@?$_Compressed_pair@V?$allocator@Uae_sensorExpoList@@@std@@V?$_Deque_val@U?$_Deque_simple_types@Uae_sensorExpoList@@@std@@@2@$00@std@@QEAA@U_Zero_then_variadic_args_t@1@@Z 00000001400012b0 f i alAELibCore.obj
 0001:00000300       ??$?0D@?$allocator@U_Container_proxy@std@@@std@@QEAA@AEBV?$allocator@D@1@@Z 0000000140001300 f i alAELibCore.obj
 0001:00000340       ??$?0Uae_sensorExpoList@@@?$allocator@PEAUae_sensorExpoList@@@std@@QEAA@AEBV?$allocator@Uae_sensorExpoList@@@1@@Z 0000000140001340 f i alAELibCore.obj
 0001:00000380       ??$?0Uae_sensorExpoList@@@?$allocator@U_Container_proxy@std@@@std@@QEAA@AEBV?$allocator@Uae_sensorExpoList@@@1@@Z 0000000140001380 f i alAELibCore.obj
 0001:000003c0       ??$?0V?$allocator@D@std@@$$V@?$_Compressed_pair@V?$allocator@D@std@@V?$_String_val@U?$_Simple_types@D@std@@@2@$00@std@@QEAA@U_One_then_variadic_args_t@1@$$QEAV?$allocator@D@1@@Z 00000001400013c0 f i alAELibCore.obj
 0001:00000410       ??$_Adl_verify_range@PEAPEAUae_sensorExpoList@@PEAPEAU1@@std@@YAXAEBQEAPEAUae_sensorExpoList@@0@Z 0000000140001410 f i alAELibCore.obj
 0001:00000460       ??$_Alloc_proxy@V?$allocator@U_Container_proxy@std@@@std@@@_Container_base12@std@@QEAAX$$QEAV?$allocator@U_Container_proxy@std@@@1@@Z 0000000140001460 f i alAELibCore.obj
 0001:000004f0       ??$_Allocate@$0BA@U_Default_allocate_traits@std@@$0A@@std@@YAPEAX_K@Z 00000001400014f0 f i alAELibCore.obj
 0001:00000550       ??$_Allocate_at_least_helper@V?$allocator@D@std@@@std@@YAPEADAEAV?$allocator@D@0@AEA_K@Z 0000000140001550 f i alAELibCore.obj
 0001:000005a0       ??$_Allocate_at_least_helper@V?$allocator@PEAUae_sensorExpoList@@@std@@@std@@YAPEAPEAUae_sensorExpoList@@AEAV?$allocator@PEAUae_sensorExpoList@@@0@AEA_K@Z 00000001400015a0 f i alAELibCore.obj
 0001:000005f0       ??$_Allocate_for_capacity@$0A@@?$basic_string@DU?$char_traits@D@std@@V?$allocator@D@2@@std@@CAPEADAEAV?$allocator@D@1@AEA_K@Z 00000001400015f0 f i alAELibCore.obj
 0001:00000670       ??$_Allocate_manually_vector_aligned@U_Default_allocate_traits@std@@@std@@YAPEAX_K@Z 0000000140001670 f i alAELibCore.obj
 0001:00000790       ??$_Construct@$00PEBD@?$basic_string@DU?$char_traits@D@std@@V?$allocator@D@2@@std@@AEAAXQEBD_K@Z 0000000140001790 f i alAELibCore.obj
 0001:000009d0       ??$_Construct_in_place@PEADAEAPEAD@std@@YAXAEAPEAD0@Z 00000001400019d0 f i alAELibCore.obj
 0001:00000a40       ??$_Construct_in_place@PEADAEBQEAD@std@@YAXAEAPEADAEBQEAD@Z 0000000140001a40 f i alAELibCore.obj
 0001:00000ab0       ??$_Construct_in_place@PEAUae_sensorExpoList@@AEAPEAU1@@std@@YAXAEAPEAUae_sensorExpoList@@0@Z 0000000140001ab0 f i alAELibCore.obj
 0001:00000b20       ??$_Construct_in_place@U_Container_proxy@std@@PEAU_Container_base12@2@@std@@YAXAEAU_Container_proxy@0@$$QEAPEAU_Container_base12@0@@Z 0000000140001b20 f i alAELibCore.obj
 0001:00000b90       ??$_Convert_size@_K_K@std@@YA_K_K@Z 0000000140001b90 f i alAELibCore.obj
 0001:00000bc0       ??$_Copy_memmove@PEAPEAUae_sensorExpoList@@PEAPEAU1@@std@@YAPEAPEAUae_sensorExpoList@@PEAPEAU1@00@Z 0000000140001bc0 f i alAELibCore.obj
 0001:00000c90       ??$_Deallocate@$0BA@$0A@@std@@YAXPEAX_K@Z 0000000140001c90 f i alAELibCore.obj
 0001:00000d00       ??$_Deallocate_plain@V?$allocator@U_Container_proxy@std@@@std@@@std@@YAXAEAV?$allocator@U_Container_proxy@std@@@0@QEAU_Container_proxy@0@@Z 0000000140001d00 f i alAELibCore.obj
 0001:00000d50       ??$_Delete_plain_internal@V?$allocator@U_Container_proxy@std@@@std@@@std@@YAXAEAV?$allocator@U_Container_proxy@std@@@0@QEAU_Container_proxy@0@@Z 0000000140001d50 f i alAELibCore.obj
 0001:00000da0       ??$_Destroy_in_place@PEAD@std@@YAXAEAPEAD@Z 0000000140001da0 f i alAELibCore.obj
 0001:00000dd0       ??$_Destroy_in_place@PEAUae_sensorExpoList@@@std@@YAXAEAPEAUae_sensorExpoList@@@Z 0000000140001dd0 f i alAELibCore.obj
 0001:00000e00       ??$_Destroy_range@PEAPEAUae_sensorExpoList@@PEAPEAU1@@std@@YAXPEAPEAUae_sensorExpoList@@QEAPEAU1@@Z 0000000140001e00 f i alAELibCore.obj
 0001:00000e30       ??$_Emplace_back@AEAPEAUae_sensorExpoList@@@?$_Uninitialized_backout@PEAPEAUae_sensorExpoList@@@std@@QEAAXAEAPEAUae_sensorExpoList@@@Z 0000000140001e30 f i alAELibCore.obj
 0001:00000e90       ??$_Emplace_back_internal@AEBUae_sensorExpoList@@@?$deque@Uae_sensorExpoList@@V?$allocator@Uae_sensorExpoList@@@std@@@std@@AEAAXAEBUae_sensorExpoList@@@Z 0000000140001e90 f i alAELibCore.obj
 0001:00001090       ??$_Get_size_of_n@$00@std@@YA_K_K@Z 0000000140002090 f i alAELibCore.obj
 0001:000010d0       ??$_Get_size_of_n@$07@std@@YA_K_K@Z 00000001400020d0 f i alAELibCore.obj
 0001:00001130       ??$_Get_size_of_n@$0BA@@std@@YA_K_K@Z 0000000140002130 f i alAELibCore.obj
 0001:00001190       ??$_Get_size_of_n@$0BI@@std@@YA_K_K@Z 0000000140002190 f i alAELibCore.obj
 0001:000011f0       ??$_Get_unwrapped@AEBQEAPEAUae_sensorExpoList@@@std@@YA?A_TAEBQEAPEAUae_sensorExpoList@@@Z 00000001400021f0 f i alAELibCore.obj
 0001:00001230       ??$_Get_unwrapped_n@AEAPEAPEAUae_sensorExpoList@@_J@std@@YA?A_TAEAPEAPEAUae_sensorExpoList@@_J@Z 0000000140002230 f i alAELibCore.obj
 0001:00001270       ??$_Idl_distance@PEAPEAUae_sensorExpoList@@PEAPEAU1@@std@@YA?A_PAEBQEAPEAUae_sensorExpoList@@0@Z 0000000140002270 f i alAELibCore.obj
 0001:000012c0       ??$_Seek_wrapped@PEAPEAUae_sensorExpoList@@PEAPEAU1@@std@@YAXAEAPEAPEAUae_sensorExpoList@@$$QEAPEAPEAU1@@Z 00000001400022c0 f i alAELibCore.obj
 0001:00001310       ??$_To_address@PEAPEAUae_sensorExpoList@@@std@@YA?A_PAEBQEAPEAUae_sensorExpoList@@@Z 0000000140002310 f i alAELibCore.obj
 0001:00001350       ??$_Unfancy@D@std@@YAPEADPEAD@Z 0000000140002350 f i alAELibCore.obj
 0001:00001380       ??$_Unfancy@U_Container_proxy@std@@@std@@YAPEAU_Container_proxy@0@PEAU10@@Z 0000000140002380 f i alAELibCore.obj
 0001:000013b0       ??$_Unfancy@Uae_sensorExpoList@@@std@@YAPEAUae_sensorExpoList@@PEAU1@@Z 00000001400023b0 f i alAELibCore.obj
 0001:000013e0       ??$_Uninitialized_copy_unchecked@PEAPEAUae_sensorExpoList@@PEAPEAU1@@std@@YAPEAPEAUae_sensorExpoList@@PEAPEAU1@QEAPEAU1@0@Z 00000001400023e0 f i alAELibCore.obj
 0001:000014f0       ??$_Uninitialized_value_construct_n_unchecked1@PEAPEAUae_sensorExpoList@@_K@std@@YAPEAPEAUae_sensorExpoList@@PEAPEAU1@_K@Z 00000001400024f0 f i alAELibCore.obj
 0001:00001540       ??$_Verify_range@PEAUae_sensorExpoList@@@std@@YAXQEBQEAUae_sensorExpoList@@0@Z 0000000140002540 f i alAELibCore.obj
 0001:00001600       ??$_Zero_range@PEAPEAUae_sensorExpoList@@@std@@YAPEAPEAUae_sensorExpoList@@QEAPEAU1@0@Z 0000000140002600 f i alAELibCore.obj
 0001:00001680       ??$addressof@PEAD@std@@YAPEAPEADAEAPEAD@Z 0000000140002680 f i alAELibCore.obj
 0001:000016b0       ??$addressof@PEAUae_sensorExpoList@@@std@@YAPEAPEAUae_sensorExpoList@@AEAPEAU1@@Z 00000001400026b0 f i alAELibCore.obj
 0001:000016e0       ??$addressof@U_Container_base12@std@@@std@@YAPEAU_Container_base12@0@AEAU10@@Z 00000001400026e0 f i alAELibCore.obj
 0001:00001710       ??$addressof@U_Container_proxy@std@@@std@@YAPEAU_Container_proxy@0@AEAU10@@Z 0000000140002710 f i alAELibCore.obj
 0001:00001740       ??$addressof@V?$_String_val@U?$_Simple_types@D@std@@@std@@@std@@YAPEAV?$_String_val@U?$_Simple_types@D@std@@@0@AEAV10@@Z 0000000140002740 f i alAELibCore.obj
 0001:00001770       ??$construct@Uae_sensorExpoList@@AEBU1@@?$_Default_allocator_traits@V?$allocator@Uae_sensorExpoList@@@std@@@std@@SAXAEAV?$allocator@Uae_sensorExpoList@@@1@QEAUae_sensorExpoList@@AEBU3@@Z 0000000140002770 f i alAELibCore.obj
 0001:000017e0       ??$destroy@Uae_sensorExpoList@@@?$_Default_allocator_traits@V?$allocator@Uae_sensorExpoList@@@std@@@std@@SAXAEAV?$allocator@Uae_sensorExpoList@@@1@QEAUae_sensorExpoList@@@Z 00000001400027e0 f i alAELibCore.obj
 0001:00001810       ??$exchange@PEAU_Container_proxy@std@@$$T@std@@YAPEAU_Container_proxy@0@AEAPEAU10@$$QEA$$T@Z 0000000140002810 f i alAELibCore.obj
 0001:00001870       ??$exchange@PEAU_Iterator_base12@std@@$$T@std@@YAPEAU_Iterator_base12@0@AEAPEAU10@$$QEA$$T@Z 0000000140002870 f i alAELibCore.obj
 0001:000018d0       ??$max@_K@std@@YAAEB_KAEB_K0@Z 00000001400028d0 f i alAELibCore.obj
 0001:00001950       ??$min@_K@std@@YAAEB_KAEB_K0@Z 0000000140002950 f i alAELibCore.obj
 0001:000019d0       ??$pow@HM$0A@@@YANHM@Z     00000001400029d0 f i alAELibCore.obj
 0001:00001a30       ??$pow@NH$0A@@@YANNH@Z     0000000140002a30 f i alAELibCore.obj
 0001:00001a80       ??$sqrt@H$0A@@@YANH@Z      0000000140002a80 f i alAELibCore.obj
 0001:00001ac0       ??$uninitialized_copy@PEAPEAUae_sensorExpoList@@PEAPEAU1@@std@@YAPEAPEAUae_sensorExpoList@@QEAPEAU1@0PEAPEAU1@@Z 0000000140002ac0 f i alAELibCore.obj
 0001:00001bd0       ??0?$_Container_proxy_ptr12@V?$allocator@U_Container_proxy@std@@@std@@@std@@QEAA@AEAV?$allocator@U_Container_proxy@std@@@1@AEAU_Container_base12@1@@Z 0000000140002bd0 f i alAELibCore.obj
 0001:00001c90       ??0?$_Deque_val@U?$_Deque_simple_types@Uae_sensorExpoList@@@std@@@std@@QEAA@XZ 0000000140002c90 f i alAELibCore.obj
 0001:00001d10       ??0?$_String_val@U?$_Simple_types@D@std@@@std@@QEAA@XZ 0000000140002d10 f i alAELibCore.obj
 0001:00001d80       ??0?$_Uninitialized_backout@PEAPEAUae_sensorExpoList@@@std@@QEAA@PEAPEAUae_sensorExpoList@@@Z 0000000140002d80 f i alAELibCore.obj
 0001:00001de0       ??0?$allocator@D@std@@QEAA@XZ 0000000140002de0 f i alAELibCore.obj
 0001:00001e10       ??0?$allocator@Uae_sensorExpoList@@@std@@QEAA@XZ 0000000140002e10 f i alAELibCore.obj
 0001:00001e40       ??0?$basic_string@DU?$char_traits@D@std@@V?$allocator@D@2@@std@@QEAA@$$QEAV01@@Z 0000000140002e40 f i alAELibCore.obj
 0001:00001ee0       ??0?$basic_string@DU?$char_traits@D@std@@V?$allocator@D@2@@std@@QEAA@QEBD@Z 0000000140002ee0 f i alAELibCore.obj
 0001:00001f60       ??0?$deque@Uae_sensorExpoList@@V?$allocator@Uae_sensorExpoList@@@std@@@std@@QEAA@XZ 0000000140002f60 f i alAELibCore.obj
 0001:00001ff0       ??0?$queue@Uae_sensorExpoList@@V?$deque@Uae_sensorExpoList@@V?$allocator@Uae_sensorExpoList@@@std@@@std@@@std@@QEAA@XZ 0000000140002ff0 f i alAELibCore.obj
 0001:00002030       ??0_Basic_container_proxy_ptr12@std@@IEAA@XZ 0000000140003030 f i alAELibCore.obj
 0001:00002070       ??0_Bxty@?$_String_val@U?$_Simple_types@D@std@@@std@@QEAA@XZ 0000000140003070 f i alAELibCore.obj
 0001:000020c0       ??0_Container_base12@std@@QEAA@XZ 00000001400030c0 f i alAELibCore.obj
 0001:00002100       ??0_Container_proxy@std@@QEAA@PEAU_Container_base12@1@@Z 0000000140003100 f i alAELibCore.obj
 0001:00002160       ??0bad_alloc@std@@AEAA@QEBD@Z 0000000140003160 f i alAELibCore.obj
 0001:000021c0       ??0bad_alloc@std@@QEAA@AEBV01@@Z 00000001400031c0 f i alAELibCore.obj
 0001:00002210       ??0bad_array_new_length@std@@QEAA@AEBV01@@Z 0000000140003210 f i alAELibCore.obj
 0001:00002260       ??0bad_array_new_length@std@@QEAA@XZ 0000000140003260 f i alAELibCore.obj
 0001:000022c0       ??0exception@std@@QEAA@AEBV01@@Z 00000001400032c0 f i alAELibCore.obj
 0001:00002340       ??0exception@std@@QEAA@QEBDH@Z 0000000140003340 f i alAELibCore.obj
 0001:000023c0       ??1?$_Compressed_pair@V?$allocator@D@std@@V?$_String_val@U?$_Simple_types@D@std@@@2@$00@std@@QEAA@XZ 00000001400033c0 f i alAELibCore.obj
 0001:000023f0       ??1?$_Container_proxy_ptr12@V?$allocator@U_Container_proxy@std@@@std@@@std@@QEAA@XZ 00000001400033f0 f i alAELibCore.obj
 0001:00002440       ??1?$_String_val@U?$_Simple_types@D@std@@@std@@QEAA@XZ 0000000140003440 f i alAELibCore.obj
 0001:00002470       ??1?$_Uninitialized_backout@PEAPEAUae_sensorExpoList@@@std@@QEAA@XZ 0000000140003470 f i alAELibCore.obj
 0001:000024c0       ??1?$basic_string@DU?$char_traits@D@std@@V?$allocator@D@2@@std@@QEAA@XZ 00000001400034c0 f i alAELibCore.obj
 0001:000025a0       ??1?$deque@Uae_sensorExpoList@@V?$allocator@Uae_sensorExpoList@@@std@@@std@@QEAA@XZ 00000001400035a0 f i alAELibCore.obj
 0001:00002670       ??1?$queue@Uae_sensorExpoList@@V?$deque@Uae_sensorExpoList@@V?$allocator@Uae_sensorExpoList@@@std@@@std@@@std@@QEAA@XZ 0000000140003670 f i alAELibCore.obj
 0001:000026a0       ??1_Bxty@?$_String_val@U?$_Simple_types@D@std@@@std@@QEAA@XZ 00000001400036a0 f i alAELibCore.obj
 0001:000026d0       ??1bad_alloc@std@@UEAA@XZ  00000001400036d0 f i alAELibCore.obj
 0001:00002700       ??1bad_array_new_length@std@@UEAA@XZ 0000000140003700 f i alAELibCore.obj
 0001:00002730       ??1exception@std@@UEAA@XZ  0000000140003730 f i alAELibCore.obj
 0001:00002780       ??2@YAPEAX_KPEAX@Z         0000000140003780 f i alAELibCore.obj
 0001:000027c0       ??_Ebad_alloc@std@@UEAAPEAXI@Z 00000001400037c0 f i alAELibCore.obj
 0001:000027c0       ??_Gbad_alloc@std@@UEAAPEAXI@Z 00000001400037c0 f i alAELibCore.obj
 0001:00002820       ??_Ebad_array_new_length@std@@UEAAPEAXI@Z 0000000140003820 f i alAELibCore.obj
 0001:00002820       ??_Gbad_array_new_length@std@@UEAAPEAXI@Z 0000000140003820 f i alAELibCore.obj
 0001:00002880       ??_Eexception@std@@UEAAPEAXI@Z 0000000140003880 f i alAELibCore.obj
 0001:00002880       ??_Gexception@std@@UEAAPEAXI@Z 0000000140003880 f i alAELibCore.obj
 0001:000028e0       ?LoadDefaultAESetting@@YAIPEAX@Z 00000001400038e0 f   alAELibCore.obj
 0001:00005b80       ?ParsingLibScenarioStatus@@YAIPEAUae_set_param_data_t@@PEAUae_corelib_libstatus_t@@PEAX@Z 0000000140006b80 f   alAELibCore.obj
 0001:00005c70       ?TranslateISOLevel@@YAIW4ae_iso_mode_t@@PEAI@Z 0000000140006c70 f   alAELibCore.obj
 0001:00005db0       ?UnicodeToAnsi_strCore@@YA?AV?$basic_string@DU?$char_traits@D@std@@V?$allocator@D@2@@std@@PEB_W@Z 0000000140006db0 f   alAELibCore.obj
 0001:00005f80       ?_Activate_SSO_buffer@?$_String_val@U?$_Simple_types@D@std@@@std@@QEAAXXZ 0000000140006f80 f i alAELibCore.obj
 0001:00005fb0       ?_Address_subscript@?$_Deque_val@U?$_Deque_simple_types@Uae_sensorExpoList@@@std@@@std@@QEAAPEAUae_sensorExpoList@@_K@Z 0000000140006fb0 f i alAELibCore.obj
 0001:00006020       ?_Adjust_manually_vector_aligned@std@@YAXAEAPEAXAEA_K@Z 0000000140007020 f i alAELibCore.obj
 0001:000061f0       ?_Allocate@_Default_allocate_traits@std@@SAPEAX_K@Z 00000001400071f0 f i alAELibCore.obj
 0001:00006230       ?_Calculate_growth@?$basic_string@DU?$char_traits@D@std@@V?$allocator@D@2@@std@@CA_K_K00@Z 0000000140007230 f i alAELibCore.obj
 0001:00006340       ?_Deallocate_for_capacity@?$basic_string@DU?$char_traits@D@std@@V?$allocator@D@2@@std@@CAXAEAV?$allocator@D@2@QEAD_K@Z 0000000140007340 f i alAELibCore.obj
 0001:000063a0       ?_Get_data@?$deque@Uae_sensorExpoList@@V?$allocator@Uae_sensorExpoList@@@std@@@std@@AEAAAEAV?$_Deque_val@U?$_Deque_simple_types@Uae_sensorExpoList@@@std@@@2@XZ 00000001400073a0 f i alAELibCore.obj
 0001:000063d0       ?_Get_data@?$deque@Uae_sensorExpoList@@V?$allocator@Uae_sensorExpoList@@@std@@@std@@AEBAAEBV?$_Deque_val@U?$_Deque_simple_types@Uae_sensorExpoList@@@std@@@2@XZ 00000001400073d0 f i alAELibCore.obj
 0001:00006400       ?_Get_first@?$_Compressed_pair@V?$allocator@D@std@@V?$_String_val@U?$_Simple_types@D@std@@@2@$00@std@@QEAAAEAV?$allocator@D@2@XZ 0000000140007400 f i alAELibCore.obj
 0001:00006430       ?_Get_first@?$_Compressed_pair@V?$allocator@D@std@@V?$_String_val@U?$_Simple_types@D@std@@@2@$00@std@@QEBAAEBV?$allocator@D@2@XZ 0000000140007430 f i alAELibCore.obj
 0001:00006460       ?_Get_first@?$_Compressed_pair@V?$allocator@Uae_sensorExpoList@@@std@@V?$_Deque_val@U?$_Deque_simple_types@Uae_sensorExpoList@@@std@@@2@$00@std@@QEAAAEAV?$allocator@Uae_sensorExpoList@@@2@XZ 0000000140007460 f i alAELibCore.obj
 0001:00006490       ?_Get_first@?$_Compressed_pair@V?$allocator@Uae_sensorExpoList@@@std@@V?$_Deque_val@U?$_Deque_simple_types@Uae_sensorExpoList@@@std@@@2@$00@std@@QEBAAEBV?$allocator@Uae_sensorExpoList@@@2@XZ 0000000140007490 f i alAELibCore.obj
 0001:000064c0       ?_Getal@?$basic_string@DU?$char_traits@D@std@@V?$allocator@D@2@@std@@AEAAAEAV?$allocator@D@2@XZ 00000001400074c0 f i alAELibCore.obj
 0001:00006500       ?_Getal@?$basic_string@DU?$char_traits@D@std@@V?$allocator@D@2@@std@@AEBAAEBV?$allocator@D@2@XZ 0000000140007500 f i alAELibCore.obj
 0001:00006540       ?_Getal@?$deque@Uae_sensorExpoList@@V?$allocator@Uae_sensorExpoList@@@std@@@std@@AEAAAEAV?$allocator@Uae_sensorExpoList@@@2@XZ 0000000140007540 f i alAELibCore.obj
 0001:00006580       ?_Getal@?$deque@Uae_sensorExpoList@@V?$allocator@Uae_sensorExpoList@@@std@@@std@@AEBAAEBV?$allocator@Uae_sensorExpoList@@@2@XZ 0000000140007580 f i alAELibCore.obj
 0001:000065c0       ?_Getblock@?$_Deque_val@U?$_Deque_simple_types@Uae_sensorExpoList@@@std@@@std@@QEBA_J_K@Z 00000001400075c0 f i alAELibCore.obj
 0001:00006610       ?_Getblock@?$deque@Uae_sensorExpoList@@V?$allocator@Uae_sensorExpoList@@@std@@@std@@AEBA_J_K@Z 0000000140007610 f i alAELibCore.obj
 0001:00006660       ?_Growmap@?$deque@Uae_sensorExpoList@@V?$allocator@Uae_sensorExpoList@@@std@@@std@@AEAAX_K@Z 0000000140007660 f i alAELibCore.obj
 0001:00006b40       ?_Large_mode_engaged@?$_String_val@U?$_Simple_types@D@std@@@std@@QEBA_NXZ 0000000140007b40 f i alAELibCore.obj
 0001:00006ba0       ?_Map@?$deque@Uae_sensorExpoList@@V?$allocator@Uae_sensorExpoList@@@std@@@std@@AEAAAEAPEAPEAUae_sensorExpoList@@XZ 0000000140007ba0 f i alAELibCore.obj
 0001:00006be0       ?_Map_distance@?$deque@Uae_sensorExpoList@@V?$allocator@Uae_sensorExpoList@@@std@@@std@@AEBA_JXZ 0000000140007be0 f i alAELibCore.obj
 0001:00006c20       ?_Mapsize@?$deque@Uae_sensorExpoList@@V?$allocator@Uae_sensorExpoList@@@std@@@std@@AEAAAEA_KXZ 0000000140007c20 f i alAELibCore.obj
 0001:00006c60       ?_Myoff@?$deque@Uae_sensorExpoList@@V?$allocator@Uae_sensorExpoList@@@std@@@std@@AEAAAEA_KXZ 0000000140007c60 f i alAELibCore.obj
 0001:00006ca0       ?_Myoff@?$deque@Uae_sensorExpoList@@V?$allocator@Uae_sensorExpoList@@@std@@@std@@AEBAAEB_KXZ 0000000140007ca0 f i alAELibCore.obj
 0001:00006ce0       ?_Mysize@?$deque@Uae_sensorExpoList@@V?$allocator@Uae_sensorExpoList@@@std@@@std@@AEAAAEA_KXZ 0000000140007ce0 f i alAELibCore.obj
 0001:00006d20       ?_Mysize@?$deque@Uae_sensorExpoList@@V?$allocator@Uae_sensorExpoList@@@std@@@std@@AEBAAEB_KXZ 0000000140007d20 f i alAELibCore.obj
 0001:00006d60       ?_Orphan_all@?$deque@Uae_sensorExpoList@@V?$allocator@Uae_sensorExpoList@@@std@@@std@@AEAAXXZ 0000000140007d60 f i alAELibCore.obj
 0001:00006da0       ?_Orphan_all@_Container_base12@std@@QEAAXXZ 0000000140007da0 f i alAELibCore.obj
 0001:00006de0       ?_Orphan_all_locked_v3@_Container_base12@std@@AEAAXXZ 0000000140007de0 f i alAELibCore.obj
 0001:00006e80       ?_Orphan_all_unlocked_v3@_Container_base12@std@@AEAAXXZ 0000000140007e80 f i alAELibCore.obj
 0001:00006f10       ?_Orphan_off@?$deque@Uae_sensorExpoList@@V?$allocator@Uae_sensorExpoList@@@std@@@std@@AEBAX_K@Z 0000000140007f10 f i alAELibCore.obj
 0001:000070b0       ?_Release@?$_Uninitialized_backout@PEAPEAUae_sensorExpoList@@@std@@QEAAPEAPEAUae_sensorExpoList@@XZ 00000001400080b0 f i alAELibCore.obj
 0001:00007100       ?_Release@_Basic_container_proxy_ptr12@std@@QEAAXXZ 0000000140008100 f i alAELibCore.obj
 0001:00007140       ?_Subscript@?$_Deque_val@U?$_Deque_simple_types@Uae_sensorExpoList@@@std@@@std@@QEAAAEAUae_sensorExpoList@@_K@Z 0000000140008140 f i alAELibCore.obj
 0001:000071b0       ?_Subscript@?$deque@Uae_sensorExpoList@@V?$allocator@Uae_sensorExpoList@@@std@@@std@@AEAAAEAUae_sensorExpoList@@_K@Z 00000001400081b0 f i alAELibCore.obj
 0001:00007220       ?_Swap_proxy_and_iterators@?$basic_string@DU?$char_traits@D@std@@V?$allocator@D@2@@std@@AEAAXAEAV12@@Z 0000000140008220 f i alAELibCore.obj
 0001:00007270       ?_Swap_proxy_and_iterators@_Container_base12@std@@QEAAXAEAU12@@Z 0000000140008270 f i alAELibCore.obj
 0001:000072c0       ?_Swap_proxy_and_iterators_locked@_Container_base12@std@@AEAAXAEAU12@@Z 00000001400082c0 f i alAELibCore.obj
 0001:00007370       ?_Swap_proxy_and_iterators_unlocked@_Container_base12@std@@AEAAXAEAU12@@Z 0000000140008370 f i alAELibCore.obj
 0001:00007410       ?_Switch_to_buf@_Bxty@?$_String_val@U?$_Simple_types@D@std@@@std@@QEAAXXZ 0000000140008410 f i alAELibCore.obj
 0001:00007450       ?_Take_contents@?$basic_string@DU?$char_traits@D@std@@V?$allocator@D@2@@std@@AEAAXAEAV12@@Z 0000000140008450 f i alAELibCore.obj
 0001:00007650       ?_Throw_bad_array_new_length@std@@YAXXZ 0000000140008650 f i alAELibCore.obj
 0001:000076a0       ?_Tidy@?$deque@Uae_sensorExpoList@@V?$allocator@Uae_sensorExpoList@@@std@@@std@@AEAAXXZ 00000001400086a0 f i alAELibCore.obj
 0001:00007870       ?_Tidy_deallocate@?$basic_string@DU?$char_traits@D@std@@V?$allocator@D@2@@std@@AEAAXXZ 0000000140008870 f i alAELibCore.obj
 0001:00007940       ?_Xlen@?$deque@Uae_sensorExpoList@@V?$allocator@Uae_sensorExpoList@@@std@@@std@@CAXXZ 0000000140008940 f i alAELibCore.obj
 0001:00007980       ?_Xlen_string@std@@YAXXZ   0000000140008980 f i alAELibCore.obj
 0001:000079c0       ?__empty_global_delete@@YAXPEAX@Z 00000001400089c0 f i alAELibCore.obj
 0001:000079f0       ?__empty_global_delete@@YAXPEAX_K@Z 00000001400089f0 f i alAELibCore.obj
 0001:000079f0       ?__global_delete@@YAXPEAX_K@Z 00000001400089f0 f i alAELibCore.obj
 0001:00007a20       ?alAELib_Core_AEMetering@@YAIPEAX0@Z 0000000140008a20 f   alAELibCore.obj
 0001:00007e30       ?alAELib_generate_metering_table@@YAIPEAUae_corelib_obj_t@@PEAE@Z 0000000140008e30 f   alAELibCore.obj
 0001:00007f20       ?alAE_Simple_AE_Metering@@YAXPEAUae_corelib_obj_t@@PEAUae_output_data_t@@PEAUal3awrapper_stats_ae_t@@@Z 0000000140008f20 f   alAELibCore.obj
 0001:000081a0       ?alAE_deinit@@YAIPEAX@Z    00000001400091a0 f   alAELibCore.obj
 0001:00008200       ?alAE_get_param@@YAIPEAUae_get_param_t@@PEAX@Z 0000000140009200 f   alAELibCore.obj
 0001:00008d10       ?alAE_initial@@YAIPEAPEAX@Z 0000000140009d10 f   alAELibCore.obj
 0001:00008da0       ?alAE_process@@YAIPEAX0Ualhw3a_ae_proc_data_t@@0PEAUae_output_data_t@@@Z 0000000140009da0 f   alAELibCore.obj
 0001:0000a790       ?alAE_set_param@@YAIPEAUae_set_param_t@@PEAUae_output_data_t@@PEAX@Z 000000014000b790 f   alAELibCore.obj
 0001:0000b870       ?allib_ae_bv2lux@@YAIH@Z   000000014000c870 f   alAELibCore.obj
 0001:0000b8b0       ?allib_ae_lux2bv@@YAHI@Z   000000014000c8b0 f   alAELibCore.obj
 0001:0000b8f0       ?allocate@?$allocator@D@std@@QEAAPEAD_K@Z 000000014000c8f0 f i alAELibCore.obj
 0001:0000b940       ?allocate@?$allocator@PEAUae_sensorExpoList@@@std@@QEAAPEAPEAUae_sensorExpoList@@_K@Z 000000014000c940 f i alAELibCore.obj
 0001:0000b990       ?allocate@?$allocator@U_Container_proxy@std@@@std@@QEAAPEAU_Container_proxy@2@_K@Z 000000014000c990 f i alAELibCore.obj
 0001:0000b9e0       ?allocate@?$allocator@Uae_sensorExpoList@@@std@@QEAAPEAUae_sensorExpoList@@_K@Z 000000014000c9e0 f i alAELibCore.obj
 0001:0000ba30       ?assign@?$_Narrow_char_traits@DH@std@@SAXAEADAEBD@Z 000000014000ca30 f i alAELibCore.obj
 0001:0000ba80       ?back@?$deque@Uae_sensorExpoList@@V?$allocator@Uae_sensorExpoList@@@std@@@std@@QEAAAEAUae_sensorExpoList@@XZ 000000014000ca80 f i alAELibCore.obj
 0001:0000bb60       ?back@?$queue@Uae_sensorExpoList@@V?$deque@Uae_sensorExpoList@@V?$allocator@Uae_sensorExpoList@@@std@@@std@@@std@@QEAAAEAUae_sensorExpoList@@XZ 000000014000cb60 f i alAELibCore.obj
 0001:0000bba0       ?copy@?$_Char_traits@DH@std@@SAPEADQEADQEBD_K@Z 000000014000cba0 f i alAELibCore.obj
 0001:0000bc00       ?deallocate@?$_Default_allocator_traits@V?$allocator@U_Container_proxy@std@@@std@@@std@@SAXAEAV?$allocator@U_Container_proxy@std@@@2@QEAU_Container_proxy@2@_K@Z 000000014000cc00 f i alAELibCore.obj
 0001:0000bc50       ?deallocate@?$allocator@D@std@@QEAAXQEAD_K@Z 000000014000cc50 f i alAELibCore.obj
 0001:0000bd30       ?deallocate@?$allocator@PEAUae_sensorExpoList@@@std@@QEAAXQEAPEAUae_sensorExpoList@@_K@Z 000000014000cd30 f i alAELibCore.obj
 0001:0000be10       ?deallocate@?$allocator@Uae_sensorExpoList@@@std@@QEAAXQEAUae_sensorExpoList@@_K@Z 000000014000ce10 f i alAELibCore.obj
 0001:0000bef0       ?empty@?$deque@Uae_sensorExpoList@@V?$allocator@Uae_sensorExpoList@@@std@@@std@@QEBA_NXZ 000000014000cef0 f i alAELibCore.obj
 0001:0000bf50       ?empty@?$queue@Uae_sensorExpoList@@V?$deque@Uae_sensorExpoList@@V?$allocator@Uae_sensorExpoList@@@std@@@std@@@std@@QEBA_NXZ 000000014000cf50 f i alAELibCore.obj
 0001:0000bf90       ?floor@@YAMM@Z             000000014000cf90 f i alAELibCore.obj
 0001:0000bfd0       ?front@?$deque@Uae_sensorExpoList@@V?$allocator@Uae_sensorExpoList@@@std@@@std@@QEAAAEAUae_sensorExpoList@@XZ 000000014000cfd0 f i alAELibCore.obj
 0001:0000c0a0       ?front@?$queue@Uae_sensorExpoList@@V?$deque@Uae_sensorExpoList@@V?$allocator@Uae_sensorExpoList@@@std@@@std@@@std@@QEAAAEAUae_sensorExpoList@@XZ 000000014000d0a0 f i alAELibCore.obj
 0001:0000c0e0       ?gazeAE@@YAIPEAX@Z         000000014000d0e0 f   alAELibCore.obj
 0001:0000c680       ?length@?$_Narrow_char_traits@DH@std@@SA_KQEBD@Z 000000014000d680 f i alAELibCore.obj
 0001:0000c940       ?max@?$numeric_limits@_J@std@@SA_JXZ 000000014000d940 f i alAELibCore.obj
 0001:0000c970       ?max_size@?$_Default_allocator_traits@V?$allocator@D@std@@@std@@SA_KAEBV?$allocator@D@2@@Z 000000014000d970 f i alAELibCore.obj
 0001:0000c9a0       ?max_size@?$_Default_allocator_traits@V?$allocator@Uae_sensorExpoList@@@std@@@std@@SA_KAEBV?$allocator@Uae_sensorExpoList@@@2@@Z 000000014000d9a0 f i alAELibCore.obj
 0001:0000c9e0       ?max_size@?$basic_string@DU?$char_traits@D@std@@V?$allocator@D@2@@std@@QEBA_KXZ 000000014000d9e0 f i alAELibCore.obj
 0001:0000cad0       ?max_size@?$deque@Uae_sensorExpoList@@V?$allocator@Uae_sensorExpoList@@@std@@@std@@QEBA_KXZ 000000014000dad0 f i alAELibCore.obj
 0001:0000cb40       ?pop@?$queue@Uae_sensorExpoList@@V?$deque@Uae_sensorExpoList@@V?$allocator@Uae_sensorExpoList@@@std@@@std@@@std@@QEAAXXZ 000000014000db40 f i alAELibCore.obj
 0001:0000cb80       ?pop_back@?$deque@Uae_sensorExpoList@@V?$allocator@Uae_sensorExpoList@@@std@@@std@@QEAAXXZ 000000014000db80 f i alAELibCore.obj
 0001:0000cd00       ?pop_front@?$deque@Uae_sensorExpoList@@V?$allocator@Uae_sensorExpoList@@@std@@@std@@QEAAXXZ 000000014000dd00 f i alAELibCore.obj
 0001:0000d130       ?push@?$queue@Uae_sensorExpoList@@V?$deque@Uae_sensorExpoList@@V?$allocator@Uae_sensorExpoList@@@std@@@std@@@std@@QEAAXAEBUae_sensorExpoList@@@Z 000000014000e130 f i alAELibCore.obj
 0001:0000d180       ?push_back@?$deque@Uae_sensorExpoList@@V?$allocator@Uae_sensorExpoList@@@std@@@std@@QEAAXAEBUae_sensorExpoList@@@Z 000000014000e180 f i alAELibCore.obj
 0001:0000d260       ?sqrt@@YAMM@Z              000000014000e260 f i alAELibCore.obj
 0001:0000d2a0       ?what@exception@std@@UEBAPEBDXZ 000000014000e2a0 f i alAELibCore.obj
 0001:0000d300       LoadDefaultSetting         000000014000e300 f   alAELibCore.obj
 0001:0000d360       ManageInputParam           000000014000e360 f   alAELibCore.obj
 0001:0000d410       __JustMyCode_Default       000000014000e410 f i alAELibCore.obj
 0001:0000d420       __local_stdio_printf_options 000000014000e420 f i alAELibCore.obj
 0001:0000d450       _vfprintf_l                000000014000e450 f i alAELibCore.obj
 0001:0000d4c0       _vsnprintf_l               000000014000e4c0 f i alAELibCore.obj
 0001:0000d560       _vsprintf_l                000000014000e560 f i alAELibCore.obj
 0001:0000d5d0       al3awrapper_dispatchhw3a_aestats 000000014000e5d0 f   alAELibCore.obj
 0001:0000e270       al3awrapper_dispatchhw3a_yhiststats 000000014000f270 f   alAELibCore.obj
 0001:0000e300       alAELib_Abs                000000014000f300 f   alAELibCore.obj
 0001:0000e360       alAELib_BV2Lux             000000014000f360 f   alAELibCore.obj
 0001:0000e3c0       alAELib_CalculateBv        000000014000f3c0 f   alAELibCore.obj
 0001:0000e460       alAELib_CalculateBv_midtones_comp 000000014000f460 f   alAELibCore.obj
 0001:0000e540       alAELib_CalculateExposureTime 000000014000f540 f   alAELibCore.obj
 0001:0000e5f0       alAELib_CalculateIsoSpeed  000000014000f5f0 f   alAELibCore.obj
 0001:0000e6a0       alAELib_CalculateProgressiveAE 000000014000f6a0 f   alAELibCore.obj
 0001:0000ebd0       alAELib_Core_CheckLimit    000000014000fbd0 f   alAELibCore.obj
 0001:0000ef50       alAELib_Core_calMeteringRatio 000000014000ff50 f   alAELibCore.obj
 0001:0000f030       alAELib_Core_calVariance   0000000140010030 f   alAELibCore.obj
 0001:0000f190       alAELib_Core_estimateSlave 0000000140010190 f   alAELibCore.obj
 0001:0000f7f0       alAELib_Core_mixExposure   00000001400107f0 f   alAELibCore.obj
 0001:0000fb30       alAELib_Core_mixStats      0000000140010b30 f   alAELibCore.obj
 0001:000100d0       alAELib_Core_mixStatsSingle 00000001400110d0 f   alAELibCore.obj
 0001:000109e0       alAELib_GetExposureParameter 00000001400119e0 f   alAELibCore.obj
 0001:000114a0       alAELib_Interpolation      00000001400124a0 f   alAELibCore.obj
 0001:00011600       alAELib_Log2_65536         0000000140012600 f   alAELibCore.obj
 0001:000116d0       alAELib_Lux2BV1000         00000001400126d0 f   alAELibCore.obj
 0001:00011750       alAELib_ModExposureTimeADGainByAntiflikerMode 0000000140012750 f   alAELibCore.obj
 0001:00011ad0       alAELib_Pow2_65536         0000000140012ad0 f   alAELibCore.obj
 0001:00011b80       alAE_estimation            0000000140012b80 f   alAELibCore.obj
 0001:00012060       allib_ae_getlib_runtimebuf_size 0000000140013060 f   alAELibCore.obj
 0001:000120a0       allib_ae_getlib_version    00000001400130a0 f   alAELibCore.obj
 0001:000120f0       allib_ae_loadfunc          00000001400130f0 f   alAELibCore.obj
 0001:00012220       allib_ae_set_debug_log_flag 0000000140013220 f   alAELibCore.obj
 0001:00012340       fprintf                    0000000140013340 f i alAELibCore.obj
 0001:00012440       printf                     0000000140013440 f i alAELibCore.obj
 0001:00012500       sprintf                    0000000140013500 f i alAELibCore.obj
 0001:00012600       updateWeightTable          0000000140013600 f   alAELibCore.obj
 0001:00012ae0       vsprintf                   0000000140013ae0 f i alAELibCore.obj
 0001:00012b40       ?CCSort_f@@YAXPEAIG@Z      0000000140013b40 f   alAELib_iAE.obj
 0001:00012c10       ?Calculate_DTC_GAIN@@YAXPEAUiAE_input@@PEAG11HPEAX@Z 0000000140013c10 f   alAELib_iAE.obj
 0001:00013660       ?cal_cdf_region_mean@@YAIPEAIGII@Z 0000000140014660 f   alAELib_iAE.obj
 0001:00013970       ?calc_histogram@@YAIPEAGPEAIG@Z 0000000140014970 f   alAELib_iAE.obj
 0001:00013ac0       ?hist_mean_monitor@@YAXPEAUae_core_iae_tuning_param_t@@PEAIGPEAUHIST_MEAN_RESULT@@E@Z 0000000140014ac0 f   alAELib_iAE.obj
 0001:00013e60       ?iAE_param_lookup@@YAIPEAUiAE_input@@PEAUae_core_iae_tuning_param_t@@F@Z 0000000140014e60 f   alAELib_iAE.obj
 0001:00014c40       ?iAE_process@@YAXPEAUiAE_input@@PEAG11HPEAX@Z 0000000140015c40 f   alAELib_iAE.obj
 0001:000151f0       ?Interpolation@@YAIMHHPEAY02H@Z 00000001400161f0 f   table.obj
 0001:00015360       ?checkExpoTable@@YAXMHHPEAY03HAEAI1PEAX@Z 0000000140016360 f   table.obj
 0001:000156f0       ?findIndex@@YAHMHPEAY02H@Z 00000001400166f0 f   table.obj
 0001:000157a0       ?findIndex@@YAHMHPEAY03H@Z 00000001400167a0 f   table.obj
 0001:00015850       ?isDynamicScene@@YAXPEAX@Z 0000000140016850 f   table.obj
 0001:00015dc0       ?matchExpoTable@@YAIPEAX0FH@Z 0000000140016dc0 f   table.obj
 0001:00016480       ?updateTarget@@YAIPEAXH@Z  0000000140017480 f   table.obj
 0001:000166b0       ??$?0AEAPEAV_Facet_base@std@@@?$_Compressed_pair@U?$default_delete@V_Facet_base@std@@@std@@PEAV_Facet_base@2@$00@std@@QEAA@U_Zero_then_variadic_args_t@1@AEAPEAV_Facet_base@1@@Z 00000001400176b0 f i IspSoftAeApi.obj
 0001:00016700       ??$?0AEBV?$allocator@D@std@@$$V@?$_Compressed_pair@V?$allocator@D@std@@V?$_String_val@U?$_Simple_types@D@std@@@2@$00@std@@QEAA@U_One_then_variadic_args_t@1@AEBV?$allocator@D@1@@Z 0000000140017700 f i IspSoftAeApi.obj
 0001:00016750       ??$?0U?$default_delete@V_Facet_base@std@@@std@@$0A@@?$unique_ptr@V_Facet_base@std@@U?$default_delete@V_Facet_base@std@@@2@@std@@QEAA@PEAV_Facet_base@1@@Z 0000000140017750 f i IspSoftAeApi.obj
 0001:000167b0       ??$?HDU?$char_traits@D@std@@V?$allocator@D@1@@std@@YA?AV?$basic_string@DU?$char_traits@D@std@@V?$allocator@D@2@@0@AEBV10@QEBD@Z 00000001400177b0 f i IspSoftAeApi.obj
 0001:000168b0       ??$_Fgetc@D@std@@YA_NAEADPEAU_iobuf@@@Z 00000001400178b0 f i IspSoftAeApi.obj
 0001:00016910       ??$_Fputc@D@std@@YA_NDPEAU_iobuf@@@Z 0000000140017910 f i IspSoftAeApi.obj
 0001:00016980       ??$_Pocma@V?$allocator@D@std@@@std@@YAXAEAV?$allocator@D@0@0@Z 0000000140017980 f i IspSoftAeApi.obj
 0001:000169b0       ??$_Reallocate_grow_by@V<lambda_1>@?1??push_back@?$basic_string@DU?$char_traits@D@std@@V?$allocator@D@2@@std@@QEAAXD@Z@D@?$basic_string@DU?$char_traits@D@std@@V?$allocator@D@2@@std@@AEAAAEAV01@_KV<lambda_1>@?1??push_back@01@QEAAXD@Z@D@Z 00000001400179b0 f i IspSoftAeApi.obj
 0001:00016bd0       ??$_Traits_find_last_of@U?$char_traits@D@std@@$00@std@@YA_KQEBD_K101@Z 0000000140017bd0 f i IspSoftAeApi.obj
 0001:00016d80       ??$_Traits_find_last_of@U?$char_traits@D@std@@$0A@@std@@YA_KQEBD_K101@Z 0000000140017d80 f i IspSoftAeApi.obj
 0001:00016e60       ??$_Ungetc@D@std@@YA_NAEBDPEAU_iobuf@@@Z 0000000140017e60 f i IspSoftAeApi.obj
 0001:00016ed0       ??$addressof@$$CBV?$codecvt@DDU_Mbstatet@@@std@@@std@@YAPEBV?$codecvt@DDU_Mbstatet@@@0@AEBV10@@Z 0000000140017ed0 f i IspSoftAeApi.obj
 0001:00016f00       ??$addressof@V?$basic_filebuf@DU?$char_traits@D@std@@@std@@@std@@YAPEAV?$basic_filebuf@DU?$char_traits@D@std@@@0@AEAV10@@Z 0000000140017f00 f i IspSoftAeApi.obj
 0001:00016f30       ??$addressof@V?$basic_string@DU?$char_traits@D@std@@V?$allocator@D@2@@std@@@std@@YAPEAV?$basic_string@DU?$char_traits@D@std@@V?$allocator@D@2@@0@AEAV10@@Z 0000000140017f30 f i IspSoftAeApi.obj
 0001:00016f60       ??$exchange@PEAV_Facet_base@std@@$$T@std@@YAPEAV_Facet_base@0@AEAPEAV10@$$QEA$$T@Z 0000000140017f60 f i IspSoftAeApi.obj
 0001:00016fc0       ??$use_facet@V?$codecvt@DDU_Mbstatet@@@std@@@std@@YAAEBV?$codecvt@DDU_Mbstatet@@@0@AEBVlocale@0@@Z 0000000140017fc0 f i IspSoftAeApi.obj
 0001:00017150       ??0?$_String_bitmap@D$00@std@@QEAA@XZ 0000000140018150 f i IspSoftAeApi.obj
 0001:00017190       ??0?$basic_filebuf@DU?$char_traits@D@std@@@std@@QEAA@XZ 0000000140018190 f i IspSoftAeApi.obj
 0001:000171f0       ??0?$basic_fstream@DU?$char_traits@D@std@@@std@@QEAA@XZ 00000001400181f0 f i IspSoftAeApi.obj
 0001:00017310       ??0?$basic_string@DU?$char_traits@D@std@@V?$allocator@D@2@@std@@QEAA@AEBV01@_K1AEBV?$allocator@D@1@@Z 0000000140018310 f i IspSoftAeApi.obj
 0001:000173e0       ??0?$basic_string@DU?$char_traits@D@std@@V?$allocator@D@2@@std@@QEAA@U_String_constructor_concat_tag@1@AEBV01@QEBD_K23@Z 00000001400183e0 f i IspSoftAeApi.obj
 0001:00017620       ??0?$basic_string@DU?$char_traits@D@std@@V?$allocator@D@2@@std@@QEAA@XZ 0000000140018620 f i IspSoftAeApi.obj
 0001:00017680       ??0?$fpos@U_Mbstatet@@@std@@QEAA@U_Mbstatet@@_J@Z 0000000140018680 f i IspSoftAeApi.obj
 0001:000176f0       ??0?$fpos@U_Mbstatet@@@std@@QEAA@_J@Z 00000001400186f0 f i IspSoftAeApi.obj
 0001:00017760       ??0bad_cast@std@@QEAA@AEBV01@@Z 0000000140018760 f i IspSoftAeApi.obj
 0001:000177b0       ??0bad_cast@std@@QEAA@XZ   00000001400187b0 f i IspSoftAeApi.obj
 0001:00017810       ??1?$basic_filebuf@DU?$char_traits@D@std@@@std@@UEAA@XZ 0000000140018810 f i IspSoftAeApi.obj
 0001:00017890       ??1?$basic_fstream@DU?$char_traits@D@std@@@std@@UEAA@XZ 0000000140018890 f i IspSoftAeApi.obj
 0001:00017950       ??1?$unique_ptr@V_Facet_base@std@@U?$default_delete@V_Facet_base@std@@@2@@std@@QEAA@XZ 0000000140018950 f i IspSoftAeApi.obj
 0001:000179b0       ??1bad_cast@std@@UEAA@XZ   00000001400189b0 f i IspSoftAeApi.obj
 0001:000179e0       ??1locale@std@@QEAA@XZ     00000001400189e0 f i IspSoftAeApi.obj
 0001:00017a70       ??4?$basic_string@DU?$char_traits@D@std@@V?$allocator@D@2@@std@@QEAAAEAV01@$$QEAV01@@Z 0000000140018a70 f i IspSoftAeApi.obj
 0001:00017b20       ??B?$fpos@U_Mbstatet@@@std@@QEBA_JXZ 0000000140018b20 f i IspSoftAeApi.obj
 0001:00017b60       ??R<lambda_1>@?1??push_back@?$basic_string@DU?$char_traits@D@std@@V?$allocator@D@2@@std@@QEAAXD@Z@QEBA@QEADQEBD_KD@Z 0000000140018b60 f i IspSoftAeApi.obj
 0001:00017c00       ??R?$default_delete@V_Facet_base@std@@@std@@QEBAXPEAV_Facet_base@1@@Z 0000000140018c00 f i IspSoftAeApi.obj
 0001:00017c80       ??_D?$basic_fstream@DU?$char_traits@D@std@@@std@@QEAAXXZ 0000000140018c80 f i IspSoftAeApi.obj
 0001:00017cc8       ??_E?$basic_fstream@DU?$char_traits@D@std@@@std@@$4PPPPPPPM@A@EAAPEAXI@Z 0000000140018cc8 f i IspSoftAeApi.obj
 0001:00017ce0       ??_E?$basic_filebuf@DU?$char_traits@D@std@@@std@@UEAAPEAXI@Z 0000000140018ce0 f i IspSoftAeApi.obj
 0001:00017ce0       ??_G?$basic_filebuf@DU?$char_traits@D@std@@@std@@UEAAPEAXI@Z 0000000140018ce0 f i IspSoftAeApi.obj
 0001:00017d40       ??_E?$basic_fstream@DU?$char_traits@D@std@@@std@@UEAAPEAXI@Z 0000000140018d40 f i IspSoftAeApi.obj
 0001:00017d40       ??_G?$basic_fstream@DU?$char_traits@D@std@@@std@@UEAAPEAXI@Z 0000000140018d40 f i IspSoftAeApi.obj
 0001:00017db0       ??_Ebad_cast@std@@UEAAPEAXI@Z 0000000140018db0 f i IspSoftAeApi.obj
 0001:00017db0       ??_Gbad_cast@std@@UEAAPEAXI@Z 0000000140018db0 f i IspSoftAeApi.obj
 0001:00017e10       ?AEConfigParamSet@@YAHPEAXPEAUparseParam@@@Z 0000000140018e10 f   IspSoftAeApi.obj
 0001:000196f0       ?AeTuningParseSet@@YAHPEAXPEAUparseParam@@@Z 000000014001a6f0 f   IspSoftAeApi.obj
 0001:0001a670       ?GetCurrMoudle@@YA?AV?$basic_string@DU?$char_traits@D@std@@V?$allocator@D@2@@std@@XZ 000000014001b670 f   IspSoftAeApi.obj
 0001:0001a910       ?UnicodeToAnsi_str@@YA?AV?$basic_string@DU?$char_traits@D@std@@V?$allocator@D@2@@std@@PEB_W@Z 000000014001b910 f   IspSoftAeApi.obj
 0001:0001aae0       ?_Calculate_growth@?$basic_string@DU?$char_traits@D@std@@V?$allocator@D@2@@std@@AEBA_K_K@Z 000000014001bae0 f i IspSoftAeApi.obj
 0001:0001ab40       ?_Check_offset@?$_String_val@U?$_Simple_types@D@std@@@std@@QEBAX_K@Z 000000014001bb40 f i IspSoftAeApi.obj
 0001:0001ab90       ?_Clamp_suffix_size@?$_String_val@U?$_Simple_types@D@std@@@std@@QEBA_K_K0@Z 000000014001bb90 f i IspSoftAeApi.obj
 0001:0001ac00       ?_Construct_empty@?$basic_string@DU?$char_traits@D@std@@V?$allocator@D@2@@std@@AEAAXXZ 000000014001bc00 f i IspSoftAeApi.obj
 0001:0001acb0       ?_Endwrite@?$basic_filebuf@DU?$char_traits@D@std@@@std@@IEAA_NXZ 000000014001bcb0 f i IspSoftAeApi.obj
 0001:0001aea0       ?_Erase_noexcept@?$basic_string@DU?$char_traits@D@std@@V?$allocator@D@2@@std@@AEAAAEAV12@_K_K@Z 000000014001bea0 f i IspSoftAeApi.obj
 0001:0001af90       ?_Get_first@?$_Compressed_pair@U?$default_delete@V_Facet_base@std@@@std@@PEAV_Facet_base@2@$00@std@@QEAAAEAU?$default_delete@V_Facet_base@std@@@2@XZ 000000014001bf90 f i IspSoftAeApi.obj
 0001:0001afc0       ?_Getfacet@locale@std@@QEBAPEBVfacet@12@_K@Z 000000014001bfc0 f i IspSoftAeApi.obj
 0001:0001b090       ?_Init@?$basic_filebuf@DU?$char_traits@D@std@@@std@@IEAAXPEAU_iobuf@@W4_Initfl@12@@Z 000000014001c090 f i IspSoftAeApi.obj
 0001:0001b210       ?_Initcvt@?$basic_filebuf@DU?$char_traits@D@std@@@std@@IEAAXAEBV?$codecvt@DDU_Mbstatet@@@2@@Z 000000014001c210 f i IspSoftAeApi.obj
 0001:0001b290       ?_Lock@?$basic_filebuf@DU?$char_traits@D@std@@@std@@UEAAXXZ 000000014001c290 f i IspSoftAeApi.obj
 0001:0001b2e0       ?_Mark@?$_String_bitmap@D$00@std@@QEAA_NPEBDQEBD@Z 000000014001c2e0 f i IspSoftAeApi.obj
 0001:0001b350       ?_Match@?$_String_bitmap@D$00@std@@QEBA_ND@Z 000000014001c350 f i IspSoftAeApi.obj
 0001:0001b390       ?_Myptr@?$_String_val@U?$_Simple_types@D@std@@@std@@QEAAPEADXZ 000000014001c390 f i IspSoftAeApi.obj
 0001:0001b400       ?_Myptr@?$_String_val@U?$_Simple_types@D@std@@@std@@QEBAPEBDXZ 000000014001c400 f i IspSoftAeApi.obj
 0001:0001b470       ?_Reset_back@?$basic_filebuf@DU?$char_traits@D@std@@@std@@AEAAXXZ 000000014001c470 f i IspSoftAeApi.obj
 0001:0001b4f0       ?_Set_back@?$basic_filebuf@DU?$char_traits@D@std@@@std@@AEAAXXZ 000000014001c4f0 f i IspSoftAeApi.obj
 0001:0001b5a0       ?_Throw_bad_cast@std@@YAXXZ 000000014001c5a0 f i IspSoftAeApi.obj
 0001:0001b5f0       ?_Unlock@?$basic_filebuf@DU?$char_traits@D@std@@@std@@UEAAXXZ 000000014001c5f0 f i IspSoftAeApi.obj
 0001:0001b640       ?_Xran@?$_String_val@U?$_Simple_types@D@std@@@std@@SAXXZ 000000014001c640 f i IspSoftAeApi.obj
 0001:0001b680       ?__autoclassinit2@?$basic_fstream@DU?$char_traits@D@std@@@std@@QEAAX_K@Z 000000014001c680 f i IspSoftAeApi.obj
 0001:0001b6c0       ?__autoclassinit2@?$unique_ptr@V_Facet_base@std@@U?$default_delete@V_Facet_base@std@@@2@@std@@QEAAX_K@Z 000000014001c6c0 f i IspSoftAeApi.obj
 0001:0001b700       ?c_str@?$basic_string@DU?$char_traits@D@std@@V?$allocator@D@2@@std@@QEBAPEBDXZ 000000014001c700 f i IspSoftAeApi.obj
 0001:0001b740       ?close@?$basic_filebuf@DU?$char_traits@D@std@@@std@@QEAAPEAV12@XZ 000000014001c740 f i IspSoftAeApi.obj
 0001:0001b7f0       ?close@?$basic_fstream@DU?$char_traits@D@std@@@std@@QEAAXXZ 000000014001c7f0 f i IspSoftAeApi.obj
 0001:0001b860       ?data@?$basic_string@DU?$char_traits@D@std@@V?$allocator@D@2@@std@@QEBAPEBDXZ 000000014001c860 f i IspSoftAeApi.obj
 0001:0001b8a0       ?eof@?$_Narrow_char_traits@DH@std@@SAHXZ 000000014001c8a0 f i IspSoftAeApi.obj
 0001:0001b8d0       ?eq_int_type@?$_Narrow_char_traits@DH@std@@SA_NHH@Z 000000014001c8d0 f i IspSoftAeApi.obj
 0001:0001b930       ?erase@?$basic_string@DU?$char_traits@D@std@@V?$allocator@D@2@@std@@QEAAAEAV12@_K0@Z 000000014001c930 f i IspSoftAeApi.obj
 0001:0001b9a0       ?find@?$_Narrow_char_traits@DH@std@@SAPEBDQEBD_KAEBD@Z 000000014001c9a0 f i IspSoftAeApi.obj
 0001:0001ba00       ?find_last_of@?$basic_string@DU?$char_traits@D@std@@V?$allocator@D@2@@std@@QEBA_KQEBD_K@Z 000000014001ca00 f i IspSoftAeApi.obj
 0001:0001ba80       ?front@?$basic_string@DU?$char_traits@D@std@@V?$allocator@D@2@@std@@QEAAAEADXZ 000000014001ca80 f i IspSoftAeApi.obj
 0001:0001bb50       ?imbue@?$basic_filebuf@DU?$char_traits@D@std@@@std@@MEAAXAEBVlocale@2@@Z 000000014001cb50 f i IspSoftAeApi.obj
 0001:0001bba0       ?is_open@?$basic_filebuf@DU?$char_traits@D@std@@@std@@QEBA_NXZ 000000014001cba0 f i IspSoftAeApi.obj
 0001:0001bc00       ?is_open@?$basic_fstream@DU?$char_traits@D@std@@@std@@QEBA_NXZ 000000014001cc00 f i IspSoftAeApi.obj
 0001:0001be60       ?move@?$_Char_traits@DH@std@@SAPEADQEADQEBD_K@Z 000000014001ce60 f i IspSoftAeApi.obj
 0001:0001bec0       ?not_eof@?$_Narrow_char_traits@DH@std@@SAHH@Z 000000014001cec0 f i IspSoftAeApi.obj
 0001:0001bf40       ?open@?$basic_filebuf@DU?$char_traits@D@std@@@std@@QEAAPEAV12@PEBDHH@Z 000000014001cf40 f i IspSoftAeApi.obj
 0001:0001c030       ?open@?$basic_fstream@DU?$char_traits@D@std@@@std@@QEAAXAEBV?$basic_string@DU?$char_traits@D@std@@V?$allocator@D@2@@2@HH@Z 000000014001d030 f i IspSoftAeApi.obj
 0001:0001c0a0       ?open@?$basic_fstream@DU?$char_traits@D@std@@@std@@QEAAXPEBDHH@Z 000000014001d0a0 f i IspSoftAeApi.obj
 0001:0001c160       ?overflow@?$basic_filebuf@DU?$char_traits@D@std@@@std@@MEAAHH@Z 000000014001d160 f i IspSoftAeApi.obj
 0001:0001c450       ?pbackfail@?$basic_filebuf@DU?$char_traits@D@std@@@std@@MEAAHH@Z 000000014001d450 f i IspSoftAeApi.obj
 0001:0001c890       ?push_back@?$basic_string@DU?$char_traits@D@std@@V?$allocator@D@2@@std@@QEAAXD@Z 000000014001d890 f i IspSoftAeApi.obj
 0001:0001c980       ?release@?$unique_ptr@V_Facet_base@std@@U?$default_delete@V_Facet_base@std@@@2@@std@@QEAAPEAV_Facet_base@2@XZ 000000014001d980 f i IspSoftAeApi.obj
 0001:0001cbe0       ?seekoff@?$basic_filebuf@DU?$char_traits@D@std@@@std@@MEAA?AV?$fpos@U_Mbstatet@@@2@_JHH@Z 000000014001dbe0 f i IspSoftAeApi.obj
 0001:0001cd70       ?seekpos@?$basic_filebuf@DU?$char_traits@D@std@@@std@@MEAA?AV?$fpos@U_Mbstatet@@@2@V32@H@Z 000000014001dd70 f i IspSoftAeApi.obj
 0001:0001cec0       ?select_on_container_copy_construction@?$_Default_allocator_traits@V?$allocator@D@std@@@std@@SA?AV?$allocator@D@2@AEBV32@@Z 000000014001dec0 f i IspSoftAeApi.obj
 0001:0001cf00       ?setbuf@?$basic_filebuf@DU?$char_traits@D@std@@@std@@MEAAPEAV?$basic_streambuf@DU?$char_traits@D@std@@@2@PEAD_J@Z 000000014001df00 f i IspSoftAeApi.obj
 0001:0001cfd0       ?size@?$basic_string@DU?$char_traits@D@std@@V?$allocator@D@2@@std@@QEBA_KXZ 000000014001dfd0 f i IspSoftAeApi.obj
 0001:0001d010       ?state@?$fpos@U_Mbstatet@@@std@@QEBA?AU_Mbstatet@@XZ 000000014001e010 f i IspSoftAeApi.obj
 0001:0001d060       ?substr@?$basic_string@DU?$char_traits@D@std@@V?$allocator@D@2@@std@@QEBA?AV12@_K0@Z 000000014001e060 f i IspSoftAeApi.obj
 0001:0001d0f0       ?sync@?$basic_filebuf@DU?$char_traits@D@std@@@std@@MEAAHXZ 000000014001e0f0 f i IspSoftAeApi.obj
 0001:0001d1a0       ?to_char_type@?$_Narrow_char_traits@DH@std@@SADH@Z 000000014001e1a0 f i IspSoftAeApi.obj
 0001:0001d1d0       ?to_int_type@?$_Narrow_char_traits@DH@std@@SAHD@Z 000000014001e1d0 f i IspSoftAeApi.obj
 0001:0001d200       ?uflow@?$basic_filebuf@DU?$char_traits@D@std@@@std@@MEAAHXZ 000000014001e200 f i IspSoftAeApi.obj
 0001:0001d590       ?underflow@?$basic_filebuf@DU?$char_traits@D@std@@@std@@MEAAHXZ 000000014001e590 f i IspSoftAeApi.obj
 0001:0001d810       ?xsgetn@?$basic_filebuf@DU?$char_traits@D@std@@@std@@MEAA_JPEAD_J@Z 000000014001e810 f i IspSoftAeApi.obj
 0001:0001da70       ?xsputn@?$basic_filebuf@DU?$char_traits@D@std@@@std@@MEAA_JPEBD_J@Z 000000014001ea70 f i IspSoftAeApi.obj
 0001:0001dbe0       IspSoftAeLoad              000000014001ebe0 f   IspSoftAeApi.obj
 0001:0001dd10       ??$?0$$V@?$_Compressed_pair@V?$allocator@PEAX@std@@V?$_Vector_val@U?$_Simple_types@PEAX@std@@@2@$00@std@@QEAA@U_Zero_then_variadic_args_t@1@@Z 000000014001ed10 f i test.obj
 0001:0001dd60       ??$?0$$V@?$_Compressed_pair@V?$allocator@UIspFrameData@@@std@@V?$_Deque_val@U?$_Deque_simple_types@UIspFrameData@@@std@@@2@$00@std@@QEAA@U_Zero_then_variadic_args_t@1@@Z 000000014001ed60 f i test.obj
 0001:0001ddb0       ??$?0AEAP6AHPEAXI0@Z@?$_Tuple_val@P6AHPEAXI0@Z@std@@QEAA@AEAP6AHPEAXI0@Z@Z 000000014001edb0 f i test.obj
 0001:0001de00       ??$?0AEAP6AHPEAXI0@ZAEAPEAXW4IspSoftAeProcessType@@PEAUIspSoftAeInImage@@$0A@@?$tuple@P6AHPEAXI0@ZPEAXW4IspSoftAeProcessType@@PEAUIspSoftAeInImage@@@std@@QEAA@AEAP6AHPEAXI0@ZAEAPEAX$$QEAW4IspSoftAeProcessType@@$$QEAPEAUIspSoftAeInImage@@@Z 000000014001ee00 f i test.obj
 0001:0001de80       ??$?0AEAPEAU_TaskProcHandle@details@Concurrency@@@?$_Compressed_pair@U?$default_delete@U_TaskProcHandle@details@Concurrency@@@std@@PEAU_TaskProcHandle@details@Concurrency@@$00@std@@QEAA@U_Zero_then_variadic_args_t@1@AEAPEAU_TaskProcHandle@details@Concurrency@@@Z 000000014001ee80 f i test.obj
 0001:0001ded0       ??$?0AEAPEAV_CancellationTokenState@details@Concurrency@@AEAUscheduler_ptr@2@@?$_Ref_count_obj2@U?$_Task_impl@E@details@Concurrency@@@std@@QEAA@AEAPEAV_CancellationTokenState@details@Concurrency@@AEAUscheduler_ptr@4@@Z 000000014001eed0 f i test.obj
 0001:0001df60       ??$?0AEAPEAV_PPLTaskChore@_DefaultPPLTaskScheduler@details@Concurrency@@@?$_Compressed_pair@U?$default_delete@V_PPLTaskChore@_DefaultPPLTaskScheduler@details@Concurrency@@@std@@PEAV_PPLTaskChore@_DefaultPPLTaskScheduler@details@Concurrency@@$00@std@@QEAA@U_Zero_then_variadic_args_t@1@AEAPEAV_PPLTaskChore@_DefaultPPLTaskScheduler@details@Concurrency@@@Z 000000014001ef60 f i test.obj
 0001:0001dfb0       ??$?0AEAPEAX@?$_Tuple_val@PEAX@std@@QEAA@AEAPEAX@Z 000000014001efb0 f i test.obj
 0001:0001e000       ??$?0AEBV<lambda_1>@?1???$?0V?$_Fake_no_copy_callable_adapter@AEAP6AHPEAXI0@ZAEAPEAXW4IspSoftAeProcessType@@PEAUIspSoftAeInImage@@@std@@@?$_Task_async_state@H@std@@QEAA@$$QEAV?$_Fake_no_copy_callable_adapter@AEAP6AHPEAXI0@ZAEAPEAXW4IspSoftAeProcessType@@PEAUIspSoftAeInImage@@@2@@Z@$0A@@?$_Func_impl_no_alloc@V<lambda_1>@?1???$?0V?$_Fake_no_copy_callable_adapter@AEAP6AHPEAXI0@ZAEAPEAXW4IspSoftAeProcessType@@PEAUIspSoftAeInImage@@@std@@@?$_Task_async_state@H@std@@QEAA@$$QEAV?$_Fake_no_copy_callable_adapter@AEAP6AHPEAXI0@ZAEAPEAXW4IspSoftAeProcessType@@PEAUIspSoftAeInImage@@@3@@Z@X$$V@std@@QEAA@AEBV<lambda_1>@?1???$?0V?$_Fake_no_copy_callable_adapter@AEAP6AHPEAXI0@ZAEAPEAXW4IspSoftAeProcessType@@PEAUIspSoftAeInImage@@@std@@@?$_Task_async_state@H@1@QEAA@$$QEAV?$_Fake_no_copy_callable_adapter@AEAP6AHPEAXI0@ZAEAPEAXW4IspSoftAeProcessType@@PEAUIspSoftAeInImage@@@1@@Z@@Z 000000014001f000 f i test.obj
 0001:0001e070       ??$?0AEBV<lambda_1>@?1???$?0V?$_Fake_no_copy_callable_adapter@AEAP6AHPEAXI0@ZAEAPEAXW4IspSoftAeProcessType@@PEAUIspSoftAeInImage@@@std@@@?$_Task_async_state@H@std@@QEAA@$$QEAV?$_Fake_no_copy_callable_adapter@AEAP6AHPEAXI0@ZAEAPEAXW4IspSoftAeProcessType@@PEAUIspSoftAeInImage@@@2@@Z@$0A@@?$function@$$A6AXXZ@std@@QEAA@AEBV<lambda_1>@?1???$?0V?$_Fake_no_copy_callable_adapter@AEAP6AHPEAXI0@ZAEAPEAXW4IspSoftAeProcessType@@PEAUIspSoftAeInImage@@@std@@@?$_Task_async_state@H@1@QEAA@$$QEAV?$_Fake_no_copy_callable_adapter@AEAP6AHPEAXI0@ZAEAPEAXW4IspSoftAeProcessType@@PEAUIspSoftAeInImage@@@1@@Z@@Z 000000014001f070 f i test.obj
 0001:0001e0d0       ??$?0AEBV<lambda_1>@?1??_MakeVoidToUnitFunc@details@Concurrency@@YA?AV?$function@$$A6AEXZ@std@@AEBV?$function@$$A6AXXZ@5@@Z@$0A@@?$_Func_impl_no_alloc@V<lambda_1>@?1??_MakeVoidToUnitFunc@details@Concurrency@@YA?AV?$function@$$A6AEXZ@std@@AEBV?$function@$$A6AXXZ@6@@Z@E$$V@std@@QEAA@AEBV<lambda_1>@?1??_MakeVoidToUnitFunc@details@Concurrency@@YA?AV?$function@$$A6AEXZ@1@AEBV?$function@$$A6AXXZ@1@@Z@@Z 000000014001f0d0 f i test.obj
 0001:0001e140       ??$?0AEBV<lambda_1>@?4??_ScheduleContinuationTask@_Task_impl_base@details@Concurrency@@QEAAXPEAU_ContinuationTaskHandleBase@34@@Z@$0A@@?$_Func_impl_no_alloc@V<lambda_1>@?4??_ScheduleContinuationTask@_Task_impl_base@details@Concurrency@@QEAAXPEAU_ContinuationTaskHandleBase@45@@Z@X$$V@std@@QEAA@AEBV<lambda_1>@?4??_ScheduleContinuationTask@_Task_impl_base@details@Concurrency@@QEAAXPEAU_ContinuationTaskHandleBase@56@@Z@@Z 000000014001f140 f i test.obj
 0001:0001e1b0       ??$?0AEBV<lambda_1>@?7???R0?4??_ScheduleContinuationTask@_Task_impl_base@details@Concurrency@@QEAAXPEAU_ContinuationTaskHandleBase@34@@Z@QEBA@XZ@$0A@@?$_Func_impl_no_alloc@V<lambda_1>@?7???R1?4??_ScheduleContinuationTask@_Task_impl_base@details@Concurrency@@QEAAXPEAU_ContinuationTaskHandleBase@45@@Z@QEBA@XZ@X$$V@std@@QEAA@AEBV<lambda_1>@?7???R2?4??_ScheduleContinuationTask@_Task_impl_base@details@Concurrency@@QEAAXPEAU_ContinuationTaskHandleBase@56@@Z@QEBA@XZ@@Z 000000014001f1b0 f i test.obj
 0001:0001e220       ??$?0AEBV<lambda_1>@?CC@??_CancelAndRunContinuations@?$_Task_impl@E@details@Concurrency@@UEAA_N_N00AEBV?$shared_ptr@U_ExceptionHolder@details@Concurrency@@@std@@@Z@$0A@@?$_Func_impl_no_alloc@V<lambda_1>@?CC@??_CancelAndRunContinuations@?$_Task_impl@E@details@Concurrency@@UEAA_N_N00AEBV?$shared_ptr@U_ExceptionHolder@details@Concurrency@@@std@@@Z@X$$V@std@@QEAA@AEBV<lambda_1>@?CC@??_CancelAndRunContinuations@?$_Task_impl@E@details@Concurrency@@UEAA_N_N00AEBV?$shared_ptr@U_ExceptionHolder@details@Concurrency@@@1@@Z@@Z 000000014001f220 f i test.obj
 0001:0001e290       ??$?0AEBV?$_Fake_no_copy_callable_adapter@AEAP6AHPEAXI0@ZAEAPEAXW4IspSoftAeProcessType@@PEAUIspSoftAeInImage@@@std@@$0A@@?$_Func_impl_no_alloc@V?$_Fake_no_copy_callable_adapter@AEAP6AHPEAXI0@ZAEAPEAXW4IspSoftAeProcessType@@PEAUIspSoftAeInImage@@@std@@H$$V@std@@QEAA@AEBV?$_Fake_no_copy_callable_adapter@AEAP6AHPEAXI0@ZAEAPEAXW4IspSoftAeProcessType@@PEAUIspSoftAeInImage@@@1@@Z 000000014001f290 f i test.obj
 0001:0001e310       ??$?0AEBVexception_ptr@std@@V_TaskCreationCallstack@details@Concurrency@@@?$_Ref_count_obj2@U_ExceptionHolder@details@Concurrency@@@std@@QEAA@AEBVexception_ptr@1@$$QEAV_TaskCreationCallstack@details@Concurrency@@@Z 000000014001f310 f i test.obj
 0001:0001e3a0       ??$?0PEAUIspSoftAeInImage@@@?$_Tuple_val@PEAUIspSoftAeInImage@@@std@@QEAA@$$QEAPEAUIspSoftAeInImage@@@Z 000000014001f3a0 f i test.obj
 0001:0001e3f0       ??$?0PEAX@?$allocator@U_Container_proxy@std@@@std@@QEAA@AEBV?$allocator@PEAX@1@@Z 000000014001f3f0 f i test.obj
 0001:0001e430       ??$?0U?$_Task_impl@E@details@Concurrency@@$0A@@?$weak_ptr@U_Task_impl_base@details@Concurrency@@@std@@QEAA@AEBV?$shared_ptr@U?$_Task_impl@E@details@Concurrency@@@1@@Z 000000014001f430 f i test.obj
 0001:0001e490       ??$?0U?$default_delete@U_TaskProcHandle@details@Concurrency@@@std@@$0A@@?$unique_ptr@U_TaskProcHandle@details@Concurrency@@U?$default_delete@U_TaskProcHandle@details@Concurrency@@@std@@@std@@QEAA@PEAU_TaskProcHandle@details@Concurrency@@@Z 000000014001f490 f i test.obj
 0001:0001e4f0       ??$?0U?$default_delete@V_PPLTaskChore@_DefaultPPLTaskScheduler@details@Concurrency@@@std@@$0A@@?$unique_ptr@V_PPLTaskChore@_DefaultPPLTaskScheduler@details@Concurrency@@U?$default_delete@V_PPLTaskChore@_DefaultPPLTaskScheduler@details@Concurrency@@@std@@@std@@QEAA@$$QEAV01@@Z 000000014001f4f0 f i test.obj
 0001:0001e570       ??$?0U?$default_delete@V_PPLTaskChore@_DefaultPPLTaskScheduler@details@Concurrency@@@std@@$0A@@?$unique_ptr@V_PPLTaskChore@_DefaultPPLTaskScheduler@details@Concurrency@@U?$default_delete@V_PPLTaskChore@_DefaultPPLTaskScheduler@details@Concurrency@@@std@@@std@@QEAA@PEAV_PPLTaskChore@_DefaultPPLTaskScheduler@details@Concurrency@@@Z 000000014001f570 f i test.obj
 0001:0001e5d0       ??$?0U?$default_delete@V_PPLTaskChore@_DefaultPPLTaskScheduler@details@Concurrency@@@std@@PEAV_PPLTaskChore@_DefaultPPLTaskScheduler@details@Concurrency@@@?$_Compressed_pair@U?$default_delete@V_PPLTaskChore@_DefaultPPLTaskScheduler@details@Concurrency@@@std@@PEAV_PPLTaskChore@_DefaultPPLTaskScheduler@details@Concurrency@@$00@std@@QEAA@U_One_then_variadic_args_t@1@$$QEAU?$default_delete@V_PPLTaskChore@_DefaultPPLTaskScheduler@details@Concurrency@@@1@$$QEAPEAV_PPLTaskChore@_DefaultPPLTaskScheduler@details@Concurrency@@@Z 000000014001f5d0 f i test.obj
 0001:0001e630       ??$?0UIspFrameData@@@?$allocator@PEAUIspFrameData@@@std@@QEAA@AEBV?$allocator@UIspFrameData@@@1@@Z 000000014001f630 f i test.obj
 0001:0001e670       ??$?0UIspFrameData@@@?$allocator@U_Container_proxy@std@@@std@@QEAA@AEBV?$allocator@UIspFrameData@@@1@@Z 000000014001f670 f i test.obj
 0001:0001e6b0       ??$?0U_Exact_args_t@std@@$0A@@?$tuple@$$V@std@@QEAA@U_Exact_args_t@1@@Z 000000014001f6b0 f i test.obj
 0001:0001e6f0       ??$?0U_Exact_args_t@std@@AEAP6AHPEAXI0@ZAEAPEAXW4IspSoftAeProcessType@@PEAUIspSoftAeInImage@@$0A@@?$tuple@P6AHPEAXI0@ZPEAXW4IspSoftAeProcessType@@PEAUIspSoftAeInImage@@@std@@QEAA@U_Exact_args_t@1@AEAP6AHPEAXI1@ZAEAPEAX$$QEAW4IspSoftAeProcessType@@$$QEAPEAUIspSoftAeInImage@@@Z 000000014001f6f0 f i test.obj
 0001:0001e780       ??$?0U_Exact_args_t@std@@AEAPEAXW4IspSoftAeProcessType@@PEAUIspSoftAeInImage@@$0A@@?$tuple@PEAXW4IspSoftAeProcessType@@PEAUIspSoftAeInImage@@@std@@QEAA@U_Exact_args_t@1@AEAPEAX$$QEAW4IspSoftAeProcessType@@$$QEAPEAUIspSoftAeInImage@@@Z 000000014001f780 f i test.obj
 0001:0001e800       ??$?0U_Exact_args_t@std@@PEAUIspSoftAeInImage@@$$V$0A@@?$tuple@PEAUIspSoftAeInImage@@@std@@QEAA@U_Exact_args_t@1@$$QEAPEAUIspSoftAeInImage@@@Z 000000014001f800 f i test.obj
 0001:0001e870       ??$?0U_Exact_args_t@std@@W4IspSoftAeProcessType@@PEAUIspSoftAeInImage@@$0A@@?$tuple@W4IspSoftAeProcessType@@PEAUIspSoftAeInImage@@@std@@QEAA@U_Exact_args_t@1@$$QEAW4IspSoftAeProcessType@@$$QEAPEAUIspSoftAeInImage@@@Z 000000014001f870 f i test.obj
 0001:0001e8f0       ??$?0V<lambda_1>@?1???$?0V?$_Fake_no_copy_callable_adapter@AEAP6AHPEAXI0@ZAEAPEAXW4IspSoftAeProcessType@@PEAUIspSoftAeInImage@@@std@@@?$_Task_async_state@H@std@@QEAA@$$QEAV?$_Fake_no_copy_callable_adapter@AEAP6AHPEAXI0@ZAEAPEAXW4IspSoftAeProcessType@@PEAUIspSoftAeInImage@@@2@@Z@$0A@@?$_Func_impl_no_alloc@V<lambda_1>@?1???$?0V?$_Fake_no_copy_callable_adapter@AEAP6AHPEAXI0@ZAEAPEAXW4IspSoftAeProcessType@@PEAUIspSoftAeInImage@@@std@@@?$_Task_async_state@H@std@@QEAA@$$QEAV?$_Fake_no_copy_callable_adapter@AEAP6AHPEAXI0@ZAEAPEAXW4IspSoftAeProcessType@@PEAUIspSoftAeInImage@@@3@@Z@X$$V@std@@QEAA@$$QEAV<lambda_1>@?1???$?0V?$_Fake_no_copy_callable_adapter@AEAP6AHPEAXI0@ZAEAPEAXW4IspSoftAeProcessType@@PEAUIspSoftAeInImage@@@std@@@?$_Task_async_state@H@1@QEAA@$$QEAV?$_Fake_no_copy_callable_adapter@AEAP6AHPEAXI0@ZAEAPEAXW4IspSoftAeProcessType@@PEAUIspSoftAeInImage@@@1@@Z@@Z 000000014001f8f0 f i test.obj
 0001:0001e960       ??$?0V<lambda_1>@?1???$?0V?$_Fake_no_copy_callable_adapter@AEAP6AHPEAXI0@ZAEAPEAXW4IspSoftAeProcessType@@PEAUIspSoftAeInImage@@@std@@@?$_Task_async_state@H@std@@QEAA@$$QEAV?$_Fake_no_copy_callable_adapter@AEAP6AHPEAXI0@ZAEAPEAXW4IspSoftAeProcessType@@PEAUIspSoftAeInImage@@@2@@Z@@?$task@X@Concurrency@@QEAA@V<lambda_1>@?1???$?0V?$_Fake_no_copy_callable_adapter@AEAP6AHPEAXI0@ZAEAPEAXW4IspSoftAeProcessType@@PEAUIspSoftAeInImage@@@std@@@?$_Task_async_state@H@std@@QEAA@$$QEAV?$_Fake_no_copy_callable_adapter@AEAP6AHPEAXI0@ZAEAPEAXW4IspSoftAeProcessType@@PEAUIspSoftAeInImage@@@4@@Z@AEBVtask_options@1@@Z 000000014001f960 f i test.obj
 0001:0001eb90       ??$?0V<lambda_1>@?1??_MakeVoidToUnitFunc@details@Concurrency@@YA?AV?$function@$$A6AEXZ@std@@AEBV?$function@$$A6AXXZ@5@@Z@$0A@@?$_Func_impl_no_alloc@V<lambda_1>@?1??_MakeVoidToUnitFunc@details@Concurrency@@YA?AV?$function@$$A6AEXZ@std@@AEBV?$function@$$A6AXXZ@6@@Z@E$$V@std@@QEAA@$$QEAV<lambda_1>@?1??_MakeVoidToUnitFunc@details@Concurrency@@YA?AV?$function@$$A6AEXZ@1@AEBV?$function@$$A6AXXZ@1@@Z@@Z 000000014001fb90 f i test.obj
 0001:0001ec00       ??$?0V<lambda_1>@?1??_MakeVoidToUnitFunc@details@Concurrency@@YA?AV?$function@$$A6AEXZ@std@@AEBV?$function@$$A6AXXZ@5@@Z@$0A@@?$function@$$A6AEXZ@std@@QEAA@$$QEAV<lambda_1>@?1??_MakeVoidToUnitFunc@details@Concurrency@@YA?AV01@AEBV?$function@$$A6AXXZ@1@@Z@@Z 000000014001fc00 f i test.obj
 0001:0001ec60       ??$?0V<lambda_1>@?4??_ScheduleContinuationTask@_Task_impl_base@details@Concurrency@@QEAAXPEAU_ContinuationTaskHandleBase@34@@Z@$0A@@?$_Func_impl_no_alloc@V<lambda_1>@?4??_ScheduleContinuationTask@_Task_impl_base@details@Concurrency@@QEAAXPEAU_ContinuationTaskHandleBase@45@@Z@X$$V@std@@QEAA@$$QEAV<lambda_1>@?4??_ScheduleContinuationTask@_Task_impl_base@details@Concurrency@@QEAAXPEAU_ContinuationTaskHandleBase@56@@Z@@Z 000000014001fc60 f i test.obj
 0001:0001ecd0       ??$?0V<lambda_1>@?4??_ScheduleContinuationTask@_Task_impl_base@details@Concurrency@@QEAAXPEAU_ContinuationTaskHandleBase@34@@Z@$0A@@?$function@$$A6AXXZ@std@@QEAA@$$QEAV<lambda_1>@?4??_ScheduleContinuationTask@_Task_impl_base@details@Concurrency@@QEAAXPEAU_ContinuationTaskHandleBase@56@@Z@@Z 000000014001fcd0 f i test.obj
 0001:0001ed30       ??$?0V<lambda_1>@?7???R0?4??_ScheduleContinuationTask@_Task_impl_base@details@Concurrency@@QEAAXPEAU_ContinuationTaskHandleBase@34@@Z@QEBA@XZ@$0A@@?$_Func_impl_no_alloc@V<lambda_1>@?7???R1?4??_ScheduleContinuationTask@_Task_impl_base@details@Concurrency@@QEAAXPEAU_ContinuationTaskHandleBase@45@@Z@QEBA@XZ@X$$V@std@@QEAA@$$QEAV<lambda_1>@?7???R2?4??_ScheduleContinuationTask@_Task_impl_base@details@Concurrency@@QEAAXPEAU_ContinuationTaskHandleBase@56@@Z@QEBA@XZ@@Z 000000014001fd30 f i test.obj
 0001:0001eda0       ??$?0V<lambda_1>@?7???R0?4??_ScheduleContinuationTask@_Task_impl_base@details@Concurrency@@QEAAXPEAU_ContinuationTaskHandleBase@34@@Z@QEBA@XZ@$0A@@?$function@$$A6AXXZ@std@@QEAA@$$QEAV<lambda_1>@?7???R2?4??_ScheduleContinuationTask@_Task_impl_base@details@Concurrency@@QEAAXPEAU_ContinuationTaskHandleBase@56@@Z@QEBA@XZ@@Z 000000014001fda0 f i test.obj
 0001:0001ee00       ??$?0V<lambda_1>@?CC@??_CancelAndRunContinuations@?$_Task_impl@E@details@Concurrency@@UEAA_N_N00AEBV?$shared_ptr@U_ExceptionHolder@details@Concurrency@@@std@@@Z@$0A@@?$_Func_impl_no_alloc@V<lambda_1>@?CC@??_CancelAndRunContinuations@?$_Task_impl@E@details@Concurrency@@UEAA_N_N00AEBV?$shared_ptr@U_ExceptionHolder@details@Concurrency@@@std@@@Z@X$$V@std@@QEAA@$$QEAV<lambda_1>@?CC@??_CancelAndRunContinuations@?$_Task_impl@E@details@Concurrency@@UEAA_N_N00AEBV?$shared_ptr@U_ExceptionHolder@details@Concurrency@@@1@@Z@@Z 000000014001fe00 f i test.obj
 0001:0001ee70       ??$?0V<lambda_1>@?CC@??_CancelAndRunContinuations@?$_Task_impl@E@details@Concurrency@@UEAA_N_N00AEBV?$shared_ptr@U_ExceptionHolder@details@Concurrency@@@std@@@Z@$0A@@?$function@$$A6AXXZ@std@@QEAA@$$QEAV<lambda_1>@?CC@??_CancelAndRunContinuations@?$_Task_impl@E@details@Concurrency@@UEAA_N_N00AEBV?$shared_ptr@U_ExceptionHolder@details@Concurrency@@@1@@Z@@Z 000000014001fe70 f i test.obj
 0001:0001eed0       ??$?0V?$_Fake_no_copy_callable_adapter@AEAP6AHPEAXI0@ZAEAPEAXW4IspSoftAeProcessType@@PEAUIspSoftAeInImage@@@std@@$0A@@?$_Func_impl_no_alloc@V?$_Fake_no_copy_callable_adapter@AEAP6AHPEAXI0@ZAEAPEAXW4IspSoftAeProcessType@@PEAUIspSoftAeInImage@@@std@@H$$V@std@@QEAA@$$QEAV?$_Fake_no_copy_callable_adapter@AEAP6AHPEAXI0@ZAEAPEAXW4IspSoftAeProcessType@@PEAUIspSoftAeInImage@@@1@@Z 000000014001fed0 f i test.obj
 0001:0001ef40       ??$?0V?$_Fake_no_copy_callable_adapter@AEAP6AHPEAXI0@ZAEAPEAXW4IspSoftAeProcessType@@PEAUIspSoftAeInImage@@@std@@$0A@@?$function@$$A6AHXZ@std@@QEAA@$$QEAV?$_Fake_no_copy_callable_adapter@AEAP6AHPEAXI0@ZAEAPEAXW4IspSoftAeProcessType@@PEAUIspSoftAeInImage@@@1@@Z 000000014001ff40 f i test.obj
 0001:0001efa0       ??$?0V?$_Fake_no_copy_callable_adapter@AEAP6AHPEAXI0@ZAEAPEAXW4IspSoftAeProcessType@@PEAUIspSoftAeInImage@@@std@@@?$_Deferred_async_state@H@std@@QEAA@$$QEAV?$_Fake_no_copy_callable_adapter@AEAP6AHPEAXI0@ZAEAPEAXW4IspSoftAeProcessType@@PEAUIspSoftAeInImage@@@1@@Z 000000014001ffa0 f i test.obj
 0001:0001f000       ??$?0V?$_Fake_no_copy_callable_adapter@AEAP6AHPEAXI0@ZAEAPEAXW4IspSoftAeProcessType@@PEAUIspSoftAeInImage@@@std@@@?$_Packaged_state@$$A6AHXZ@std@@QEAA@$$QEAV?$_Fake_no_copy_callable_adapter@AEAP6AHPEAXI0@ZAEAPEAXW4IspSoftAeProcessType@@PEAUIspSoftAeInImage@@@1@@Z 0000000140020000 f i test.obj
 0001:0001f080       ??$?0V?$_Fake_no_copy_callable_adapter@AEAP6AHPEAXI0@ZAEAPEAXW4IspSoftAeProcessType@@PEAUIspSoftAeInImage@@@std@@@?$_Task_async_state@H@std@@QEAA@$$QEAV?$_Fake_no_copy_callable_adapter@AEAP6AHPEAXI0@ZAEAPEAXW4IspSoftAeProcessType@@PEAUIspSoftAeInImage@@@1@@Z 0000000140020080 f i test.obj
 0001:0001f180       ??$?0V?$allocator@PEAX@std@@$$V@?$_Compressed_pair@V?$allocator@PEAX@std@@V?$_Vector_val@U?$_Simple_types@PEAX@std@@@2@$00@std@@QEAA@U_One_then_variadic_args_t@1@$$QEAV?$allocator@PEAX@1@@Z 0000000140020180 f i test.obj
 0001:0001f1d0       ??$?0W4IspSoftAeProcessType@@@?$_Tuple_val@W4IspSoftAeProcessType@@@std@@QEAA@$$QEAW4IspSoftAeProcessType@@@Z 00000001400201d0 f i test.obj
 0001:0001f220       ??$?9U_Task_impl_base@details@Concurrency@@@std@@YA_NAEBV?$shared_ptr@U_Task_impl_base@details@Concurrency@@@0@$$T@Z 0000000140020220 f i test.obj
 0001:0001f280       ??$?CU?$_Task_impl@E@details@Concurrency@@$0A@@?$shared_ptr@U?$_Task_impl@E@details@Concurrency@@@std@@QEBAPEAU?$_Task_impl@E@details@Concurrency@@XZ 0000000140020280 f i test.obj
 0001:0001f2c0       ??$?CU_ExceptionHolder@details@Concurrency@@$0A@@?$shared_ptr@U_ExceptionHolder@details@Concurrency@@@std@@QEBAPEAU_ExceptionHolder@details@Concurrency@@XZ 00000001400202c0 f i test.obj
 0001:0001f300       ??$?CU_Task_impl_base@details@Concurrency@@$0A@@?$shared_ptr@U_Task_impl_base@details@Concurrency@@@std@@QEBAPEAU_Task_impl_base@details@Concurrency@@XZ 0000000140020300 f i test.obj
 0001:0001f340       ??$?CUscheduler_interface@Concurrency@@$0A@@?$shared_ptr@Uscheduler_interface@Concurrency@@@std@@QEBAPEAUscheduler_interface@Concurrency@@XZ 0000000140020340 f i test.obj
 0001:0001f380       ??$_Adl_verify_range@PEAPEAUIspFrameData@@PEAPEAU1@@std@@YAXAEBQEAPEAUIspFrameData@@0@Z 0000000140020380 f i test.obj
 0001:0001f3d0       ??$_Allocate_at_least_helper@V?$allocator@PEAUIspFrameData@@@std@@@std@@YAPEAPEAUIspFrameData@@AEAV?$allocator@PEAUIspFrameData@@@0@AEA_K@Z 00000001400203d0 f i test.obj
 0001:0001f420       ??$_Allocate_at_least_helper@V?$allocator@PEAX@std@@@std@@YAPEAPEAXAEAV?$allocator@PEAX@0@AEA_K@Z 0000000140020420 f i test.obj
 0001:0001f470       ??$_Assign_counted_range@PEAPEAX@?$vector@PEAXV?$allocator@PEAX@std@@@std@@AEAAXPEAPEAX_K@Z 0000000140020470 f i test.obj
 0001:0001f6d0       ??$_Atomic_address_as@HU?$_Atomic_padded@J@std@@@std@@YAPECHAEAU?$_Atomic_padded@J@0@@Z 00000001400206d0 f i test.obj
 0001:0001f700       ??$_Atomic_address_as@HU?$_Atomic_padded@J@std@@@std@@YAPEDHAEBU?$_Atomic_padded@J@0@@Z 0000000140020700 f i test.obj
 0001:0001f730       ??$_Atomic_address_as@JU?$_Atomic_padded@J@std@@@std@@YAPECJAEAU?$_Atomic_padded@J@0@@Z 0000000140020730 f i test.obj
 0001:0001f760       ??$_Atomic_reinterpret_as@HJ@std@@YAHAEBJ@Z 0000000140020760 f i test.obj
 0001:0001f7a0       ??$_Atomic_reinterpret_as@JJ@std@@YAJAEBJ@Z 00000001400207a0 f i test.obj
 0001:0001f7e0       ??$_Bit_cast@_KT_Addr_storage@error_category@std@@$0A@@std@@YA_KAEBT_Addr_storage@error_category@0@@Z 00000001400207e0 f i test.obj
 0001:0001f830       ??$_Construct_from_weak@U_Task_impl_base@details@Concurrency@@@?$_Ptr_base@U_Task_impl_base@details@Concurrency@@@std@@IEAA_NAEBV?$weak_ptr@U_Task_impl_base@details@Concurrency@@@1@@Z 0000000140020830 f i test.obj
 0001:0001f8c0       ??$_Construct_in_place@PEAUIspFrameData@@AEAPEAU1@@std@@YAXAEAPEAUIspFrameData@@0@Z 00000001400208c0 f i test.obj
 0001:0001f930       ??$_Construct_in_place@U?$_Task_impl@E@details@Concurrency@@AEAPEAV_CancellationTokenState@23@AEAUscheduler_ptr@3@@std@@YAXAEAU?$_Task_impl@E@details@Concurrency@@AEAPEAV_CancellationTokenState@23@AEAUscheduler_ptr@3@@Z 0000000140020930 f i test.obj
 0001:0001f9d0       ??$_Construct_in_place@U_ExceptionHolder@details@Concurrency@@AEBVexception_ptr@std@@V_TaskCreationCallstack@23@@std@@YAXAEAU_ExceptionHolder@details@Concurrency@@AEBVexception_ptr@0@$$QEAV_TaskCreationCallstack@23@@Z 00000001400209d0 f i test.obj
 0001:0001fa40       ??$_Construct_n@AEBQEAPEAXAEBQEAPEAX@?$vector@PEAXV?$allocator@PEAX@std@@@std@@AEAAX_KAEBQEAPEAX1@Z 0000000140020a40 f i test.obj
 0001:0001fb90       ??$_Copy_construct_from@U?$_Task_impl@E@details@Concurrency@@@?$_Ptr_base@U?$_Task_impl@E@details@Concurrency@@@std@@IEAAXAEBV?$shared_ptr@U?$_Task_impl@E@details@Concurrency@@@1@@Z 0000000140020b90 f i test.obj
 0001:0001fc00       ??$_Copy_construct_from@U_ExceptionHolder@details@Concurrency@@@?$_Ptr_base@U_ExceptionHolder@details@Concurrency@@@std@@IEAAXAEBV?$shared_ptr@U_ExceptionHolder@details@Concurrency@@@1@@Z 0000000140020c00 f i test.obj
 0001:0001fc70       ??$_Copy_construct_from@U_Task_impl_base@details@Concurrency@@@?$_Ptr_base@U_Task_impl_base@details@Concurrency@@@std@@IEAAXAEBV?$shared_ptr@U_Task_impl_base@details@Concurrency@@@1@@Z 0000000140020c70 f i test.obj
 0001:0001fce0       ??$_Copy_construct_from@Uscheduler_interface@Concurrency@@@?$_Ptr_base@Uscheduler_interface@Concurrency@@@std@@IEAAXAEBV?$shared_ptr@Uscheduler_interface@Concurrency@@@1@@Z 0000000140020ce0 f i test.obj
 0001:0001fd50       ??$_Copy_memmove@PEAPEAUIspFrameData@@PEAPEAU1@@std@@YAPEAPEAUIspFrameData@@PEAPEAU1@00@Z 0000000140020d50 f i test.obj
 0001:0001fe20       ??$_Copy_memmove@PEAPEAXPEAPEAX@std@@YAPEAPEAXPEAPEAX00@Z 0000000140020e20 f i test.obj
 0001:0001fef0       ??$_Copy_memmove_n@PEAPEAXPEAPEAX@std@@YAPEAPEAXPEAPEAX_K0@Z 0000000140020ef0 f i test.obj
 0001:0001ff60       ??$_Copy_n_unchecked4@PEAPEAX_KPEAPEAX@std@@YAPEAPEAXPEAPEAX_K0@Z 0000000140020f60 f i test.obj
 0001:00020010       ??$_Deallocate@$07$0A@@std@@YAXPEAX_K@Z 0000000140021010 f i test.obj
 0001:00020080       ??$_Destroy_in_place@PEAUIspFrameData@@@std@@YAXAEAPEAUIspFrameData@@@Z 0000000140021080 f i test.obj
 0001:000200b0       ??$_Destroy_in_place@U?$_Task_impl@E@details@Concurrency@@@std@@YAXAEAU?$_Task_impl@E@details@Concurrency@@@Z 00000001400210b0 f i test.obj
 0001:000200f0       ??$_Destroy_in_place@U_ExceptionHolder@details@Concurrency@@@std@@YAXAEAU_ExceptionHolder@details@Concurrency@@@Z 00000001400210f0 f i test.obj
 0001:00020130       ??$_Destroy_range@PEAPEAUIspFrameData@@PEAPEAU1@@std@@YAXPEAPEAUIspFrameData@@QEAPEAU1@@Z 0000000140021130 f i test.obj
 0001:00020160       ??$_Destroy_range@V?$allocator@PEAX@std@@@std@@YAXPEAPEAXQEAPEAXAEAV?$allocator@PEAX@0@@Z 0000000140021160 f i test.obj
 0001:000201a0       ??$_Emplace_back@$$V@?$_Uninitialized_backout_al@V?$allocator@PEAX@std@@@std@@QEAAXXZ 00000001400211a0 f i test.obj
 0001:00020210       ??$_Emplace_back@AEAPEAUIspFrameData@@@?$_Uninitialized_backout@PEAPEAUIspFrameData@@@std@@QEAAXAEAPEAUIspFrameData@@@Z 0000000140021210 f i test.obj
 0001:00020270       ??$_Emplace_back@AEAPEAX@?$_Uninitialized_backout_al@V?$allocator@PEAX@std@@@std@@QEAAXAEAPEAX@Z 0000000140021270 f i test.obj
 0001:000202f0       ??$_Emplace_back@PEAX@?$_Uninitialized_backout_al@V?$allocator@PEAX@std@@@std@@QEAAX$$QEAPEAX@Z 00000001400212f0 f i test.obj
 0001:00020370       ??$_Emplace_back_internal@AEBUIspFrameData@@@?$deque@UIspFrameData@@V?$allocator@UIspFrameData@@@std@@@std@@AEAAXAEBUIspFrameData@@@Z 0000000140021370 f i test.obj
 0001:00020570       ??$_Emplace_result@H@?$_Associated_state@H@std@@QEAAX$$QEAH@Z 0000000140021570 f i test.obj
 0001:000205c0       ??$_Get_associated_state@HV?$_Fake_no_copy_callable_adapter@AEAP6AHPEAXI0@ZAEAPEAXW4IspSoftAeProcessType@@PEAUIspSoftAeInImage@@@std@@@std@@YAPEAV?$_Associated_state@H@0@W4launch@0@$$QEAV?$_Fake_no_copy_callable_adapter@AEAP6AHPEAXI0@ZAEAPEAXW4IspSoftAeProcessType@@PEAUIspSoftAeInImage@@@0@@Z 00000001400215c0 f i test.obj
 0001:000206e0       ??$_Get_size_of_n@$0CA@@std@@YA_K_K@Z 00000001400216e0 f i test.obj
 0001:00020740       ??$_Get_unwrapped@AEBQEAPEAUIspFrameData@@@std@@YA?A_TAEBQEAPEAUIspFrameData@@@Z 0000000140021740 f i test.obj
 0001:00020780       ??$_Get_unwrapped@AEBQEAPEAX@std@@YA?A_TAEBQEAPEAX@Z 0000000140021780 f i test.obj
 0001:000207c0       ??$_Get_unwrapped@PEAPEAX@std@@YA?A_T$$QEAPEAPEAX@Z 00000001400217c0 f i test.obj
 0001:00020800       ??$_Get_unwrapped_n@AEAPEAPEAUIspFrameData@@_J@std@@YA?A_TAEAPEAPEAUIspFrameData@@_J@Z 0000000140021800 f i test.obj
 0001:00020840       ??$_Global_new@V?$_Func_impl_no_alloc@V<lambda_1>@?1??_MakeVoidToUnitFunc@details@Concurrency@@YA?AV?$function@$$A6AEXZ@std@@AEBV?$function@$$A6AXXZ@6@@Z@E$$V@std@@AEBV<lambda_1>@?1??_MakeVoidToUnitFunc@details@Concurrency@@YA?AV?$function@$$A6AEXZ@2@AEBV?$function@$$A6AXXZ@2@@Z@@std@@YAPEAV?$_Func_impl_no_alloc@V<lambda_1>@?1??_MakeVoidToUnitFunc@details@Concurrency@@YA?AV?$function@$$A6AEXZ@std@@AEBV?$function@$$A6AXXZ@6@@Z@E$$V@0@AEBV<lambda_1>@?1??_MakeVoidToUnitFunc@details@Concurrency@@YA?AV?$function@$$A6AEXZ@0@AEBV?$function@$$A6AXXZ@0@@Z@@Z 0000000140021840 f i test.obj
 0001:00020920       ??$_Global_new@V?$_Func_impl_no_alloc@V<lambda_1>@?1??_MakeVoidToUnitFunc@details@Concurrency@@YA?AV?$function@$$A6AEXZ@std@@AEBV?$function@$$A6AXXZ@6@@Z@E$$V@std@@V<lambda_1>@?1??_MakeVoidToUnitFunc@details@Concurrency@@YA?AV?$function@$$A6AEXZ@2@AEBV?$function@$$A6AXXZ@2@@Z@@std@@YAPEAV?$_Func_impl_no_alloc@V<lambda_1>@?1??_MakeVoidToUnitFunc@details@Concurrency@@YA?AV?$function@$$A6AEXZ@std@@AEBV?$function@$$A6AXXZ@6@@Z@E$$V@0@$$QEAV<lambda_1>@?1??_MakeVoidToUnitFunc@details@Concurrency@@YA?AV?$function@$$A6AEXZ@0@AEBV?$function@$$A6AXXZ@0@@Z@@Z 0000000140021920 f i test.obj
 0001:00020a00       ??$_Idl_distance@PEAPEAUIspFrameData@@PEAPEAU1@@std@@YA?A_PAEBQEAPEAUIspFrameData@@0@Z 0000000140021a00 f i test.obj
 0001:00020a50       ??$_Immortalize_memcpy_image@V_Future_error_category2@std@@@std@@YAAEBV_Future_error_category2@0@XZ 0000000140021a50 f i test.obj
 0001:00020a80       ??$_Immortalize_memcpy_image@V_Generic_error_category@std@@@std@@YAAEBV_Generic_error_category@0@XZ 0000000140021a80 f i test.obj
 0001:00020ab0       ??$_Invoke_stored@P6AHPEAXI0@ZPEAXW4IspSoftAeProcessType@@PEAUIspSoftAeInImage@@@std@@YA?A_T$$QEAV?$tuple@P6AHPEAXI0@ZPEAXW4IspSoftAeProcessType@@PEAUIspSoftAeInImage@@@0@@Z 0000000140021ab0 f i test.obj
 0001:00020b00       ??$_Invoke_stored_explicit@P6AHPEAXI0@ZPEAXW4IspSoftAeProcessType@@PEAUIspSoftAeInImage@@$$Z$0A@$00$01$02@std@@YA?A_T$$QEAV?$tuple@P6AHPEAXI0@ZPEAXW4IspSoftAeProcessType@@PEAUIspSoftAeInImage@@@0@U?$integer_sequence@_K$0A@$00$01$02@0@@Z 0000000140021b00 f i test.obj
 0001:00020ba0       ??$_LogWorkItemAndInvokeUserLambda@V?$function@$$A6AEXZ@std@@@?$_InitialTaskHandle@XV<lambda_1>@?1???$?0V?$_Fake_no_copy_callable_adapter@AEAP6AHPEAXI0@ZAEAPEAXW4IspSoftAeProcessType@@PEAUIspSoftAeInImage@@@std@@@?$_Task_async_state@H@std@@QEAA@$$QEAV?$_Fake_no_copy_callable_adapter@AEAP6AHPEAXI0@ZAEAPEAXW4IspSoftAeProcessType@@PEAUIspSoftAeInImage@@@3@@Z@U_TypeSelectorNoAsync@details@Concurrency@@@?$task@E@Concurrency@@QEBAEV?$function@$$A6AEXZ@std@@@Z 0000000140021ba0 f i test.obj
 0001:00020c70       ??$_Move_construct_from@U?$_Task_impl@E@details@Concurrency@@@?$_Ptr_base@U?$_Task_impl@E@details@Concurrency@@@std@@IEAAX$$QEAV01@@Z 0000000140021c70 f i test.obj
 0001:00020cf0       ??$_Move_construct_from@U_Task_impl_base@details@Concurrency@@@?$_Ptr_base@U_Task_impl_base@details@Concurrency@@@std@@IEAAX$$QEAV01@@Z 0000000140021cf0 f i test.obj
 0001:00020d70       ??$_Move_construct_from@Uscheduler_interface@Concurrency@@@?$_Ptr_base@Uscheduler_interface@Concurrency@@@std@@IEAAX$$QEAV01@@Z 0000000140021d70 f i test.obj
 0001:00020df0       ??$_Pocca@V?$allocator@PEAX@std@@@std@@YAXAEAV?$allocator@PEAX@0@AEBV10@@Z 0000000140021df0 f i test.obj
 0001:00020e20       ??$_Reset@AEBV<lambda_1>@?1???$?0V?$_Fake_no_copy_callable_adapter@AEAP6AHPEAXI0@ZAEAPEAXW4IspSoftAeProcessType@@PEAUIspSoftAeInImage@@@std@@@?$_Task_async_state@H@std@@QEAA@$$QEAV?$_Fake_no_copy_callable_adapter@AEAP6AHPEAXI0@ZAEAPEAXW4IspSoftAeProcessType@@PEAUIspSoftAeInImage@@@3@@Z@@?$_Func_class@X$$V@std@@IEAAXAEBV<lambda_1>@?1???$?0V?$_Fake_no_copy_callable_adapter@AEAP6AHPEAXI0@ZAEAPEAXW4IspSoftAeProcessType@@PEAUIspSoftAeInImage@@@std@@@?$_Task_async_state@H@1@QEAA@$$QEAV?$_Fake_no_copy_callable_adapter@AEAP6AHPEAXI0@ZAEAPEAXW4IspSoftAeProcessType@@PEAUIspSoftAeInImage@@@1@@Z@@Z 0000000140021e20 f i test.obj
 0001:00020ea0       ??$_Reset@V<lambda_1>@?1??_MakeVoidToUnitFunc@details@Concurrency@@YA?AV?$function@$$A6AEXZ@std@@AEBV?$function@$$A6AXXZ@6@@Z@@?$_Func_class@E$$V@std@@IEAAX$$QEAV<lambda_1>@?1??_MakeVoidToUnitFunc@details@Concurrency@@YA?AV?$function@$$A6AEXZ@1@AEBV?$function@$$A6AXXZ@1@@Z@@Z 0000000140021ea0 f i test.obj
 0001:00020f00       ??$_Reset@V<lambda_1>@?4??_ScheduleContinuationTask@_Task_impl_base@details@Concurrency@@QEAAXPEAU_ContinuationTaskHandleBase@45@@Z@@?$_Func_class@X$$V@std@@IEAAX$$QEAV<lambda_1>@?4??_ScheduleContinuationTask@_Task_impl_base@details@Concurrency@@QEAAXPEAU_ContinuationTaskHandleBase@56@@Z@@Z 0000000140021f00 f i test.obj
 0001:00020f80       ??$_Reset@V<lambda_1>@?7???R1?4??_ScheduleContinuationTask@_Task_impl_base@details@Concurrency@@QEAAXPEAU_ContinuationTaskHandleBase@45@@Z@QEBA@XZ@@?$_Func_class@X$$V@std@@IEAAX$$QEAV<lambda_1>@?7???R2?4??_ScheduleContinuationTask@_Task_impl_base@details@Concurrency@@QEAAXPEAU_ContinuationTaskHandleBase@56@@Z@QEBA@XZ@@Z 0000000140021f80 f i test.obj
 0001:00021000       ??$_Reset@V<lambda_1>@?CC@??_CancelAndRunContinuations@?$_Task_impl@E@details@Concurrency@@UEAA_N_N00AEBV?$shared_ptr@U_ExceptionHolder@details@Concurrency@@@std@@@Z@@?$_Func_class@X$$V@std@@IEAAX$$QEAV<lambda_1>@?CC@??_CancelAndRunContinuations@?$_Task_impl@E@details@Concurrency@@UEAA_N_N00AEBV?$shared_ptr@U_ExceptionHolder@details@Concurrency@@@1@@Z@@Z 0000000140022000 f i test.obj
 0001:00021080       ??$_Reset@V?$_Fake_no_copy_callable_adapter@AEAP6AHPEAXI0@ZAEAPEAXW4IspSoftAeProcessType@@PEAUIspSoftAeInImage@@@std@@@?$_Func_class@H$$V@std@@IEAAX$$QEAV?$_Fake_no_copy_callable_adapter@AEAP6AHPEAXI0@ZAEAPEAXW4IspSoftAeProcessType@@PEAUIspSoftAeInImage@@@1@@Z 0000000140022080 f i test.obj
 0001:00021100       ??$_Resize@U_Value_init_tag@std@@@?$vector@PEAXV?$allocator@PEAX@std@@@std@@AEAAX_KAEBU_Value_init_tag@1@@Z 0000000140022100 f i test.obj
 0001:000212b0       ??$_Resize_reallocate@U_Value_init_tag@std@@@?$vector@PEAXV?$allocator@PEAX@std@@@std@@AEAAX_KAEBU_Value_init_tag@1@@Z 00000001400222b0 f i test.obj
 0001:00021470       ??$_Seek_wrapped@PEAPEAUIspFrameData@@PEAPEAU1@@std@@YAXAEAPEAPEAUIspFrameData@@$$QEAPEAPEAU1@@Z 0000000140022470 f i test.obj
 0001:000214c0       ??$_Set_ptr_rep_and_enable_shared@U?$_Task_impl@E@details@Concurrency@@@?$shared_ptr@U?$_Task_impl@E@details@Concurrency@@@std@@AEAAXQEAU?$_Task_impl@E@details@Concurrency@@QEAV_Ref_count_base@1@@Z 00000001400224c0 f i test.obj
 0001:00021520       ??$_Set_ptr_rep_and_enable_shared@U_ExceptionHolder@details@Concurrency@@@?$shared_ptr@U_ExceptionHolder@details@Concurrency@@@std@@AEAAXQEAU_ExceptionHolder@details@Concurrency@@QEAV_Ref_count_base@1@@Z 0000000140022520 f i test.obj
 0001:00021580       ??$_TaskInitMaybeFunctor@V<lambda_1>@?1???$?0V?$_Fake_no_copy_callable_adapter@AEAP6AHPEAXI0@ZAEAPEAXW4IspSoftAeProcessType@@PEAUIspSoftAeInImage@@@std@@@?$_Task_async_state@H@std@@QEAA@$$QEAV?$_Fake_no_copy_callable_adapter@AEAP6AHPEAXI0@ZAEAPEAXW4IspSoftAeProcessType@@PEAUIspSoftAeInImage@@@3@@Z@@?$task@X@Concurrency@@AEAAXAEAV<lambda_1>@?1???$?0V?$_Fake_no_copy_callable_adapter@AEAP6AHPEAXI0@ZAEAPEAXW4IspSoftAeProcessType@@PEAUIspSoftAeInImage@@@std@@@?$_Task_async_state@H@std@@QEAA@$$QEAV?$_Fake_no_copy_callable_adapter@AEAP6AHPEAXI0@ZAEAPEAXW4IspSoftAeProcessType@@PEAUIspSoftAeInImage@@@4@@Z@U?$integral_constant@_N$00@4@@Z 0000000140022580 f i test.obj
 0001:000215d0       ??$_TaskInitWithFunctor@XV<lambda_1>@?1???$?0V?$_Fake_no_copy_callable_adapter@AEAP6AHPEAXI0@ZAEAPEAXW4IspSoftAeProcessType@@PEAUIspSoftAeInImage@@@std@@@?$_Task_async_state@H@std@@QEAA@$$QEAV?$_Fake_no_copy_callable_adapter@AEAP6AHPEAXI0@ZAEAPEAXW4IspSoftAeProcessType@@PEAUIspSoftAeInImage@@@3@@Z@@?$task@E@Concurrency@@AEAAXAEBV<lambda_1>@?1???$?0V?$_Fake_no_copy_callable_adapter@AEAP6AHPEAXI0@ZAEAPEAXW4IspSoftAeProcessType@@PEAUIspSoftAeInImage@@@std@@@?$_Task_async_state@H@std@@QEAA@$$QEAV?$_Fake_no_copy_callable_adapter@AEAP6AHPEAXI0@ZAEAPEAXW4IspSoftAeProcessType@@PEAUIspSoftAeInImage@@@4@@Z@@Z 00000001400225d0 f i test.obj
 0001:000216d0       ??$_Test_callable@V<lambda_1>@?1???$?0V?$_Fake_no_copy_callable_adapter@AEAP6AHPEAXI0@ZAEAPEAXW4IspSoftAeProcessType@@PEAUIspSoftAeInImage@@@std@@@?$_Task_async_state@H@std@@QEAA@$$QEAV?$_Fake_no_copy_callable_adapter@AEAP6AHPEAXI0@ZAEAPEAXW4IspSoftAeProcessType@@PEAUIspSoftAeInImage@@@3@@Z@@std@@YA_NAEBV<lambda_1>@?1???$?0V?$_Fake_no_copy_callable_adapter@AEAP6AHPEAXI0@ZAEAPEAXW4IspSoftAeProcessType@@PEAUIspSoftAeInImage@@@std@@@?$_Task_async_state@H@0@QEAA@$$QEAV?$_Fake_no_copy_callable_adapter@AEAP6AHPEAXI0@ZAEAPEAXW4IspSoftAeProcessType@@PEAUIspSoftAeInImage@@@0@@Z@@Z 00000001400226d0 f i test.obj
 0001:00021700       ??$_Test_callable@V<lambda_1>@?1??_MakeVoidToUnitFunc@details@Concurrency@@YA?AV?$function@$$A6AEXZ@std@@AEBV?$function@$$A6AXXZ@6@@Z@@std@@YA_NAEBV<lambda_1>@?1??_MakeVoidToUnitFunc@details@Concurrency@@YA?AV?$function@$$A6AEXZ@0@AEBV?$function@$$A6AXXZ@0@@Z@@Z 0000000140022700 f i test.obj
 0001:00021730       ??$_Test_callable@V<lambda_1>@?4??_ScheduleContinuationTask@_Task_impl_base@details@Concurrency@@QEAAXPEAU_ContinuationTaskHandleBase@45@@Z@@std@@YA_NAEBV<lambda_1>@?4??_ScheduleContinuationTask@_Task_impl_base@details@Concurrency@@QEAAXPEAU_ContinuationTaskHandleBase@45@@Z@@Z 0000000140022730 f i test.obj
 0001:00021760       ??$_Test_callable@V<lambda_1>@?7???R1?4??_ScheduleContinuationTask@_Task_impl_base@details@Concurrency@@QEAAXPEAU_ContinuationTaskHandleBase@45@@Z@QEBA@XZ@@std@@YA_NAEBV<lambda_1>@?7???R1?4??_ScheduleContinuationTask@_Task_impl_base@details@Concurrency@@QEAAXPEAU_ContinuationTaskHandleBase@45@@Z@QEBA@XZ@@Z 0000000140022760 f i test.obj
 0001:00021790       ??$_Test_callable@V<lambda_1>@?CC@??_CancelAndRunContinuations@?$_Task_impl@E@details@Concurrency@@UEAA_N_N00AEBV?$shared_ptr@U_ExceptionHolder@details@Concurrency@@@std@@@Z@@std@@YA_NAEBV<lambda_1>@?CC@??_CancelAndRunContinuations@?$_Task_impl@E@details@Concurrency@@UEAA_N_N00AEBV?$shared_ptr@U_ExceptionHolder@details@Concurrency@@@0@@Z@@Z 0000000140022790 f i test.obj
 0001:000217c0       ??$_Test_callable@V?$_Fake_no_copy_callable_adapter@AEAP6AHPEAXI0@ZAEAPEAXW4IspSoftAeProcessType@@PEAUIspSoftAeInImage@@@std@@@std@@YA_NAEBV?$_Fake_no_copy_callable_adapter@AEAP6AHPEAXI0@ZAEAPEAXW4IspSoftAeProcessType@@PEAUIspSoftAeInImage@@@0@@Z 00000001400227c0 f i test.obj
 0001:000217f0       ??$_To_address@PEAPEAUIspFrameData@@@std@@YA?A_PAEBQEAPEAUIspFrameData@@@Z 00000001400227f0 f i test.obj
 0001:00021830       ??$_To_address@PEAPEAX@std@@YA?A_PAEBQEAPEAX@Z 0000000140022830 f i test.obj
 0001:00021870       ??$_Unfancy@PEAX@std@@YAPEAPEAXPEAPEAX@Z 0000000140022870 f i test.obj
 0001:000218a0       ??$_Unfancy@UIspFrameData@@@std@@YAPEAUIspFrameData@@PEAU1@@Z 00000001400228a0 f i test.obj
 0001:000218d0       ??$_Uninitialized_copy@PEAPEAXPEAPEAXV?$allocator@PEAX@std@@@std@@YAPEAPEAXPEAPEAX00AEAV?$allocator@PEAX@0@@Z 00000001400228d0 f i test.obj
 0001:00021a60       ??$_Uninitialized_copy_n@PEAPEAXV?$allocator@PEAX@std@@@std@@YAPEAPEAXPEAPEAX_K0AEAV?$allocator@PEAX@0@@Z 0000000140022a60 f i test.obj
 0001:00021bc0       ??$_Uninitialized_copy_unchecked@PEAPEAUIspFrameData@@PEAPEAU1@@std@@YAPEAPEAUIspFrameData@@PEAPEAU1@QEAPEAU1@0@Z 0000000140022bc0 f i test.obj
 0001:00021cd0       ??$_Uninitialized_move@PEAPEAXV?$allocator@PEAX@std@@@std@@YAPEAPEAXQEAPEAX0PEAPEAXAEAV?$allocator@PEAX@0@@Z 0000000140022cd0 f i test.obj
 0001:00021e20       ??$_Uninitialized_value_construct_n@V?$allocator@PEAX@std@@@std@@YAPEAPEAXPEAPEAX_KAEAV?$allocator@PEAX@0@@Z 0000000140022e20 f i test.obj
 0001:00021f50       ??$_Uninitialized_value_construct_n_unchecked1@PEAPEAUIspFrameData@@_K@std@@YAPEAPEAUIspFrameData@@PEAPEAU1@_K@Z 0000000140022f50 f i test.obj
 0001:00021fa0       ??$_ValidateTaskConstructorArgs@XV<lambda_1>@?1???$?0V?$_Fake_no_copy_callable_adapter@AEAP6AHPEAXI0@ZAEAPEAXW4IspSoftAeProcessType@@PEAUIspSoftAeInImage@@@std@@@?$_Task_async_state@H@std@@QEAA@$$QEAV?$_Fake_no_copy_callable_adapter@AEAP6AHPEAXI0@ZAEAPEAXW4IspSoftAeProcessType@@PEAUIspSoftAeInImage@@@3@@Z@@details@Concurrency@@YAXAEBV<lambda_1>@?1???$?0V?$_Fake_no_copy_callable_adapter@AEAP6AHPEAXI0@ZAEAPEAXW4IspSoftAeProcessType@@PEAUIspSoftAeInImage@@@std@@@?$_Task_async_state@H@std@@QEAA@$$QEAV?$_Fake_no_copy_callable_adapter@AEAP6AHPEAXI0@ZAEAPEAXW4IspSoftAeProcessType@@PEAUIspSoftAeInImage@@@4@@Z@@Z 0000000140022fa0 f i test.obj
 0001:00021fd0       ??$_Verify_range@PEAUIspFrameData@@@std@@YAXQEBQEAUIspFrameData@@0@Z 0000000140022fd0 f i test.obj
 0001:00022090       ??$_Weakly_construct_from@U?$_Task_impl@E@details@Concurrency@@@?$_Ptr_base@U_Task_impl_base@details@Concurrency@@@std@@IEAAXAEBV?$_Ptr_base@U?$_Task_impl@E@details@Concurrency@@@1@@Z 0000000140023090 f i test.obj
 0001:00022110       ??$_Weakly_construct_from@U_Task_impl_base@details@Concurrency@@@?$_Ptr_base@U_Task_impl_base@details@Concurrency@@@std@@IEAAXAEBV01@@Z 0000000140023110 f i test.obj
 0001:00022190       ??$_Zero_range@PEAPEAUIspFrameData@@@std@@YAPEAPEAUIspFrameData@@QEAPEAU1@0@Z 0000000140023190 f i test.obj
 0001:00022210       ??$_Zero_range@PEAPEAX@std@@YAPEAPEAXQEAPEAX0@Z 0000000140023210 f i test.obj
 0001:00022290       ??$addressof@$$CBV<lambda_1>@?1???$?0V?$_Fake_no_copy_callable_adapter@AEAP6AHPEAXI0@ZAEAPEAXW4IspSoftAeProcessType@@PEAUIspSoftAeInImage@@@std@@@?$_Task_async_state@H@std@@QEAA@$$QEAV?$_Fake_no_copy_callable_adapter@AEAP6AHPEAXI0@ZAEAPEAXW4IspSoftAeProcessType@@PEAUIspSoftAeInImage@@@3@@Z@@std@@YAPEBV<lambda_1>@?1???$?0V?$_Fake_no_copy_callable_adapter@AEAP6AHPEAXI0@ZAEAPEAXW4IspSoftAeProcessType@@PEAUIspSoftAeInImage@@@std@@@?$_Task_async_state@H@0@QEAA@$$QEAV?$_Fake_no_copy_callable_adapter@AEAP6AHPEAXI0@ZAEAPEAXW4IspSoftAeProcessType@@PEAUIspSoftAeInImage@@@0@@Z@AEBV1?1???$?0V?$_Fake_no_copy_callable_adapter@AEAP6AHPEAXI0@ZAEAPEAXW4IspSoftAeProcessType@@PEAUIspSoftAeInImage@@@std@@@20@QEAA@0@Z@@Z 0000000140023290 f i test.obj
 0001:000222c0       ??$addressof@$$CBV<lambda_1>@?1??_MakeVoidToUnitFunc@details@Concurrency@@YA?AV?$function@$$A6AEXZ@std@@AEBV?$function@$$A6AXXZ@6@@Z@@std@@YAPEBV<lambda_1>@?1??_MakeVoidToUnitFunc@details@Concurrency@@YA?AV?$function@$$A6AEXZ@0@AEBV?$function@$$A6AXXZ@0@@Z@AEBV1?1??234@YA?AV50@0@Z@@Z 00000001400232c0 f i test.obj
 0001:000222f0       ??$addressof@$$CBV<lambda_1>@?4??_ScheduleContinuationTask@_Task_impl_base@details@Concurrency@@QEAAXPEAU_ContinuationTaskHandleBase@45@@Z@@std@@YAPEBV<lambda_1>@?4??_ScheduleContinuationTask@_Task_impl_base@details@Concurrency@@QEAAXPEAU_ContinuationTaskHandleBase@45@@Z@AEBV1?4??2345@QEAAX0@Z@@Z 00000001400232f0 f i test.obj
 0001:00022320       ??$addressof@$$CBV<lambda_1>@?7???R1?4??_ScheduleContinuationTask@_Task_impl_base@details@Concurrency@@QEAAXPEAU_ContinuationTaskHandleBase@45@@Z@QEBA@XZ@@std@@YAPEBV<lambda_1>@?7???R1?4??_ScheduleContinuationTask@_Task_impl_base@details@Concurrency@@QEAAXPEAU_ContinuationTaskHandleBase@45@@Z@QEBA@XZ@AEBV1?7???R1?4??2345@QEAAX0@Z@QEBA@XZ@@Z 0000000140023320 f i test.obj
 0001:00022350       ??$addressof@$$CBV<lambda_1>@?CC@??_CancelAndRunContinuations@?$_Task_impl@E@details@Concurrency@@UEAA_N_N00AEBV?$shared_ptr@U_ExceptionHolder@details@Concurrency@@@std@@@Z@@std@@YAPEBV<lambda_1>@?CC@??_CancelAndRunContinuations@?$_Task_impl@E@details@Concurrency@@UEAA_N_N00AEBV?$shared_ptr@U_ExceptionHolder@details@Concurrency@@@0@@Z@AEBV1?CC@??2345@UEAA_N0001@Z@@Z 0000000140023350 f i test.obj
 0001:00022380       ??$addressof@$$CBV?$_Fake_no_copy_callable_adapter@AEAP6AHPEAXI0@ZAEAPEAXW4IspSoftAeProcessType@@PEAUIspSoftAeInImage@@@std@@@std@@YAPEBV?$_Fake_no_copy_callable_adapter@AEAP6AHPEAXI0@ZAEAPEAXW4IspSoftAeProcessType@@PEAUIspSoftAeInImage@@@0@AEBV10@@Z 0000000140023380 f i test.obj
 0001:000223b0       ??$addressof@$$CBV?$vector@PEAXV?$allocator@PEAX@std@@@std@@@std@@YAPEBV?$vector@PEAXV?$allocator@PEAX@std@@@0@AEBV10@@Z 00000001400233b0 f i test.obj
 0001:000223e0       ??$addressof@J@std@@YAPEAJAEAJ@Z 00000001400233e0 f i test.obj
 0001:00022410       ??$addressof@PEAUIspFrameData@@@std@@YAPEAPEAUIspFrameData@@AEAPEAU1@@Z 0000000140023410 f i test.obj
 0001:00022440       ??$addressof@U?$_Task_impl@E@details@Concurrency@@@std@@YAPEAU?$_Task_impl@E@details@Concurrency@@AEAU123@@Z 0000000140023440 f i test.obj
 0001:00022470       ??$addressof@U_ExceptionHolder@details@Concurrency@@@std@@YAPEAU_ExceptionHolder@details@Concurrency@@AEAU123@@Z 0000000140023470 f i test.obj
 0001:000224a0       ??$addressof@Vmutex@std@@@std@@YAPEAVmutex@0@AEAV10@@Z 00000001400234a0 f i test.obj
 0001:000224d0       ??$async@AEAP6AHPEAXI0@ZAEAPEAXW4IspSoftAeProcessType@@PEAUIspSoftAeInImage@@@std@@YA?AV?$future@H@0@AEAP6AHPEAXI0@ZAEAPEAX$$QEAW4IspSoftAeProcessType@@$$QEAPEAUIspSoftAeInImage@@@Z 00000001400234d0 f i test.obj
 0001:00022570       ??$async@AEAP6AHPEAXI0@ZAEAPEAXW4IspSoftAeProcessType@@PEAUIspSoftAeInImage@@@std@@YA?AV?$future@H@0@W4launch@0@AEAP6AHPEAXI1@ZAEAPEAX$$QEAW4IspSoftAeProcessType@@$$QEAPEAUIspSoftAeInImage@@@Z 0000000140023570 f i test.obj
 0001:000226a0       ??$atomic_compare_exchange@J@details@Concurrency@@YAJAEAU?$atomic@J@std@@JJ@Z 00000001400236a0 f i test.obj
 0001:00022750       ??$atomic_exchange@J@details@Concurrency@@YAJAEAU?$atomic@J@std@@J@Z 0000000140023750 f i test.obj
 0001:000227a0       ??$call_once@V<lambda_1>@?1??_GetStaticAmbientSchedulerRef@details@Concurrency@@YAAEAV?$shared_ptr@Uscheduler_interface@Concurrency@@@std@@XZ@$$V@std@@YAXAEAUonce_flag@0@$$QEAV<lambda_1>@?1??_GetStaticAmbientSchedulerRef@details@Concurrency@@YAAEAV?$shared_ptr@Uscheduler_interface@Concurrency@@@0@XZ@@Z 00000001400237a0 f i test.obj
 0001:00022870       ??$construct@PEAX$$V@?$_Default_allocator_traits@V?$allocator@PEAX@std@@@std@@SAXAEAV?$allocator@PEAX@1@QEAPEAX@Z 0000000140023870 f i test.obj
 0001:000228e0       ??$construct@PEAXAEAPEAX@?$_Default_allocator_traits@V?$allocator@PEAX@std@@@std@@SAXAEAV?$allocator@PEAX@1@QEAPEAXAEAPEAX@Z 00000001400238e0 f i test.obj
 0001:00022940       ??$construct@PEAXPEAX@?$_Default_allocator_traits@V?$allocator@PEAX@std@@@std@@SAXAEAV?$allocator@PEAX@1@QEAPEAX$$QEAPEAX@Z 0000000140023940 f i test.obj
 0001:000229a0       ??$construct@UIspFrameData@@AEBU1@@?$_Default_allocator_traits@V?$allocator@UIspFrameData@@@std@@@std@@SAXAEAV?$allocator@UIspFrameData@@@1@QEAUIspFrameData@@AEBU3@@Z 00000001400239a0 f i test.obj
 0001:00022a10       ??$create_task@V<lambda_1>@?1???$?0V?$_Fake_no_copy_callable_adapter@AEAP6AHPEAXI0@ZAEAPEAXW4IspSoftAeProcessType@@PEAUIspSoftAeInImage@@@std@@@?$_Task_async_state@H@std@@QEAA@$$QEAV?$_Fake_no_copy_callable_adapter@AEAP6AHPEAXI0@ZAEAPEAXW4IspSoftAeProcessType@@PEAUIspSoftAeInImage@@@3@@Z@@Concurrency@@YA?AV?$task@X@0@V<lambda_1>@?1???$?0V?$_Fake_no_copy_callable_adapter@AEAP6AHPEAXI0@ZAEAPEAXW4IspSoftAeProcessType@@PEAUIspSoftAeInImage@@@std@@@?$_Task_async_state@H@std@@QEAA@$$QEAV?$_Fake_no_copy_callable_adapter@AEAP6AHPEAXI0@ZAEAPEAXW4IspSoftAeProcessType@@PEAUIspSoftAeInImage@@@4@@Z@Vtask_options@0@@Z 0000000140023a10 f i test.obj
 0001:00022b30       ??$destroy@UIspFrameData@@@?$_Default_allocator_traits@V?$allocator@UIspFrameData@@@std@@@std@@SAXAEAV?$allocator@UIspFrameData@@@1@QEAUIspFrameData@@@Z 0000000140023b30 f i test.obj
 0001:00022b60       ??$exchange@PEAV?$_Associated_state@H@std@@$$T@std@@YAPEAV?$_Associated_state@H@0@AEAPEAV10@$$QEA$$T@Z 0000000140023b60 f i test.obj
 0001:00022bc0       ??$exchange@PEAV_PPLTaskChore@_DefaultPPLTaskScheduler@details@Concurrency@@$$T@std@@YAPEAV_PPLTaskChore@_DefaultPPLTaskScheduler@details@Concurrency@@AEAPEAV1234@$$QEA$$T@Z 0000000140023bc0 f i test.obj
 0001:00022c20       ??$exchange@PEAX$$T@std@@YAPEAXAEAPEAX$$QEA$$T@Z 0000000140023c20 f i test.obj
 0001:00022c80       ??$get@$00P6AHPEAXI0@ZPEAXW4IspSoftAeProcessType@@PEAUIspSoftAeInImage@@@std@@YA$$QEAPEAX$$QEAV?$tuple@P6AHPEAXI0@ZPEAXW4IspSoftAeProcessType@@PEAUIspSoftAeInImage@@@0@@Z 0000000140023c80 f i test.obj
 0001:00022cc0       ??$get@$01P6AHPEAXI0@ZPEAXW4IspSoftAeProcessType@@PEAUIspSoftAeInImage@@@std@@YA$$QEAW4IspSoftAeProcessType@@$$QEAV?$tuple@P6AHPEAXI0@ZPEAXW4IspSoftAeProcessType@@PEAUIspSoftAeInImage@@@0@@Z 0000000140023cc0 f i test.obj
 0001:00022d00       ??$get@$02P6AHPEAXI0@ZPEAXW4IspSoftAeProcessType@@PEAUIspSoftAeInImage@@@std@@YA$$QEAPEAUIspSoftAeInImage@@$$QEAV?$tuple@P6AHPEAXI0@ZPEAXW4IspSoftAeProcessType@@PEAUIspSoftAeInImage@@@0@@Z 0000000140023d00 f i test.obj
 0001:00022d30       ??$get@$0A@P6AHPEAXI0@ZPEAXW4IspSoftAeProcessType@@PEAUIspSoftAeInImage@@@std@@YA$$QEAP6AHPEAXI0@Z$$QEAV?$tuple@P6AHPEAXI0@ZPEAXW4IspSoftAeProcessType@@PEAUIspSoftAeInImage@@@0@@Z 0000000140023d30 f i test.obj
 0001:00022d70       ??$invoke@AEAV<lambda_1>@?1???$?0V?$_Fake_no_copy_callable_adapter@AEAP6AHPEAXI0@ZAEAPEAXW4IspSoftAeProcessType@@PEAUIspSoftAeInImage@@@std@@@?$_Task_async_state@H@std@@QEAA@$$QEAV?$_Fake_no_copy_callable_adapter@AEAP6AHPEAXI0@ZAEAPEAXW4IspSoftAeProcessType@@PEAUIspSoftAeInImage@@@3@@Z@@std@@YAXAEAV<lambda_1>@?1???$?0V?$_Fake_no_copy_callable_adapter@AEAP6AHPEAXI0@ZAEAPEAXW4IspSoftAeProcessType@@PEAUIspSoftAeInImage@@@std@@@?$_Task_async_state@H@0@QEAA@$$QEAV?$_Fake_no_copy_callable_adapter@AEAP6AHPEAXI0@ZAEAPEAXW4IspSoftAeProcessType@@PEAUIspSoftAeInImage@@@0@@Z@@Z 0000000140023d70 f i test.obj
 0001:00022db0       ??$invoke@AEAV<lambda_1>@?1??_MakeVoidToUnitFunc@details@Concurrency@@YA?AV?$function@$$A6AEXZ@std@@AEBV?$function@$$A6AXXZ@6@@Z@@std@@YAEAEAV<lambda_1>@?1??_MakeVoidToUnitFunc@details@Concurrency@@YA?AV?$function@$$A6AEXZ@0@AEBV?$function@$$A6AXXZ@0@@Z@@Z 0000000140023db0 f i test.obj
 0001:00022df0       ??$invoke@AEAV<lambda_1>@?4??_ScheduleContinuationTask@_Task_impl_base@details@Concurrency@@QEAAXPEAU_ContinuationTaskHandleBase@45@@Z@@std@@YAXAEAV<lambda_1>@?4??_ScheduleContinuationTask@_Task_impl_base@details@Concurrency@@QEAAXPEAU_ContinuationTaskHandleBase@45@@Z@@Z 0000000140023df0 f i test.obj
 0001:00022e30       ??$invoke@AEAV<lambda_1>@?7???R1?4??_ScheduleContinuationTask@_Task_impl_base@details@Concurrency@@QEAAXPEAU_ContinuationTaskHandleBase@45@@Z@QEBA@XZ@@std@@YAXAEAV<lambda_1>@?7???R1?4??_ScheduleContinuationTask@_Task_impl_base@details@Concurrency@@QEAAXPEAU_ContinuationTaskHandleBase@45@@Z@QEBA@XZ@@Z 0000000140023e30 f i test.obj
 0001:00022e70       ??$invoke@AEAV<lambda_1>@?CC@??_CancelAndRunContinuations@?$_Task_impl@E@details@Concurrency@@UEAA_N_N00AEBV?$shared_ptr@U_ExceptionHolder@details@Concurrency@@@std@@@Z@@std@@YAXAEAV<lambda_1>@?CC@??_CancelAndRunContinuations@?$_Task_impl@E@details@Concurrency@@UEAA_N_N00AEBV?$shared_ptr@U_ExceptionHolder@details@Concurrency@@@0@@Z@@Z 0000000140023e70 f i test.obj
 0001:00022eb0       ??$invoke@AEAV?$_Fake_no_copy_callable_adapter@AEAP6AHPEAXI0@ZAEAPEAXW4IspSoftAeProcessType@@PEAUIspSoftAeInImage@@@std@@@std@@YAHAEAV?$_Fake_no_copy_callable_adapter@AEAP6AHPEAXI0@ZAEAPEAXW4IspSoftAeProcessType@@PEAUIspSoftAeInImage@@@0@@Z 0000000140023eb0 f i test.obj
 0001:00022ef0       ??$invoke@P6AHPEAXI0@ZPEAXW4IspSoftAeProcessType@@PEAUIspSoftAeInImage@@@std@@YAH$$QEAP6AHPEAXI0@Z$$QEAPEAX$$QEAW4IspSoftAeProcessType@@$$QEAPEAUIspSoftAeInImage@@@Z 0000000140023ef0 f i test.obj
 0001:00022f50       ??$invoke@V<lambda_1>@?1??_GetStaticAmbientSchedulerRef@details@Concurrency@@YAAEAV?$shared_ptr@Uscheduler_interface@Concurrency@@@std@@XZ@@std@@YAX$$QEAV<lambda_1>@?1??_GetStaticAmbientSchedulerRef@details@Concurrency@@YAAEAV?$shared_ptr@Uscheduler_interface@Concurrency@@@0@XZ@@Z 0000000140023f50 f i test.obj
 0001:00022f90       ??$make_shared@U?$_Task_impl@E@details@Concurrency@@AEAPEAV_CancellationTokenState@23@AEAUscheduler_ptr@3@@std@@YA?AV?$shared_ptr@U?$_Task_impl@E@details@Concurrency@@@0@AEAPEAV_CancellationTokenState@details@Concurrency@@AEAUscheduler_ptr@4@@Z 0000000140023f90 f i test.obj
 0001:000230c0       ??$make_shared@U_ExceptionHolder@details@Concurrency@@AEBVexception_ptr@std@@V_TaskCreationCallstack@23@@std@@YA?AV?$shared_ptr@U_ExceptionHolder@details@Concurrency@@@0@AEBVexception_ptr@0@$$QEAV_TaskCreationCallstack@details@Concurrency@@@Z 00000001400240c0 f i test.obj
 0001:000231f0       ??$swap@PEAU?$_Task_impl@E@details@Concurrency@@$0A@@std@@YAXAEAPEAU?$_Task_impl@E@details@Concurrency@@0@Z 00000001400241f0 f i test.obj
 0001:00023250       ??$swap@PEAU_ExceptionHolder@details@Concurrency@@$0A@@std@@YAXAEAPEAU_ExceptionHolder@details@Concurrency@@0@Z 0000000140024250 f i test.obj
 0001:000232b0       ??$swap@PEAV_Ref_count_base@std@@$0A@@std@@YAXAEAPEAV_Ref_count_base@0@0@Z 00000001400242b0 f i test.obj
 0001:00023310       ??$uninitialized_copy@PEAPEAUIspFrameData@@PEAPEAU1@@std@@YAPEAPEAUIspFrameData@@QEAPEAU1@0PEAPEAU1@@Z 0000000140024310 f i test.obj
 0001:00023420       ??$wait@V<lambda_1>@?BE@??_DeregisterCallback@_CancellationTokenState@details@Concurrency@@QEAAXPEAV_CancellationTokenRegistration@45@@Z@@condition_variable@std@@QEAAXAEAV?$unique_lock@Vmutex@std@@@1@V<lambda_1>@?BE@??_DeregisterCallback@_CancellationTokenState@details@Concurrency@@QEAAXPEAV_CancellationTokenRegistration@67@@Z@@Z 0000000140024420 f i test.obj
 0001:00023480       ??0<lambda_1>@?1???$?0V?$_Fake_no_copy_callable_adapter@AEAP6AHPEAXI0@ZAEAPEAXW4IspSoftAeProcessType@@PEAUIspSoftAeInImage@@@std@@@?$_Task_async_state@H@std@@QEAA@$$QEAV?$_Fake_no_copy_callable_adapter@AEAP6AHPEAXI0@ZAEAPEAXW4IspSoftAeProcessType@@PEAUIspSoftAeInImage@@@2@@Z@QEAA@PEAV12@@Z 0000000140024480 f i test.obj
 0001:000234d0       ??0<lambda_1>@?1??_MakeVoidToUnitFunc@details@Concurrency@@YA?AV?$function@$$A6AEXZ@std@@AEBV?$function@$$A6AXXZ@5@@Z@QEAA@$$QEAV0?1??123@YA?AV45@0@Z@@Z 00000001400244d0 f i test.obj
 0001:00023520       ??0<lambda_1>@?1??_MakeVoidToUnitFunc@details@Concurrency@@YA?AV?$function@$$A6AEXZ@std@@AEBV?$function@$$A6AXXZ@5@@Z@QEAA@0@Z 0000000140024520 f i test.obj
 0001:00023570       ??0<lambda_1>@?1??_MakeVoidToUnitFunc@details@Concurrency@@YA?AV?$function@$$A6AEXZ@std@@AEBV?$function@$$A6AXXZ@5@@Z@QEAA@AEBV0?1??123@YA?AV45@0@Z@@Z 0000000140024570 f i test.obj
 0001:000235c0       ??0<lambda_1>@?1??_RegisterCancellation@_Task_impl_base@details@Concurrency@@QEAAXV?$weak_ptr@U_Task_impl_base@details@Concurrency@@@std@@@Z@QEAA@AEBV0?1??1234@QEAAX0@Z@@Z 00000001400245c0 f i test.obj
 0001:00023610       ??0<lambda_1>@?1??_RegisterCancellation@_Task_impl_base@details@Concurrency@@QEAAXV?$weak_ptr@U_Task_impl_base@details@Concurrency@@@std@@@Z@QEAA@AEBV56@@Z 0000000140024610 f i test.obj
 0001:00023660       ??0<lambda_1>@?4??_ScheduleContinuationTask@_Task_impl_base@details@Concurrency@@QEAAXPEAU_ContinuationTaskHandleBase@34@@Z@QEAA@AEBQEAU534@@Z 0000000140024660 f i test.obj
 0001:000236b0       ??0<lambda_1>@?7???R0?4??_ScheduleContinuationTask@_Task_impl_base@details@Concurrency@@QEAAXPEAU_ContinuationTaskHandleBase@34@@Z@QEBA@XZ@QEAA@$$QEAV0?7???R0?4??1234@QEAAX0@Z@QEBA@XZ@@Z 00000001400246b0 f i test.obj
 0001:00023720       ??0<lambda_1>@?7???R0?4??_ScheduleContinuationTask@_Task_impl_base@details@Concurrency@@QEAAXPEAU_ContinuationTaskHandleBase@34@@Z@QEBA@XZ@QEAA@AEBQEAU534@AEBV?$shared_ptr@U_Task_impl_base@details@Concurrency@@@std@@@Z 0000000140024720 f i test.obj
 0001:00023790       ??0<lambda_1>@?7???R0?4??_ScheduleContinuationTask@_Task_impl_base@details@Concurrency@@QEAAXPEAU_ContinuationTaskHandleBase@34@@Z@QEBA@XZ@QEAA@AEBV0?7???R0?4??1234@QEAAX0@Z@QEBA@XZ@@Z 0000000140024790 f i test.obj
 0001:00023800       ??0<lambda_1>@?BE@??_DeregisterCallback@_CancellationTokenState@details@Concurrency@@QEAAXPEAV_CancellationTokenRegistration@34@@Z@QEAA@AEBQEAV534@@Z 0000000140024800 f i test.obj
 0001:00023850       ??0<lambda_1>@?CC@??_CancelAndRunContinuations@?$_Task_impl@E@details@Concurrency@@UEAA_N_N00AEBV?$shared_ptr@U_ExceptionHolder@details@Concurrency@@@std@@@Z@QEAA@PEAU234@@Z 0000000140024850 f i test.obj
 0001:000238a0       ??0?$_Associated_state@H@std@@QEAA@PEAU?$_Deleter_base@H@1@@Z 00000001400248a0 f i test.obj
 0001:000239a0       ??0?$_Atomic_integral@J$03@std@@QEAA@J@Z 00000001400249a0 f i test.obj
 0001:000239e0       ??0?$_Atomic_integral_facade@J@std@@QEAA@J@Z 00000001400249e0 f i test.obj
 0001:00023a20       ??0?$_Atomic_storage@J$03@std@@QEAA@J@Z 0000000140024a20 f i test.obj
 0001:00023a70       ??0?$_CancellationTokenCallback@V<lambda_1>@?1??_RegisterCancellation@_Task_impl_base@details@Concurrency@@QEAAXV?$weak_ptr@U_Task_impl_base@details@Concurrency@@@std@@@Z@@details@Concurrency@@QEAA@AEBV<lambda_1>@?1??_RegisterCancellation@_Task_impl_base@12@QEAAXV?$weak_ptr@U_Task_impl_base@details@Concurrency@@@std@@@Z@@Z 0000000140024a70 f i test.obj
 0001:00023af0       ??0?$_Deque_val@U?$_Deque_simple_types@UIspFrameData@@@std@@@std@@QEAA@XZ 0000000140024af0 f i test.obj
 0001:00023b70       ??0?$_Fake_no_copy_callable_adapter@AEAP6AHPEAXI0@ZAEAPEAXW4IspSoftAeProcessType@@PEAUIspSoftAeInImage@@@std@@QEAA@$$QEAV01@@Z 0000000140024b70 f i test.obj
 0001:00023bc0       ??0?$_Fake_no_copy_callable_adapter@AEAP6AHPEAXI0@ZAEAPEAXW4IspSoftAeProcessType@@PEAUIspSoftAeInImage@@@std@@QEAA@AEAP6AHPEAXI0@ZAEAPEAX$$QEAW4IspSoftAeProcessType@@$$QEAPEAUIspSoftAeInImage@@@Z 0000000140024bc0 f i test.obj
 0001:00023c30       ??0?$_Fake_no_copy_callable_adapter@AEAP6AHPEAXI0@ZAEAPEAXW4IspSoftAeProcessType@@PEAUIspSoftAeInImage@@@std@@QEAA@AEBV01@@Z 0000000140024c30 f i test.obj
 0001:00023c90       ??0?$_Func_base@E$$V@std@@QEAA@XZ 0000000140024c90 f i test.obj
 0001:00023cc0       ??0?$_Func_base@H$$V@std@@QEAA@XZ 0000000140024cc0 f i test.obj
 0001:00023cf0       ??0?$_Func_base@X$$V@std@@QEAA@XZ 0000000140024cf0 f i test.obj
 0001:00023d20       ??0?$_Func_class@E$$V@std@@QEAA@XZ 0000000140024d20 f i test.obj
 0001:00023d60       ??0?$_Func_class@H$$V@std@@QEAA@XZ 0000000140024d60 f i test.obj
 0001:00023da0       ??0?$_Func_class@X$$V@std@@QEAA@XZ 0000000140024da0 f i test.obj
 0001:00023de0       ??0?$_InitialTaskHandle@XV<lambda_1>@?1???$?0V?$_Fake_no_copy_callable_adapter@AEAP6AHPEAXI0@ZAEAPEAXW4IspSoftAeProcessType@@PEAUIspSoftAeInImage@@@std@@@?$_Task_async_state@H@std@@QEAA@$$QEAV?$_Fake_no_copy_callable_adapter@AEAP6AHPEAXI0@ZAEAPEAXW4IspSoftAeProcessType@@PEAUIspSoftAeInImage@@@3@@Z@U_TypeSelectorNoAsync@details@Concurrency@@@?$task@E@Concurrency@@QEAA@AEBV?$shared_ptr@U?$_Task_impl@E@details@Concurrency@@@std@@AEBV<lambda_1>@?1???$?0V?$_Fake_no_copy_callable_adapter@AEAP6AHPEAXI0@ZAEAPEAXW4IspSoftAeProcessType@@PEAUIspSoftAeInImage@@@std@@@?$_Task_async_state@H@4@QEAA@$$QEAV?$_Fake_no_copy_callable_adapter@AEAP6AHPEAXI0@ZAEAPEAXW4IspSoftAeProcessType@@PEAUIspSoftAeInImage@@@4@@Z@@Z 0000000140024de0 f i test.obj
 0001:00023e60       ??0?$_PPLTaskHandle@EU?$_InitialTaskHandle@XV<lambda_1>@?1???$?0V?$_Fake_no_copy_callable_adapter@AEAP6AHPEAXI0@ZAEAPEAXW4IspSoftAeProcessType@@PEAUIspSoftAeInImage@@@std@@@?$_Task_async_state@H@std@@QEAA@$$QEAV?$_Fake_no_copy_callable_adapter@AEAP6AHPEAXI0@ZAEAPEAXW4IspSoftAeProcessType@@PEAUIspSoftAeInImage@@@3@@Z@U_TypeSelectorNoAsync@details@Concurrency@@@?$task@E@Concurrency@@U_TaskProcHandle@details@3@@details@Concurrency@@QEAA@AEBV?$shared_ptr@U?$_Task_impl@E@details@Concurrency@@@std@@@Z 0000000140024e60 f i test.obj
 0001:00023ed0       ??0?$_Promise@H@std@@QEAA@PEAV?$_Associated_state@H@1@@Z 0000000140024ed0 f i test.obj
 0001:00023f30       ??0?$_Ptr_base@U?$_Task_impl@E@details@Concurrency@@@std@@IEAA@XZ 0000000140024f30 f i test.obj
 0001:00023f80       ??0?$_Ptr_base@U_ExceptionHolder@details@Concurrency@@@std@@IEAA@XZ 0000000140024f80 f i test.obj
 0001:00023fd0       ??0?$_Ptr_base@U_Task_impl_base@details@Concurrency@@@std@@IEAA@XZ 0000000140024fd0 f i test.obj
 0001:00024020       ??0?$_Ptr_base@Uscheduler_interface@Concurrency@@@std@@IEAA@XZ 0000000140025020 f i test.obj
 0001:00024070       ??0?$_State_manager@H@std@@QEAA@$$QEAV01@_N@Z 0000000140025070 f i test.obj
 0001:000240f0       ??0?$_State_manager@H@std@@QEAA@AEBV01@_N@Z 00000001400250f0 f i test.obj
 0001:00024170       ??0?$_State_manager@H@std@@QEAA@PEAV?$_Associated_state@H@1@_N@Z 0000000140025170 f i test.obj
 0001:000241d0       ??0?$_Task_impl@E@details@Concurrency@@QEAA@PEAV_CancellationTokenState@12@Uscheduler_ptr@2@@Z 00000001400251d0 f i test.obj
 0001:00024280       ??0?$_Uninitialized_backout@PEAPEAUIspFrameData@@@std@@QEAA@PEAPEAUIspFrameData@@@Z 0000000140025280 f i test.obj
 0001:000242e0       ??0?$_Uninitialized_backout_al@V?$allocator@PEAX@std@@@std@@QEAA@PEAPEAXAEAV?$allocator@PEAX@1@@Z 00000001400252e0 f i test.obj
 0001:00024350       ??0?$_Vector_val@U?$_Simple_types@PEAX@std@@@std@@QEAA@XZ 0000000140025350 f i test.obj
 0001:000243c0       ??0?$allocator@PEAX@std@@QEAA@XZ 00000001400253c0 f i test.obj
 0001:000243f0       ??0?$allocator@UIspFrameData@@@std@@QEAA@XZ 00000001400253f0 f i test.obj
 0001:00024420       ??0?$atomic@J@std@@QEAA@J@Z 0000000140025420 f i test.obj
 0001:00024460       ??0?$basic_ifstream@DU?$char_traits@D@std@@@std@@QEAA@XZ 0000000140025460 f i test.obj
 0001:00024570       ??0?$deque@UIspFrameData@@V?$allocator@UIspFrameData@@@std@@@std@@QEAA@XZ 0000000140025570 f i test.obj
 0001:00024600       ??0?$function@$$A6AXXZ@std@@QEAA@AEBV01@@Z 0000000140025600 f i test.obj
 0001:00024660       ??0?$function@$$A6AXXZ@std@@QEAA@XZ 0000000140025660 f i test.obj
 0001:000246a0       ??0?$future@H@std@@QEAA@$$QEAV01@@Z 00000001400256a0 f i test.obj
 0001:000246f0       ??0?$future@H@std@@QEAA@U_From_raw_state_tag@1@AEBV?$_State_manager@H@1@@Z 00000001400256f0 f i test.obj
 0001:00024740       ??0?$lock_guard@Vmutex@std@@@std@@QEAA@AEAVmutex@1@@Z 0000000140025740 f i test.obj
 0001:000247a0       ??0?$queue@UIspFrameData@@V?$deque@UIspFrameData@@V?$allocator@UIspFrameData@@@std@@@std@@@std@@QEAA@XZ 00000001400257a0 f i test.obj
 0001:000247e0       ??0?$shared_ptr@U?$_Task_impl@E@details@Concurrency@@@std@@QEAA@$$QEAV01@@Z 00000001400257e0 f i test.obj
 0001:00024840       ??0?$shared_ptr@U?$_Task_impl@E@details@Concurrency@@@std@@QEAA@$$T@Z 0000000140025840 f i test.obj
 0001:00024890       ??0?$shared_ptr@U?$_Task_impl@E@details@Concurrency@@@std@@QEAA@AEBV01@@Z 0000000140025890 f i test.obj
 0001:000248f0       ??0?$shared_ptr@U?$_Task_impl@E@details@Concurrency@@@std@@QEAA@XZ 00000001400258f0 f i test.obj
 0001:00024930       ??0?$shared_ptr@U_ExceptionHolder@details@Concurrency@@@std@@QEAA@AEBV01@@Z 0000000140025930 f i test.obj
 0001:00024990       ??0?$shared_ptr@U_ExceptionHolder@details@Concurrency@@@std@@QEAA@XZ 0000000140025990 f i test.obj
 0001:000249d0       ??0?$shared_ptr@U_Task_impl_base@details@Concurrency@@@std@@QEAA@$$QEAV01@@Z 00000001400259d0 f i test.obj
 0001:00024a30       ??0?$shared_ptr@U_Task_impl_base@details@Concurrency@@@std@@QEAA@AEBV01@@Z 0000000140025a30 f i test.obj
 0001:00024a90       ??0?$shared_ptr@U_Task_impl_base@details@Concurrency@@@std@@QEAA@XZ 0000000140025a90 f i test.obj
 0001:00024ad0       ??0?$shared_ptr@Uscheduler_interface@Concurrency@@@std@@QEAA@$$QEAV01@@Z 0000000140025ad0 f i test.obj
 0001:00024b30       ??0?$shared_ptr@Uscheduler_interface@Concurrency@@@std@@QEAA@AEBV01@@Z 0000000140025b30 f i test.obj
 0001:00024b90       ??0?$task@E@Concurrency@@QEAA@XZ 0000000140025b90 f i test.obj
 0001:00024be0       ??0?$task@X@Concurrency@@QEAA@XZ 0000000140025be0 f i test.obj
 0001:00024c20       ??0?$tuple@$$V@std@@QEAA@AEBV01@@Z 0000000140025c20 f i test.obj
 0001:00024c60       ??0?$tuple@P6AHPEAXI0@ZPEAXW4IspSoftAeProcessType@@PEAUIspSoftAeInImage@@@std@@QEAA@$$QEAV01@@Z 0000000140025c60 f i test.obj
 0001:00024cc0       ??0?$tuple@PEAUIspSoftAeInImage@@@std@@QEAA@$$QEAV01@@Z 0000000140025cc0 f i test.obj
 0001:00024d20       ??0?$tuple@PEAXW4IspSoftAeProcessType@@PEAUIspSoftAeInImage@@@std@@QEAA@$$QEAV01@@Z 0000000140025d20 f i test.obj
 0001:00024d80       ??0?$tuple@W4IspSoftAeProcessType@@PEAUIspSoftAeInImage@@@std@@QEAA@$$QEAV01@@Z 0000000140025d80 f i test.obj
 0001:00024de0       ??0?$unique_lock@Vmutex@std@@@std@@QEAA@AEAVmutex@1@@Z 0000000140025de0 f i test.obj
 0001:00024e50       ??0?$vector@PEAXV?$allocator@PEAX@std@@@std@@QEAA@AEBV01@@Z 0000000140025e50 f i test.obj
 0001:00024f10       ??0?$vector@PEAXV?$allocator@PEAX@std@@@std@@QEAA@XZ 0000000140025f10 f i test.obj
 0001:00024f80       ??0?$weak_ptr@U_Task_impl_base@details@Concurrency@@@std@@QEAA@AEBV01@@Z 0000000140025f80 f i test.obj
 0001:00024fe0       ??0_CancellationTokenRegistration@details@Concurrency@@QEAA@J@Z 0000000140025fe0 f i test.obj
 0001:000250a0       ??0_ContextCallback@details@Concurrency@@QEAA@_N@Z 00000001400260a0 f i test.obj
 0001:00025100       ??0_DefaultPPLTaskScheduler@details@Concurrency@@QEAA@XZ 0000000140026100 f i test.obj
 0001:00025150       ??0_ExceptionHolder@details@Concurrency@@QEAA@AEBVexception_ptr@std@@AEBV_TaskCreationCallstack@12@@Z 0000000140026150 f i test.obj
 0001:000251e0       ??0_Holder@_TaskProcThunk@details@Concurrency@@QEAA@PEAU123@@Z 00000001400261e0 f i test.obj
 0001:00025230       ??0_Internal_task_options@details@Concurrency@@QEAA@XZ 0000000140026230 f i test.obj
 0001:00025280       ??0_Mutex_base@std@@QEAA@H@Z 0000000140026280 f i test.obj
 0001:00025340       ??0_Node@TokenRegistrationContainer@_CancellationTokenState@details@Concurrency@@QEAA@PEAV_CancellationTokenRegistration@34@@Z 0000000140026340 f i test.obj
 0001:000253a0       ??0_PPLTaskChore@_DefaultPPLTaskScheduler@details@Concurrency@@QEAA@P6AXPEAX@Z0@Z 00000001400263a0 f i test.obj
 0001:00025420       ??0_RefCounter@details@Concurrency@@IEAA@J@Z 0000000140026420 f i test.obj
 0001:000254c0       ??0_Ref_count_base@std@@IEAA@XZ 00000001400264c0 f i test.obj
 0001:00025510       ??0_System_error@std@@IEAA@Verror_code@1@@Z 0000000140026510 f i test.obj
 0001:000255c0       ??0_System_error@std@@QEAA@AEBV01@@Z 00000001400265c0 f i test.obj
 0001:00025630       ??0_TaskCollectionBaseImpl@details@Concurrency@@QEAA@Uscheduler_ptr@2@@Z 0000000140026630 f i test.obj
 0001:000256c0       ??0_TaskCreationCallstack@details@Concurrency@@QEAA@AEBV012@@Z 00000001400266c0 f i test.obj
 0001:00025720       ??0_TaskCreationCallstack@details@Concurrency@@QEAA@XZ 0000000140026720 f i test.obj
 0001:00025780       ??0_TaskEventLogger@details@Concurrency@@QEAA@PEAU_Task_impl_base@12@@Z 0000000140026780 f i test.obj
 0001:000257e0       ??0_TaskProcHandle@details@Concurrency@@QEAA@XZ 00000001400267e0 f i test.obj
 0001:00025830       ??0_TaskProcThunk@details@Concurrency@@QEAA@AEBV?$function@$$A6AXXZ@std@@@Z 0000000140026830 f i test.obj
 0001:00025880       ??0_TaskWorkItemRAIILogger@details@Concurrency@@QEAA@AEAU_TaskEventLogger@12@@Z 0000000140026880 f i test.obj
 0001:000258e0       ??0_Task_impl_base@details@Concurrency@@QEAA@PEAV_CancellationTokenState@12@Uscheduler_ptr@2@@Z 00000001400268e0 f i test.obj
 0001:00025aa0       ??0_Threadpool_chore@details@Concurrency@@QEAA@P6AXPEAX@Z0@Z 0000000140026aa0 f i test.obj
 0001:00025b10       ??0cancellation_token@Concurrency@@AEAA@XZ 0000000140026b10 f i test.obj
 0001:00025b50       ??0cancellation_token@Concurrency@@QEAA@AEBV01@@Z 0000000140026b50 f i test.obj
 0001:00025ba0       ??0condition_variable@std@@QEAA@XZ 0000000140026ba0 f i test.obj
 0001:00025bf0       ??0error_code@std@@QEAA@HAEBVerror_category@1@@Z 0000000140026bf0 f i test.obj
 0001:00025c50       ??0error_condition@std@@QEAA@HAEBVerror_category@1@@Z 0000000140026c50 f i test.obj
 0001:00025cb0       ??0exception@std@@QEAA@QEBD@Z 0000000140026cb0 f i test.obj
 0001:00025d90       ??0exception_ptr@std@@QEAA@AEBV01@@Z 0000000140026d90 f i test.obj
 0001:00025e00       ??0exception_ptr@std@@QEAA@XZ 0000000140026e00 f i test.obj
 0001:00025e60       ??0future_error@std@@QEAA@AEBV01@@Z 0000000140026e60 f i test.obj
 0001:00025ed0       ??0future_error@std@@QEAA@W4future_errc@1@@Z 0000000140026ed0 f i test.obj
 0001:00025f50       ??0invalid_operation@Concurrency@@QEAA@AEBV01@@Z 0000000140026f50 f i test.obj
 0001:00025fa0       ??0invalid_operation@Concurrency@@QEAA@PEBD@Z 0000000140026fa0 f i test.obj
 0001:00026000       ??0logic_error@std@@QEAA@AEBV01@@Z 0000000140027000 f i test.obj
 0001:00026050       ??0logic_error@std@@QEAA@PEBD@Z 0000000140027050 f i test.obj
 0001:000260b0       ??0mutex@std@@QEAA@XZ      00000001400270b0 f i test.obj
 0001:000260f0       ??0runtime_error@std@@QEAA@AEBV01@@Z 00000001400270f0 f i test.obj
 0001:00026140       ??0runtime_error@std@@QEAA@AEBV?$basic_string@DU?$char_traits@D@std@@V?$allocator@D@2@@1@@Z 0000000140027140 f i test.obj
 0001:000261b0       ??0runtime_error@std@@QEAA@PEBD@Z 00000001400271b0 f i test.obj
 0001:00026210       ??0scheduler_interface@Concurrency@@QEAA@XZ 0000000140027210 f i test.obj
 0001:00026240       ??0scheduler_ptr@Concurrency@@QEAA@AEBU01@@Z 0000000140027240 f i test.obj
 0001:000262a0       ??0scheduler_ptr@Concurrency@@QEAA@V?$shared_ptr@Uscheduler_interface@Concurrency@@@std@@@Z 00000001400272a0 f i test.obj
 0001:00026320       ??0system_error@std@@QEAA@AEBV01@@Z 0000000140027320 f i test.obj
 0001:00026370       ??0system_error@std@@QEAA@Verror_code@1@@Z 0000000140027370 f i test.obj
 0001:000263f0       ??0task_continuation_context@Concurrency@@AEAA@U_Tag@01@@Z 00000001400273f0 f i test.obj
 0001:00026430       ??0task_options@Concurrency@@QEAA@XZ 0000000140027430 f i test.obj
 0001:00026500       ??1<lambda_1>@?1??_MakeVoidToUnitFunc@details@Concurrency@@YA?AV?$function@$$A6AEXZ@std@@AEBV?$function@$$A6AXXZ@5@@Z@QEAA@XZ 0000000140027500 f i test.obj
 0001:00026530       ??1<lambda_1>@?1??_RegisterCancellation@_Task_impl_base@details@Concurrency@@QEAAXV?$weak_ptr@U_Task_impl_base@details@Concurrency@@@std@@@Z@QEAA@XZ 0000000140027530 f i test.obj
 0001:00026560       ??1<lambda_1>@?7???R0?4??_ScheduleContinuationTask@_Task_impl_base@details@Concurrency@@QEAAXPEAU_ContinuationTaskHandleBase@34@@Z@QEBA@XZ@QEAA@XZ 0000000140027560 f i test.obj
 0001:00026590       ??1?$_Associated_state@H@std@@UEAA@XZ 0000000140027590 f i test.obj
 0001:00026650       ??1?$_CancellationTokenCallback@V<lambda_1>@?1??_RegisterCancellation@_Task_impl_base@details@Concurrency@@QEAAXV?$weak_ptr@U_Task_impl_base@details@Concurrency@@@std@@@Z@@details@Concurrency@@UEAA@XZ 0000000140027650 f i test.obj
 0001:00026690       ??1?$_Deferred_async_state@H@std@@UEAA@XZ 0000000140027690 f i test.obj
 0001:000266c0       ??1?$_Func_class@E$$V@std@@QEAA@XZ 00000001400276c0 f i test.obj
 0001:00026700       ??1?$_Func_class@H$$V@std@@QEAA@XZ 0000000140027700 f i test.obj
 0001:00026740       ??1?$_Func_class@X$$V@std@@QEAA@XZ 0000000140027740 f i test.obj
 0001:00026780       ??1?$_Func_impl_no_alloc@V<lambda_1>@?1??_MakeVoidToUnitFunc@details@Concurrency@@YA?AV?$function@$$A6AEXZ@std@@AEBV?$function@$$A6AXXZ@6@@Z@E$$V@std@@QEAA@XZ 0000000140027780 f i test.obj
 0001:000267b0       ??1?$_Func_impl_no_alloc@V<lambda_1>@?7???R1?4??_ScheduleContinuationTask@_Task_impl_base@details@Concurrency@@QEAAXPEAU_ContinuationTaskHandleBase@45@@Z@QEBA@XZ@X$$V@std@@QEAA@XZ 00000001400277b0 f i test.obj
 0001:000267e0       ??1?$_InitialTaskHandle@XV<lambda_1>@?1???$?0V?$_Fake_no_copy_callable_adapter@AEAP6AHPEAXI0@ZAEAPEAXW4IspSoftAeProcessType@@PEAUIspSoftAeInImage@@@std@@@?$_Task_async_state@H@std@@QEAA@$$QEAV?$_Fake_no_copy_callable_adapter@AEAP6AHPEAXI0@ZAEAPEAXW4IspSoftAeProcessType@@PEAUIspSoftAeInImage@@@3@@Z@U_TypeSelectorNoAsync@details@Concurrency@@@?$task@E@Concurrency@@UEAA@XZ 00000001400277e0 f i test.obj
 0001:00026830       ??1?$_PPLTaskHandle@EU?$_InitialTaskHandle@XV<lambda_1>@?1???$?0V?$_Fake_no_copy_callable_adapter@AEAP6AHPEAXI0@ZAEAPEAXW4IspSoftAeProcessType@@PEAUIspSoftAeInImage@@@std@@@?$_Task_async_state@H@std@@QEAA@$$QEAV?$_Fake_no_copy_callable_adapter@AEAP6AHPEAXI0@ZAEAPEAXW4IspSoftAeProcessType@@PEAUIspSoftAeInImage@@@3@@Z@U_TypeSelectorNoAsync@details@Concurrency@@@?$task@E@Concurrency@@U_TaskProcHandle@details@3@@details@Concurrency@@UEAA@XZ 0000000140027830 f i test.obj
 0001:000268b0       ??1?$_Packaged_state@$$A6AHXZ@std@@UEAA@XZ 00000001400278b0 f i test.obj
 0001:000268f0       ??1?$_Promise@H@std@@QEAA@XZ 00000001400278f0 f i test.obj
 0001:00026920       ??1?$_Ref_count_obj2@U?$_Task_impl@E@details@Concurrency@@@std@@UEAA@XZ 0000000140027920 f i test.obj
 0001:00026970       ??1?$_Ref_count_obj2@U_ExceptionHolder@details@Concurrency@@@std@@UEAA@XZ 0000000140027970 f i test.obj
 0001:000269c0       ??1?$_State_manager@H@std@@QEAA@XZ 00000001400279c0 f i test.obj
 0001:00026a10       ??1?$_Task_async_state@H@std@@UEAA@XZ 0000000140027a10 f i test.obj
 0001:00026a80       ??1?$_Task_impl@E@details@Concurrency@@UEAA@XZ 0000000140027a80 f i test.obj
 0001:00026af0       ??1?$_Tidy_guard@V?$vector@PEAXV?$allocator@PEAX@std@@@std@@@std@@QEAA@XZ 0000000140027af0 f i test.obj
 0001:00026b40       ??1?$_Uninitialized_backout@PEAPEAUIspFrameData@@@std@@QEAA@XZ 0000000140027b40 f i test.obj
 0001:00026b90       ??1?$_Uninitialized_backout_al@V?$allocator@PEAX@std@@@std@@QEAA@XZ 0000000140027b90 f i test.obj
 0001:00026be0       ??1?$basic_ifstream@DU?$char_traits@D@std@@@std@@UEAA@XZ 0000000140027be0 f i test.obj
 0001:00026ca0       ??1?$deque@UIspFrameData@@V?$allocator@UIspFrameData@@@std@@@std@@QEAA@XZ 0000000140027ca0 f i test.obj
 0001:00026d70       ??1?$function@$$A6AEXZ@std@@QEAA@XZ 0000000140027d70 f i test.obj
 0001:00026da0       ??1?$function@$$A6AHXZ@std@@QEAA@XZ 0000000140027da0 f i test.obj
 0001:00026dd0       ??1?$function@$$A6AXXZ@std@@QEAA@XZ 0000000140027dd0 f i test.obj
 0001:00026e00       ??1?$future@H@std@@QEAA@XZ 0000000140027e00 f i test.obj
 0001:00026e30       ??1?$lock_guard@Vmutex@std@@@std@@QEAA@XZ 0000000140027e30 f i test.obj
 0001:00026e70       ??1?$queue@UIspFrameData@@V?$deque@UIspFrameData@@V?$allocator@UIspFrameData@@@std@@@std@@@std@@QEAA@XZ 0000000140027e70 f i test.obj
 0001:00026ea0       ??1?$shared_ptr@U?$_Task_impl@E@details@Concurrency@@@std@@QEAA@XZ 0000000140027ea0 f i test.obj
 0001:00026ee0       ??1?$shared_ptr@U_ExceptionHolder@details@Concurrency@@@std@@QEAA@XZ 0000000140027ee0 f i test.obj
 0001:00026f20       ??1?$shared_ptr@U_Task_impl_base@details@Concurrency@@@std@@QEAA@XZ 0000000140027f20 f i test.obj
 0001:00026f60       ??1?$shared_ptr@Uscheduler_interface@Concurrency@@@std@@QEAA@XZ 0000000140027f60 f i test.obj
 0001:00026fa0       ??1?$task@E@Concurrency@@QEAA@XZ 0000000140027fa0 f i test.obj
 0001:00026fd0       ??1?$task@X@Concurrency@@QEAA@XZ 0000000140027fd0 f i test.obj
 0001:00027000       ??1?$unique_lock@Vmutex@std@@@std@@QEAA@XZ 0000000140028000 f i test.obj
 0001:00027050       ??1?$unique_ptr@U_TaskProcHandle@details@Concurrency@@U?$default_delete@U_TaskProcHandle@details@Concurrency@@@std@@@std@@QEAA@XZ 0000000140028050 f i test.obj
 0001:000270b0       ??1?$unique_ptr@V_PPLTaskChore@_DefaultPPLTaskScheduler@details@Concurrency@@U?$default_delete@V_PPLTaskChore@_DefaultPPLTaskScheduler@details@Concurrency@@@std@@@std@@QEAA@XZ 00000001400280b0 f i test.obj
 0001:00027110       ??1?$vector@PEAXV?$allocator@PEAX@std@@@std@@QEAA@XZ 0000000140028110 f i test.obj
 0001:000271e0       ??1?$weak_ptr@U_Task_impl_base@details@Concurrency@@@std@@QEAA@XZ 00000001400281e0 f i test.obj
 0001:00027220       ??1_CancellationTokenRegistration@details@Concurrency@@MEAA@XZ 0000000140028220 f i test.obj
 0001:000272e0       ??1_ContextCallback@details@Concurrency@@QEAA@XZ 00000001400282e0 f i test.obj
 0001:00027320       ??1_ExceptionHolder@details@Concurrency@@QEAA@XZ 0000000140028320 f i test.obj
 0001:000273a0       ??1_Future_error_category2@std@@UEAA@XZ 00000001400283a0 f i test.obj
 0001:000273d0       ??1_Generic_error_category@std@@UEAA@XZ 00000001400283d0 f i test.obj
 0001:00027400       ??1_Guard_type@?1???$_Global_new@V?$_Func_impl_no_alloc@V<lambda_1>@?1??_MakeVoidToUnitFunc@details@Concurrency@@YA?AV?$function@$$A6AEXZ@std@@AEBV?$function@$$A6AXXZ@6@@Z@E$$V@std@@AEBV<lambda_1>@?1??_MakeVoidToUnitFunc@details@Concurrency@@YA?AV?$function@$$A6AEXZ@2@AEBV?$function@$$A6AXXZ@2@@Z@@std@@YAPEAV?$_Func_impl_no_alloc@V<lambda_1>@?1??_MakeVoidToUnitFunc@details@Concurrency@@YA?AV?$function@$$A6AEXZ@std@@AEBV?$function@$$A6AXXZ@6@@Z@E$$V@1@AEBV<lambda_1>@?1??_MakeVoidToUnitFunc@details@Concurrency@@YA?AV?$function@$$A6AEXZ@1@AEBV?$function@$$A6AXXZ@1@@Z@@Z@QEAA@XZ 0000000140028400 f i test.obj
 0001:00027450       ??1_Guard_type@?1???$_Global_new@V?$_Func_impl_no_alloc@V<lambda_1>@?1??_MakeVoidToUnitFunc@details@Concurrency@@YA?AV?$function@$$A6AEXZ@std@@AEBV?$function@$$A6AXXZ@6@@Z@E$$V@std@@V<lambda_1>@?1??_MakeVoidToUnitFunc@details@Concurrency@@YA?AV?$function@$$A6AEXZ@2@AEBV?$function@$$A6AXXZ@2@@Z@@std@@YAPEAV?$_Func_impl_no_alloc@V<lambda_1>@?1??_MakeVoidToUnitFunc@details@Concurrency@@YA?AV?$function@$$A6AEXZ@std@@AEBV?$function@$$A6AXXZ@6@@Z@E$$V@1@$$QEAV<lambda_1>@?1??_MakeVoidToUnitFunc@details@Concurrency@@YA?AV?$function@$$A6AEXZ@1@AEBV?$function@$$A6AXXZ@1@@Z@@Z@QEAA@XZ 0000000140028450 f i test.obj
 0001:000274a0       ??1_Holder@_TaskProcThunk@details@Concurrency@@QEAA@XZ 00000001400284a0 f i test.obj
 0001:00027510       ??1_Init_once_completer@std@@QEAA@XZ 0000000140028510 f i test.obj
 0001:00027570       ??1_Internal_task_options@details@Concurrency@@QEAA@XZ 0000000140028570 f i test.obj
 0001:000275a0       ??1_Mutex_base@std@@QEAA@XZ 00000001400285a0 f i test.obj
 0001:000275e0       ??1_PPLTaskChore@_DefaultPPLTaskScheduler@details@Concurrency@@QEAA@XZ 00000001400285e0 f i test.obj
 0001:00027620       ??1_RefCounter@details@Concurrency@@UEAA@XZ 0000000140028620 f i test.obj
 0001:000276b0       ??1_Ref_count_base@std@@UEAA@XZ 00000001400286b0 f i test.obj
 0001:000276e0       ??1_System_error@std@@UEAA@XZ 00000001400286e0 f i test.obj
 0001:00027710       ??1_TaskCollectionBaseImpl@details@Concurrency@@QEAA@XZ 0000000140028710 f i test.obj
 0001:00027770       ??1_TaskCreationCallstack@details@Concurrency@@QEAA@XZ 0000000140028770 f i test.obj
 0001:000277a0       ??1_TaskProcHandle@details@Concurrency@@UEAA@XZ 00000001400287a0 f i test.obj
 0001:000277e0       ??1_TaskProcThunk@details@Concurrency@@QEAA@XZ 00000001400287e0 f i test.obj
 0001:00027810       ??1_TaskWorkItemRAIILogger@details@Concurrency@@QEAA@XZ 0000000140028810 f i test.obj
 0001:00027850       ??1_Task_impl_base@details@Concurrency@@UEAA@XZ 0000000140028850 f i test.obj
 0001:00027950       ??1cancellation_token@Concurrency@@QEAA@XZ 0000000140028950 f i test.obj
 0001:00027990       ??1condition_variable@std@@QEAA@XZ 0000000140028990 f i test.obj
 0001:000279d0       ??1error_category@std@@UEAA@XZ 00000001400289d0 f i test.obj
 0001:00027a00       ??1exception_ptr@std@@QEAA@XZ 0000000140028a00 f i test.obj
 0001:00027a40       ??1future_error@std@@UEAA@XZ 0000000140028a40 f i test.obj
 0001:00027a70       ??1invalid_operation@Concurrency@@UEAA@XZ 0000000140028a70 f i test.obj
 0001:00027aa0       ??1logic_error@std@@UEAA@XZ 0000000140028aa0 f i test.obj
 0001:00027ad0       ??1mutex@std@@QEAA@XZ      0000000140028ad0 f i test.obj
 0001:00027b00       ??1runtime_error@std@@UEAA@XZ 0000000140028b00 f i test.obj
 0001:00027b30       ??1scheduler_ptr@Concurrency@@QEAA@XZ 0000000140028b30 f i test.obj
 0001:00027b60       ??1system_error@std@@UEAA@XZ 0000000140028b60 f i test.obj
 0001:00027b90       ??1task_continuation_context@Concurrency@@QEAA@XZ 0000000140028b90 f i test.obj
 0001:00027bc0       ??1task_options@Concurrency@@QEAA@XZ 0000000140028bc0 f i test.obj
 0001:00027c30       ??4?$atomic@J@std@@QEAAJJ@Z 0000000140028c30 f i test.obj
 0001:00027c80       ??4?$shared_ptr@U?$_Task_impl@E@details@Concurrency@@@std@@QEAAAEAV01@$$QEAV01@@Z 0000000140028c80 f i test.obj
 0001:00027cf0       ??4?$shared_ptr@U_ExceptionHolder@details@Concurrency@@@std@@QEAAAEAV01@AEBV01@@Z 0000000140028cf0 f i test.obj
 0001:00027d60       ??4?$task@E@Concurrency@@QEAAAEAV01@$$QEAV01@@Z 0000000140028d60 f i test.obj
 0001:00027dc0       ??4?$task@X@Concurrency@@QEAAAEAV01@$$QEAV01@@Z 0000000140028dc0 f i test.obj
 0001:00027e20       ??4?$vector@PEAXV?$allocator@PEAX@std@@@std@@QEAAAEAV01@AEBV01@@Z 0000000140028e20 f i test.obj
 0001:00027ee0       ??4_TaskCreationCallstack@details@Concurrency@@QEAAAEAV012@AEBV012@@Z 0000000140028ee0 f i test.obj
 0001:00027f40       ??4exception_ptr@std@@QEAAAEAV01@AEBV01@@Z 0000000140028f40 f i test.obj
 0001:00027f90       ??8_ContextCallback@details@Concurrency@@QEBA_NAEBV012@@Z 0000000140028f90 f i test.obj
 0001:00028000       ??8error_category@std@@QEBA_NAEBV01@@Z 0000000140029000 f i test.obj
 0001:00028090       ??8std@@YA_NAEBVerror_condition@0@0@Z 0000000140029090 f i test.obj
 0001:00028140       ??8std@@YA_NAEBVexception_ptr@0@$$T@Z 0000000140029140 f i test.obj
 0001:000281a0       ??9std@@YA_NAEBVexception_ptr@0@$$T@Z 00000001400291a0 f i test.obj
 0001:00028210       ??A?$vector@PEAXV?$allocator@PEAX@std@@@std@@QEAAAEAPEAX_K@Z 0000000140029210 f i test.obj
 0001:00028300       ??B?$atomic@J@std@@QEBAJXZ 0000000140029300 f i test.obj
 0001:00028340       ??B?$function@$$A6AXXZ@std@@QEBA_NXZ 0000000140029340 f i test.obj
 0001:000283a0       ??B?$shared_ptr@U?$_Task_impl@E@details@Concurrency@@@std@@QEBA_NXZ 00000001400293a0 f i test.obj
 0001:00028400       ??B?$shared_ptr@U_ExceptionHolder@details@Concurrency@@@std@@QEBA_NXZ 0000000140029400 f i test.obj
 0001:00028460       ??B?$shared_ptr@Uscheduler_interface@Concurrency@@@std@@QEBA_NXZ 0000000140029460 f i test.obj
 0001:000284c0       ??Bexception_ptr@std@@QEBA_NXZ 00000001400294c0 f i test.obj
 0001:00028500       ??Bscheduler_ptr@Concurrency@@QEBA_NXZ 0000000140029500 f i test.obj
 0001:00028560       ??C?$unique_ptr@U_TaskProcHandle@details@Concurrency@@U?$default_delete@U_TaskProcHandle@details@Concurrency@@@std@@@std@@QEBAPEAU_TaskProcHandle@details@Concurrency@@XZ 0000000140029560 f i test.obj
 0001:000285a0       ??C?$unique_ptr@V_PPLTaskChore@_DefaultPPLTaskScheduler@details@Concurrency@@U?$default_delete@V_PPLTaskChore@_DefaultPPLTaskScheduler@details@Concurrency@@@std@@@std@@QEBAPEAV_PPLTaskChore@_DefaultPPLTaskScheduler@details@Concurrency@@XZ 00000001400295a0 f i test.obj
 0001:000285e0       ??Cscheduler_ptr@Concurrency@@QEBAPEAUscheduler_interface@1@XZ 00000001400295e0 f i test.obj
 0001:00028620       ??R<lambda_1>@?1???$?0V?$_Fake_no_copy_callable_adapter@AEAP6AHPEAXI0@ZAEAPEAXW4IspSoftAeProcessType@@PEAUIspSoftAeInImage@@@std@@@?$_Task_async_state@H@std@@QEAA@$$QEAV?$_Fake_no_copy_callable_adapter@AEAP6AHPEAXI0@ZAEAPEAXW4IspSoftAeProcessType@@PEAUIspSoftAeInImage@@@2@@Z@QEBA@XZ 0000000140029620 f i test.obj
 0001:00028660       ??R<lambda_1>@?1??_GetStaticAmbientSchedulerRef@details@Concurrency@@YAAEAV?$shared_ptr@Uscheduler_interface@Concurrency@@@std@@XZ@QEBA@XZ 0000000140029660 f i test.obj
 0001:000286a0       ??R<lambda_1>@?1??_MakeVoidToUnitFunc@details@Concurrency@@YA?AV?$function@$$A6AEXZ@std@@AEBV?$function@$$A6AXXZ@5@@Z@QEBAEXZ 00000001400296a0 f i test.obj
 0001:000286e0       ??R<lambda_1>@?1??_RegisterCancellation@_Task_impl_base@details@Concurrency@@QEAAXV?$weak_ptr@U_Task_impl_base@details@Concurrency@@@std@@@Z@QEBA@XZ 00000001400296e0 f i test.obj
 0001:000287b0       ??R<lambda_1>@?4??_ScheduleContinuationTask@_Task_impl_base@details@Concurrency@@QEAAXPEAU_ContinuationTaskHandleBase@34@@Z@QEBA@XZ 00000001400297b0 f i test.obj
 0001:00028970       ??R<lambda_1>@?7???R0?4??_ScheduleContinuationTask@_Task_impl_base@details@Concurrency@@QEAAXPEAU_ContinuationTaskHandleBase@34@@Z@QEBA@XZ@QEBA@XZ 0000000140029970 f i test.obj
 0001:000289d0       ??R<lambda_1>@?BE@??_DeregisterCallback@_CancellationTokenState@details@Concurrency@@QEAAXPEAV_CancellationTokenRegistration@34@@Z@QEBA@XZ 00000001400299d0 f i test.obj
 0001:00028a10       ??R<lambda_1>@?CC@??_CancelAndRunContinuations@?$_Task_impl@E@details@Concurrency@@UEAA_N_N00AEBV?$shared_ptr@U_ExceptionHolder@details@Concurrency@@@std@@@Z@QEBA@XZ 0000000140029a10 f i test.obj
 0001:00028a50       ??R?$_Fake_no_copy_callable_adapter@AEAP6AHPEAXI0@ZAEAPEAXW4IspSoftAeProcessType@@PEAUIspSoftAeInImage@@@std@@QEAA@XZ 0000000140029a50 f i test.obj
 0001:00028a90       ??R?$_Func_class@E$$V@std@@QEBAEXZ 0000000140029a90 f i test.obj
 0001:00028af0       ??R?$_Func_class@H$$V@std@@QEBAHXZ 0000000140029af0 f i test.obj
 0001:00028b50       ??R?$_Func_class@X$$V@std@@QEBAXXZ 0000000140029b50 f i test.obj
 0001:00028bb0       ??R?$default_delete@U_TaskProcHandle@details@Concurrency@@@std@@QEBAXPEAU_TaskProcHandle@details@Concurrency@@@Z 0000000140029bb0 f i test.obj
 0001:00028c30       ??R?$default_delete@V_PPLTaskChore@_DefaultPPLTaskScheduler@details@Concurrency@@@std@@QEBAXPEAV_PPLTaskChore@_DefaultPPLTaskScheduler@details@Concurrency@@@Z 0000000140029c30 f i test.obj
 0001:00028ca0       ??Ustd@@YA?AW4launch@0@W410@0@Z 0000000140029ca0 f i test.obj
 0001:00028ce0       ??_D?$basic_ifstream@DU?$char_traits@D@std@@@std@@QEAAXXZ 0000000140029ce0 f i test.obj
 0001:00028d28       ??_E?$basic_ifstream@DU?$char_traits@D@std@@@std@@$4PPPPPPPM@A@EAAPEAXI@Z 0000000140029d28 f i test.obj
 0001:00028d40       ??_E?$_Associated_state@H@std@@UEAAPEAXI@Z 0000000140029d40 f i test.obj
 0001:00028d40       ??_G?$_Associated_state@H@std@@UEAAPEAXI@Z 0000000140029d40 f i test.obj
 0001:00028da0       ??_E?$_CancellationTokenCallback@V<lambda_1>@?1??_RegisterCancellation@_Task_impl_base@details@Concurrency@@QEAAXV?$weak_ptr@U_Task_impl_base@details@Concurrency@@@std@@@Z@@details@Concurrency@@UEAAPEAXI@Z 0000000140029da0 f i test.obj
 0001:00028da0       ??_G?$_CancellationTokenCallback@V<lambda_1>@?1??_RegisterCancellation@_Task_impl_base@details@Concurrency@@QEAAXV?$weak_ptr@U_Task_impl_base@details@Concurrency@@@std@@@Z@@details@Concurrency@@UEAAPEAXI@Z 0000000140029da0 f i test.obj
 0001:00028e00       ??_E?$_Deferred_async_state@H@std@@UEAAPEAXI@Z 0000000140029e00 f i test.obj
 0001:00028e00       ??_G?$_Deferred_async_state@H@std@@UEAAPEAXI@Z 0000000140029e00 f i test.obj
 0001:00028e60       ??_G?$_Func_impl_no_alloc@V<lambda_1>@?1??_MakeVoidToUnitFunc@details@Concurrency@@YA?AV?$function@$$A6AEXZ@std@@AEBV?$function@$$A6AXXZ@6@@Z@E$$V@std@@QEAAPEAXI@Z 0000000140029e60 f i test.obj
 0001:00028ec0       ??_G?$_Func_impl_no_alloc@V<lambda_1>@?7???R1?4??_ScheduleContinuationTask@_Task_impl_base@details@Concurrency@@QEAAXPEAU_ContinuationTaskHandleBase@45@@Z@QEBA@XZ@X$$V@std@@QEAAPEAXI@Z 0000000140029ec0 f i test.obj
 0001:00028f20       ??_E?$_InitialTaskHandle@XV<lambda_1>@?1???$?0V?$_Fake_no_copy_callable_adapter@AEAP6AHPEAXI0@ZAEAPEAXW4IspSoftAeProcessType@@PEAUIspSoftAeInImage@@@std@@@?$_Task_async_state@H@std@@QEAA@$$QEAV?$_Fake_no_copy_callable_adapter@AEAP6AHPEAXI0@ZAEAPEAXW4IspSoftAeProcessType@@PEAUIspSoftAeInImage@@@3@@Z@U_TypeSelectorNoAsync@details@Concurrency@@@?$task@E@Concurrency@@UEAAPEAXI@Z 0000000140029f20 f i test.obj
 0001:00028f20       ??_G?$_InitialTaskHandle@XV<lambda_1>@?1???$?0V?$_Fake_no_copy_callable_adapter@AEAP6AHPEAXI0@ZAEAPEAXW4IspSoftAeProcessType@@PEAUIspSoftAeInImage@@@std@@@?$_Task_async_state@H@std@@QEAA@$$QEAV?$_Fake_no_copy_callable_adapter@AEAP6AHPEAXI0@ZAEAPEAXW4IspSoftAeProcessType@@PEAUIspSoftAeInImage@@@3@@Z@U_TypeSelectorNoAsync@details@Concurrency@@@?$task@E@Concurrency@@UEAAPEAXI@Z 0000000140029f20 f i test.obj
 0001:00028f80       ??_E?$_PPLTaskHandle@EU?$_InitialTaskHandle@XV<lambda_1>@?1???$?0V?$_Fake_no_copy_callable_adapter@AEAP6AHPEAXI0@ZAEAPEAXW4IspSoftAeProcessType@@PEAUIspSoftAeInImage@@@std@@@?$_Task_async_state@H@std@@QEAA@$$QEAV?$_Fake_no_copy_callable_adapter@AEAP6AHPEAXI0@ZAEAPEAXW4IspSoftAeProcessType@@PEAUIspSoftAeInImage@@@3@@Z@U_TypeSelectorNoAsync@details@Concurrency@@@?$task@E@Concurrency@@U_TaskProcHandle@details@3@@details@Concurrency@@UEAAPEAXI@Z 0000000140029f80 f i test.obj
 0001:00028f80       ??_G?$_PPLTaskHandle@EU?$_InitialTaskHandle@XV<lambda_1>@?1???$?0V?$_Fake_no_copy_callable_adapter@AEAP6AHPEAXI0@ZAEAPEAXW4IspSoftAeProcessType@@PEAUIspSoftAeInImage@@@std@@@?$_Task_async_state@H@std@@QEAA@$$QEAV?$_Fake_no_copy_callable_adapter@AEAP6AHPEAXI0@ZAEAPEAXW4IspSoftAeProcessType@@PEAUIspSoftAeInImage@@@3@@Z@U_TypeSelectorNoAsync@details@Concurrency@@@?$task@E@Concurrency@@U_TaskProcHandle@details@3@@details@Concurrency@@UEAAPEAXI@Z 0000000140029f80 f i test.obj
 0001:00028fe0       ??_E?$_Packaged_state@$$A6AHXZ@std@@UEAAPEAXI@Z 0000000140029fe0 f i test.obj
 0001:00028fe0       ??_G?$_Packaged_state@$$A6AHXZ@std@@UEAAPEAXI@Z 0000000140029fe0 f i test.obj
 0001:00029040       ??_E?$_Ref_count_obj2@U?$_Task_impl@E@details@Concurrency@@@std@@UEAAPEAXI@Z 000000014002a040 f i test.obj
 0001:00029040       ??_G?$_Ref_count_obj2@U?$_Task_impl@E@details@Concurrency@@@std@@UEAAPEAXI@Z 000000014002a040 f i test.obj
 0001:000290a0       ??_E?$_Ref_count_obj2@U_ExceptionHolder@details@Concurrency@@@std@@UEAAPEAXI@Z 000000014002a0a0 f i test.obj
 0001:000290a0       ??_G?$_Ref_count_obj2@U_ExceptionHolder@details@Concurrency@@@std@@UEAAPEAXI@Z 000000014002a0a0 f i test.obj
 0001:00029100       ??_E?$_Task_async_state@H@std@@UEAAPEAXI@Z 000000014002a100 f i test.obj
 0001:00029100       ??_G?$_Task_async_state@H@std@@UEAAPEAXI@Z 000000014002a100 f i test.obj
 0001:00029160       ??_E?$_Task_impl@E@details@Concurrency@@UEAAPEAXI@Z 000000014002a160 f i test.obj
 0001:00029160       ??_G?$_Task_impl@E@details@Concurrency@@UEAAPEAXI@Z 000000014002a160 f i test.obj
 0001:000291c0       ??_E?$basic_ifstream@DU?$char_traits@D@std@@@std@@UEAAPEAXI@Z 000000014002a1c0 f i test.obj
 0001:000291c0       ??_G?$basic_ifstream@DU?$char_traits@D@std@@@std@@UEAAPEAXI@Z 000000014002a1c0 f i test.obj
 0001:00029230       ??_E_CancellationTokenRegistration@details@Concurrency@@MEAAPEAXI@Z 000000014002a230 f i test.obj
 0001:00029230       ??_G_CancellationTokenRegistration@details@Concurrency@@MEAAPEAXI@Z 000000014002a230 f i test.obj
 0001:00029290       ??_G_ExceptionHolder@details@Concurrency@@QEAAPEAXI@Z 000000014002a290 f i test.obj
 0001:000292f0       ??_E_Future_error_category2@std@@UEAAPEAXI@Z 000000014002a2f0 f i test.obj
 0001:000292f0       ??_G_Future_error_category2@std@@UEAAPEAXI@Z 000000014002a2f0 f i test.obj
 0001:00029350       ??_E_Generic_error_category@std@@UEAAPEAXI@Z 000000014002a350 f i test.obj
 0001:00029350       ??_G_Generic_error_category@std@@UEAAPEAXI@Z 000000014002a350 f i test.obj
 0001:000293b0       ??_G_PPLTaskChore@_DefaultPPLTaskScheduler@details@Concurrency@@QEAAPEAXI@Z 000000014002a3b0 f i test.obj
 0001:00029410       ??_E_RefCounter@details@Concurrency@@UEAAPEAXI@Z 000000014002a410 f i test.obj
 0001:00029410       ??_G_RefCounter@details@Concurrency@@UEAAPEAXI@Z 000000014002a410 f i test.obj
 0001:00029470       ??_E_System_error@std@@UEAAPEAXI@Z 000000014002a470 f i test.obj
 0001:00029470       ??_G_System_error@std@@UEAAPEAXI@Z 000000014002a470 f i test.obj
 0001:000294d0       ??_E_TaskProcHandle@details@Concurrency@@UEAAPEAXI@Z 000000014002a4d0 f i test.obj
 0001:000294d0       ??_G_TaskProcHandle@details@Concurrency@@UEAAPEAXI@Z 000000014002a4d0 f i test.obj
 0001:00029530       ??_G_TaskProcThunk@details@Concurrency@@QEAAPEAXI@Z 000000014002a530 f i test.obj
 0001:00029590       ??_E_Task_impl_base@details@Concurrency@@UEAAPEAXI@Z 000000014002a590 f i test.obj
 0001:00029590       ??_G_Task_impl_base@details@Concurrency@@UEAAPEAXI@Z 000000014002a590 f i test.obj
 0001:000295f0       ??_Efuture_error@std@@UEAAPEAXI@Z 000000014002a5f0 f i test.obj
 0001:000295f0       ??_Gfuture_error@std@@UEAAPEAXI@Z 000000014002a5f0 f i test.obj
 0001:00029650       ??_Einvalid_operation@Concurrency@@UEAAPEAXI@Z 000000014002a650 f i test.obj
 0001:00029650       ??_Ginvalid_operation@Concurrency@@UEAAPEAXI@Z 000000014002a650 f i test.obj
 0001:000296b0       ??_Elogic_error@std@@UEAAPEAXI@Z 000000014002a6b0 f i test.obj
 0001:000296b0       ??_Glogic_error@std@@UEAAPEAXI@Z 000000014002a6b0 f i test.obj
 0001:00029710       ??_Eruntime_error@std@@UEAAPEAXI@Z 000000014002a710 f i test.obj
 0001:00029710       ??_Gruntime_error@std@@UEAAPEAXI@Z 000000014002a710 f i test.obj
 0001:00029770       ??_Esystem_error@std@@UEAAPEAXI@Z 000000014002a770 f i test.obj
 0001:00029770       ??_Gsystem_error@std@@UEAAPEAXI@Z 000000014002a770 f i test.obj
 0001:000297d0       ?DispathAeMessage@@YA_NIPEAX@Z 000000014002a7d0 f   test.obj
 0001:000298c0       ?DispathAtfMessage@@YA_NIPEAX@Z 000000014002a8c0 f   test.obj
 0001:000299b0       ?DispathAwbMessage@@YA_NIPEAX@Z 000000014002a9b0 f   test.obj
 0001:00029aa0       ?DispathIspMessage@@YA_NIPEAX@Z 000000014002aaa0 f   test.obj
 0001:00029bf0       ?Set@?$_ResultHolder@E@details@Concurrency@@QEAAXAEBE@Z 000000014002abf0 f i test.obj
 0001:00029c40       ?WaitUntilStateChangedTo@_TaskCollectionBaseImpl@details@Concurrency@@IEAAXW4_TaskCollectionState@123@@Z 000000014002ac40 f i test.obj
 0001:00029d10       ?_Address_subscript@?$_Deque_val@U?$_Deque_simple_types@UIspFrameData@@@std@@@std@@QEAAPEAUIspFrameData@@_K@Z 000000014002ad10 f i test.obj
 0001:00029d80       ?_Already_has_stored_result@?$_Associated_state@H@std@@QEBA_NXZ 000000014002ad80 f i test.obj
 0001:00029dc0       ?_Already_retrieved@?$_Associated_state@H@std@@QEBA_NXZ 000000014002adc0 f i test.obj
 0001:00029e00       ?_Assign@cancellation_token@Concurrency@@AEAAXPEAV_CancellationTokenState@details@2@@Z 000000014002ae00 f i test.obj
 0001:00029e60       ?_Bridge@_TaskProcThunk@details@Concurrency@@SAXPEAX@Z 000000014002ae60 f i test.obj
 0001:00029f10       ?_Buy_nonzero@?$vector@PEAXV?$allocator@PEAX@std@@@std@@AEAAX_K@Z 000000014002af10 f i test.obj
 0001:00029f70       ?_Buy_raw@?$vector@PEAXV?$allocator@PEAX@std@@@std@@AEAAX_K@Z 000000014002af70 f i test.obj
 0001:0002a030       ?_Calculate_growth@?$vector@PEAXV?$allocator@PEAX@std@@@std@@AEBA_K_K@Z 000000014002b030 f i test.obj
 0001:0002a0e0       ?_CallInContext@_ContextCallback@details@Concurrency@@QEBAXV?$function@$$A6AXXZ@std@@@Z 000000014002b0e0 f i test.obj
 0001:0002a160       ?_Call_immediate@?$_Packaged_state@$$A6AHXZ@std@@QEAAXXZ 000000014002b160 f i test.obj
 0001:0002a1d0       ?_Callback@_PPLTaskChore@_DefaultPPLTaskScheduler@details@Concurrency@@CAXPEAX@Z 000000014002b1d0 f i test.obj
 0001:0002a2c0       ?_Cancel@_TaskCollectionBaseImpl@details@Concurrency@@QEAAXXZ 000000014002b2c0 f i test.obj
 0001:0002a2f0       ?_Cancel@_Task_impl_base@details@Concurrency@@QEAA_N_N@Z 000000014002b2f0 f i test.obj
 0001:0002a360       ?_CancelAndRunContinuations@?$_Task_impl@E@details@Concurrency@@UEAA_N_N00AEBV?$shared_ptr@U_ExceptionHolder@details@Concurrency@@@std@@@Z 000000014002b360 f i test.obj
 0001:0002a850       ?_CancelWithException@_Task_impl_base@details@Concurrency@@QEAA_NAEBVexception_ptr@std@@@Z 000000014002b850 f i test.obj
 0001:0002a980       ?_CancelWithExceptionHolder@_Task_impl_base@details@Concurrency@@QEAA_NAEBV?$shared_ptr@U_ExceptionHolder@details@Concurrency@@@std@@_N@Z 000000014002b980 f i test.obj
 0001:0002a9e0       ?_CaptureCurrent@_ContextCallback@details@Concurrency@@SA?AV123@XZ 000000014002b9e0 f i test.obj
 0001:0002aa80       ?_CaptureMultiFramesCallstack@_TaskCreationCallstack@details@Concurrency@@SA?AV123@PEAX_K@Z 000000014002ba80 f i test.obj
 0001:0002aba0       ?_Change_array@?$vector@PEAXV?$allocator@PEAX@std@@@std@@AEAAXQEAPEAX_K1@Z 000000014002bba0 f i test.obj
 0001:0002acc0       ?_Clear@cancellation_token@Concurrency@@AEAAXXZ 000000014002bcc0 f i test.obj
 0001:0002ad20       ?_Clear_and_reserve_geometric@?$vector@PEAXV?$allocator@PEAX@std@@@std@@AEAAX_K@Z 000000014002bd20 f i test.obj
 0001:0002ae50       ?_Complete@_TaskCollectionBaseImpl@details@Concurrency@@QEAAXXZ 000000014002be50 f i test.obj
 0001:0002ae90       ?_Copy@?$_Func_impl_no_alloc@V<lambda_1>@?1???$?0V?$_Fake_no_copy_callable_adapter@AEAP6AHPEAXI0@ZAEAPEAXW4IspSoftAeProcessType@@PEAUIspSoftAeInImage@@@std@@@?$_Task_async_state@H@std@@QEAA@$$QEAV?$_Fake_no_copy_callable_adapter@AEAP6AHPEAXI0@ZAEAPEAXW4IspSoftAeProcessType@@PEAUIspSoftAeInImage@@@3@@Z@X$$V@std@@EEBAPEAV?$_Func_base@X$$V@2@PEAX@Z 000000014002be90 f i test.obj
 0001:0002aef0       ?_Copy@?$_Func_impl_no_alloc@V<lambda_1>@?1??_MakeVoidToUnitFunc@details@Concurrency@@YA?AV?$function@$$A6AEXZ@std@@AEBV?$function@$$A6AXXZ@6@@Z@E$$V@std@@EEBAPEAV?$_Func_base@E$$V@2@PEAX@Z 000000014002bef0 f i test.obj
 0001:0002af40       ?_Copy@?$_Func_impl_no_alloc@V<lambda_1>@?4??_ScheduleContinuationTask@_Task_impl_base@details@Concurrency@@QEAAXPEAU_ContinuationTaskHandleBase@45@@Z@X$$V@std@@EEBAPEAV?$_Func_base@X$$V@2@PEAX@Z 000000014002bf40 f i test.obj
 0001:0002afa0       ?_Copy@?$_Func_impl_no_alloc@V<lambda_1>@?7???R1?4??_ScheduleContinuationTask@_Task_impl_base@details@Concurrency@@QEAAXPEAU_ContinuationTaskHandleBase@45@@Z@QEBA@XZ@X$$V@std@@EEBAPEAV?$_Func_base@X$$V@2@PEAX@Z 000000014002bfa0 f i test.obj
 0001:0002b000       ?_Copy@?$_Func_impl_no_alloc@V<lambda_1>@?CC@??_CancelAndRunContinuations@?$_Task_impl@E@details@Concurrency@@UEAA_N_N00AEBV?$shared_ptr@U_ExceptionHolder@details@Concurrency@@@std@@@Z@X$$V@std@@EEBAPEAV?$_Func_base@X$$V@2@PEAX@Z 000000014002c000 f i test.obj
 0001:0002b060       ?_Copy@?$_Func_impl_no_alloc@V?$_Fake_no_copy_callable_adapter@AEAP6AHPEAXI0@ZAEAPEAXW4IspSoftAeProcessType@@PEAUIspSoftAeInImage@@@std@@H$$V@std@@EEBAPEAV?$_Func_base@H$$V@2@PEAX@Z 000000014002c060 f i test.obj
 0001:0002b0c0       ?_CreateImpl@?$task@E@Concurrency@@QEAAXPEAV_CancellationTokenState@details@2@Uscheduler_ptr@2@@Z 000000014002c0c0 f i test.obj
 0001:0002b210       ?_Decref@?$_Ptr_base@U?$_Task_impl@E@details@Concurrency@@@std@@IEAAXXZ 000000014002c210 f i test.obj
 0001:0002b260       ?_Decref@?$_Ptr_base@U_ExceptionHolder@details@Concurrency@@@std@@IEAAXXZ 000000014002c260 f i test.obj
 0001:0002b2b0       ?_Decref@?$_Ptr_base@U_Task_impl_base@details@Concurrency@@@std@@IEAAXXZ 000000014002c2b0 f i test.obj
 0001:0002b300       ?_Decref@?$_Ptr_base@Uscheduler_interface@Concurrency@@@std@@IEAAXXZ 000000014002c300 f i test.obj
 0001:0002b350       ?_Decref@_Ref_count_base@std@@QEAAXXZ 000000014002c350 f i test.obj
 0001:0002b3c0       ?_Decwref@?$_Ptr_base@U_Task_impl_base@details@Concurrency@@@std@@IEAAXXZ 000000014002c3c0 f i test.obj
 0001:0002b410       ?_Decwref@_Ref_count_base@std@@QEAAXXZ 000000014002c410 f i test.obj
 0001:0002b470       ?_Delete_this@?$_Associated_state@H@std@@AEAAXXZ 000000014002c470 f i test.obj
 0001:0002b520       ?_Delete_this@?$_Func_impl_no_alloc@V<lambda_1>@?1???$?0V?$_Fake_no_copy_callable_adapter@AEAP6AHPEAXI0@ZAEAPEAXW4IspSoftAeProcessType@@PEAUIspSoftAeInImage@@@std@@@?$_Task_async_state@H@std@@QEAA@$$QEAV?$_Fake_no_copy_callable_adapter@AEAP6AHPEAXI0@ZAEAPEAXW4IspSoftAeProcessType@@PEAUIspSoftAeInImage@@@3@@Z@X$$V@std@@EEAAX_N@Z 000000014002c520 f i test.obj
 0001:0002b570       ?_Delete_this@?$_Func_impl_no_alloc@V<lambda_1>@?1??_MakeVoidToUnitFunc@details@Concurrency@@YA?AV?$function@$$A6AEXZ@std@@AEBV?$function@$$A6AXXZ@6@@Z@E$$V@std@@EEAAX_N@Z 000000014002c570 f i test.obj
 0001:0002b5d0       ?_Delete_this@?$_Func_impl_no_alloc@V<lambda_1>@?4??_ScheduleContinuationTask@_Task_impl_base@details@Concurrency@@QEAAXPEAU_ContinuationTaskHandleBase@45@@Z@X$$V@std@@EEAAX_N@Z 000000014002c5d0 f i test.obj
 0001:0002b620       ?_Delete_this@?$_Func_impl_no_alloc@V<lambda_1>@?7???R1?4??_ScheduleContinuationTask@_Task_impl_base@details@Concurrency@@QEAAXPEAU_ContinuationTaskHandleBase@45@@Z@QEBA@XZ@X$$V@std@@EEAAX_N@Z 000000014002c620 f i test.obj
 0001:0002b680       ?_Delete_this@?$_Func_impl_no_alloc@V<lambda_1>@?CC@??_CancelAndRunContinuations@?$_Task_impl@E@details@Concurrency@@UEAA_N_N00AEBV?$shared_ptr@U_ExceptionHolder@details@Concurrency@@@std@@@Z@X$$V@std@@EEAAX_N@Z 000000014002c680 f i test.obj
 0001:0002b6d0       ?_Delete_this@?$_Func_impl_no_alloc@V?$_Fake_no_copy_callable_adapter@AEAP6AHPEAXI0@ZAEAPEAXW4IspSoftAeProcessType@@PEAUIspSoftAeInImage@@@std@@H$$V@std@@EEAAX_N@Z 000000014002c6d0 f i test.obj
 0001:0002b720       ?_Delete_this@?$_Ref_count_obj2@U?$_Task_impl@E@details@Concurrency@@@std@@EEAAXXZ 000000014002c720 f i test.obj
 0001:0002b790       ?_Delete_this@?$_Ref_count_obj2@U_ExceptionHolder@details@Concurrency@@@std@@EEAAXXZ 000000014002c790 f i test.obj
 0001:0002b800       ?_DeregisterCallback@_CancellationTokenState@details@Concurrency@@QEAAXPEAV_CancellationTokenRegistration@23@@Z 000000014002c800 f i test.obj
 0001:0002ba90       ?_DeregisterCancellation@_Task_impl_base@details@Concurrency@@QEAAXXZ 000000014002ca90 f i test.obj
 0001:0002bb10       ?_Destroy@?$_Ref_count_obj2@U?$_Task_impl@E@details@Concurrency@@@std@@EEAAXXZ 000000014002cb10 f i test.obj
 0001:0002bb50       ?_Destroy@?$_Ref_count_obj2@U_ExceptionHolder@details@Concurrency@@@std@@EEAAXXZ 000000014002cb50 f i test.obj
 0001:0002bb90       ?_Destroy@_RefCounter@details@Concurrency@@MEAAXXZ 000000014002cb90 f i test.obj
 0001:0002bc00       ?_Do_call@?$_Func_impl_no_alloc@V<lambda_1>@?1???$?0V?$_Fake_no_copy_callable_adapter@AEAP6AHPEAXI0@ZAEAPEAXW4IspSoftAeProcessType@@PEAUIspSoftAeInImage@@@std@@@?$_Task_async_state@H@std@@QEAA@$$QEAV?$_Fake_no_copy_callable_adapter@AEAP6AHPEAXI0@ZAEAPEAXW4IspSoftAeProcessType@@PEAUIspSoftAeInImage@@@3@@Z@X$$V@std@@EEAAXXZ 000000014002cc00 f i test.obj
 0001:0002bc40       ?_Do_call@?$_Func_impl_no_alloc@V<lambda_1>@?1??_MakeVoidToUnitFunc@details@Concurrency@@YA?AV?$function@$$A6AEXZ@std@@AEBV?$function@$$A6AXXZ@6@@Z@E$$V@std@@EEAAEXZ 000000014002cc40 f i test.obj
 0001:0002bc80       ?_Do_call@?$_Func_impl_no_alloc@V<lambda_1>@?4??_ScheduleContinuationTask@_Task_impl_base@details@Concurrency@@QEAAXPEAU_ContinuationTaskHandleBase@45@@Z@X$$V@std@@EEAAXXZ 000000014002cc80 f i test.obj
 0001:0002bcc0       ?_Do_call@?$_Func_impl_no_alloc@V<lambda_1>@?7???R1?4??_ScheduleContinuationTask@_Task_impl_base@details@Concurrency@@QEAAXPEAU_ContinuationTaskHandleBase@45@@Z@QEBA@XZ@X$$V@std@@EEAAXXZ 000000014002ccc0 f i test.obj
 0001:0002bd00       ?_Do_call@?$_Func_impl_no_alloc@V<lambda_1>@?CC@??_CancelAndRunContinuations@?$_Task_impl@E@details@Concurrency@@UEAA_N_N00AEBV?$shared_ptr@U_ExceptionHolder@details@Concurrency@@@std@@@Z@X$$V@std@@EEAAXXZ 000000014002cd00 f i test.obj
 0001:0002bd40       ?_Do_call@?$_Func_impl_no_alloc@V?$_Fake_no_copy_callable_adapter@AEAP6AHPEAXI0@ZAEAPEAXW4IspSoftAeProcessType@@PEAUIspSoftAeInImage@@@std@@H$$V@std@@EEAAHXZ 000000014002cd40 f i test.obj
 0001:0002bd80       ?_Do_notify@?$_Associated_state@H@std@@EEAAXPEAV?$unique_lock@Vmutex@std@@@2@_N@Z 000000014002cd80 f i test.obj
 0001:0002be20       ?_Empty@?$_Func_class@E$$V@std@@IEBA_NXZ 000000014002ce20 f i test.obj
 0001:0002be80       ?_Empty@?$_Func_class@H$$V@std@@IEBA_NXZ 000000014002ce80 f i test.obj
 0001:0002bee0       ?_Empty@?$_Func_class@X$$V@std@@IEBA_NXZ 000000014002cee0 f i test.obj
 0001:0002bf40       ?_Exec@?$_CancellationTokenCallback@V<lambda_1>@?1??_RegisterCancellation@_Task_impl_base@details@Concurrency@@QEAAXV?$weak_ptr@U_Task_impl_base@details@Concurrency@@@std@@@Z@@details@Concurrency@@MEAAXXZ 000000014002cf40 f i test.obj
 0001:0002bf80       ?_FinalizeAndRunContinuations@?$_Task_impl@E@details@Concurrency@@QEAAXE@Z 000000014002cf80 f i test.obj
 0001:0002c0f0       ?_Future_error_map@std@@YAPEBDH@Z 000000014002d0f0 f i test.obj
 0001:0002c170       ?_Get@?$_Func_impl_no_alloc@V<lambda_1>@?1???$?0V?$_Fake_no_copy_callable_adapter@AEAP6AHPEAXI0@ZAEAPEAXW4IspSoftAeProcessType@@PEAUIspSoftAeInImage@@@std@@@?$_Task_async_state@H@std@@QEAA@$$QEAV?$_Fake_no_copy_callable_adapter@AEAP6AHPEAXI0@ZAEAPEAXW4IspSoftAeProcessType@@PEAUIspSoftAeInImage@@@3@@Z@X$$V@std@@EEBAPEBXXZ 000000014002d170 f i test.obj
 0001:0002c1b0       ?_Get@?$_Func_impl_no_alloc@V<lambda_1>@?1??_MakeVoidToUnitFunc@details@Concurrency@@YA?AV?$function@$$A6AEXZ@std@@AEBV?$function@$$A6AXXZ@6@@Z@E$$V@std@@EEBAPEBXXZ 000000014002d1b0 f i test.obj
 0001:0002c1f0       ?_Get@?$_Func_impl_no_alloc@V<lambda_1>@?4??_ScheduleContinuationTask@_Task_impl_base@details@Concurrency@@QEAAXPEAU_ContinuationTaskHandleBase@45@@Z@X$$V@std@@EEBAPEBXXZ 000000014002d1f0 f i test.obj
 0001:0002c230       ?_Get@?$_Func_impl_no_alloc@V<lambda_1>@?7???R1?4??_ScheduleContinuationTask@_Task_impl_base@details@Concurrency@@QEAAXPEAU_ContinuationTaskHandleBase@45@@Z@QEBA@XZ@X$$V@std@@EEBAPEBXXZ 000000014002d230 f i test.obj
 0001:0002c270       ?_Get@?$_Func_impl_no_alloc@V<lambda_1>@?CC@??_CancelAndRunContinuations@?$_Task_impl@E@details@Concurrency@@UEAA_N_N00AEBV?$shared_ptr@U_ExceptionHolder@details@Concurrency@@@std@@@Z@X$$V@std@@EEBAPEBXXZ 000000014002d270 f i test.obj
 0001:0002c2b0       ?_Get@?$_Func_impl_no_alloc@V?$_Fake_no_copy_callable_adapter@AEAP6AHPEAXI0@ZAEAPEAXW4IspSoftAeProcessType@@PEAUIspSoftAeInImage@@@std@@H$$V@std@@EEBAPEBXXZ 000000014002d2b0 f i test.obj
 0001:0002c2f0       ?_GetExceptionHolder@_Task_impl_base@details@Concurrency@@QEAAAEBV?$shared_ptr@U_ExceptionHolder@details@Concurrency@@@std@@XZ 000000014002d2f0 f i test.obj
 0001:0002c380       ?_GetImpl@?$task@E@Concurrency@@QEBAAEBV?$shared_ptr@U?$_Task_impl@E@details@Concurrency@@@std@@XZ 000000014002d380 f i test.obj
 0001:0002c3b0       ?_GetImplValue@cancellation_token@Concurrency@@QEBAPEAV_CancellationTokenState@details@2@XZ 000000014002d3b0 f i test.obj
 0001:0002c410       ?_GetStaticAmbientSchedulerRef@details@Concurrency@@YAAEAV?$shared_ptr@Uscheduler_interface@Concurrency@@@std@@XZ 000000014002d410 f i test.obj
 0001:0002c470       ?_GetStaticAmbientSchedulerStorage@details@Concurrency@@YAPEAV?$shared_ptr@Uscheduler_interface@Concurrency@@@std@@XZ 000000014002d470 f i test.obj
 0001:0002c4f0       ?_GetTaskCreationCallstack@_Task_impl_base@details@Concurrency@@QEAA?AV_TaskCreationCallstack@23@XZ 000000014002d4f0 f i test.obj
 0001:0002c560       ?_Get_data@?$deque@UIspFrameData@@V?$allocator@UIspFrameData@@@std@@@std@@AEAAAEAV?$_Deque_val@U?$_Deque_simple_types@UIspFrameData@@@std@@@2@XZ 000000014002d560 f i test.obj
 0001:0002c590       ?_Get_data@?$deque@UIspFrameData@@V?$allocator@UIspFrameData@@@std@@@std@@AEBAAEBV?$_Deque_val@U?$_Deque_simple_types@UIspFrameData@@@std@@@2@XZ 000000014002d590 f i test.obj
 0001:0002c5c0       ?_Get_deleter@_Ref_count_base@std@@UEBAPEAXAEBVtype_info@@@Z 000000014002d5c0 f i test.obj
 0001:0002c5f0       ?_Get_first@?$_Compressed_pair@U?$default_delete@U_TaskProcHandle@details@Concurrency@@@std@@PEAU_TaskProcHandle@details@Concurrency@@$00@std@@QEAAAEAU?$default_delete@U_TaskProcHandle@details@Concurrency@@@2@XZ 000000014002d5f0 f i test.obj
 0001:0002c620       ?_Get_first@?$_Compressed_pair@U?$default_delete@V_PPLTaskChore@_DefaultPPLTaskScheduler@details@Concurrency@@@std@@PEAV_PPLTaskChore@_DefaultPPLTaskScheduler@details@Concurrency@@$00@std@@QEAAAEAU?$default_delete@V_PPLTaskChore@_DefaultPPLTaskScheduler@details@Concurrency@@@2@XZ 000000014002d620 f i test.obj
 0001:0002c650       ?_Get_first@?$_Compressed_pair@V?$allocator@PEAX@std@@V?$_Vector_val@U?$_Simple_types@PEAX@std@@@2@$00@std@@QEAAAEAV?$allocator@PEAX@2@XZ 000000014002d650 f i test.obj
 0001:0002c680       ?_Get_first@?$_Compressed_pair@V?$allocator@PEAX@std@@V?$_Vector_val@U?$_Simple_types@PEAX@std@@@2@$00@std@@QEBAAEBV?$allocator@PEAX@2@XZ 000000014002d680 f i test.obj
 0001:0002c6b0       ?_Get_first@?$_Compressed_pair@V?$allocator@UIspFrameData@@@std@@V?$_Deque_val@U?$_Deque_simple_types@UIspFrameData@@@std@@@2@$00@std@@QEAAAEAV?$allocator@UIspFrameData@@@2@XZ 000000014002d6b0 f i test.obj
 0001:0002c6e0       ?_Get_first@?$_Compressed_pair@V?$allocator@UIspFrameData@@@std@@V?$_Deque_val@U?$_Deque_simple_types@UIspFrameData@@@std@@@2@$00@std@@QEBAAEBV?$allocator@UIspFrameData@@@2@XZ 000000014002d6e0 f i test.obj
 0001:0002c710       ?_Get_state_for_future@?$_Promise@H@std@@QEAAAEAV?$_State_manager@H@2@XZ 000000014002d710 f i test.obj
 0001:0002c790       ?_Get_value@?$_Associated_state@H@std@@UEAAAEAH_N@Z 000000014002d790 f i test.obj
 0001:0002c980       ?_Get_value@?$_State_manager@H@std@@QEBAAEAHXZ 000000014002d980 f i test.obj
 0001:0002c9f0       ?_Get_value@?$_Task_async_state@H@std@@UEAAAEAH_N@Z 000000014002d9f0 f i test.obj
 0001:0002ca50       ?_Getal@?$deque@UIspFrameData@@V?$allocator@UIspFrameData@@@std@@@std@@AEAAAEAV?$allocator@UIspFrameData@@@2@XZ 000000014002da50 f i test.obj
 0001:0002ca90       ?_Getal@?$deque@UIspFrameData@@V?$allocator@UIspFrameData@@@std@@@std@@AEBAAEBV?$allocator@UIspFrameData@@@2@XZ 000000014002da90 f i test.obj
 0001:0002cad0       ?_Getal@?$vector@PEAXV?$allocator@PEAX@std@@@std@@AEAAAEAV?$allocator@PEAX@2@XZ 000000014002dad0 f i test.obj
 0001:0002cb10       ?_Getal@?$vector@PEAXV?$allocator@PEAX@std@@@std@@AEBAAEBV?$allocator@PEAX@2@XZ 000000014002db10 f i test.obj
 0001:0002cb50       ?_Getblock@?$_Deque_val@U?$_Deque_simple_types@UIspFrameData@@@std@@@std@@QEBA_J_K@Z 000000014002db50 f i test.obj
 0001:0002cba0       ?_Getblock@?$deque@UIspFrameData@@V?$allocator@UIspFrameData@@@std@@@std@@AEBA_J_K@Z 000000014002dba0 f i test.obj
 0001:0002cbf0       ?_Getimpl@?$_Func_class@E$$V@std@@AEBAPEAV?$_Func_base@E$$V@2@XZ 000000014002dbf0 f i test.obj
 0001:0002cc30       ?_Getimpl@?$_Func_class@H$$V@std@@AEBAPEAV?$_Func_base@H$$V@2@XZ 000000014002dc30 f i test.obj
 0001:0002cc70       ?_Getimpl@?$_Func_class@X$$V@std@@AEBAPEAV?$_Func_base@X$$V@2@XZ 000000014002dc70 f i test.obj
 0001:0002ccb0       ?_Growmap@?$deque@UIspFrameData@@V?$allocator@UIspFrameData@@@std@@@std@@AEAAX_K@Z 000000014002dcb0 f i test.obj
 0001:0002d190       ?_HasCapturedContext@_ContextCallback@details@Concurrency@@QEBA_NXZ 000000014002e190 f i test.obj
 0001:0002d230       ?_HasUserException@_Task_impl_base@details@Concurrency@@QEAA_NXZ 000000014002e230 f i test.obj
 0001:0002d270       ?_Has_deferred_function@?$_Associated_state@H@std@@EEBA_NXZ 000000014002e270 f i test.obj
 0001:0002d2a0       ?_Has_deferred_function@?$_Deferred_async_state@H@std@@EEBA_NXZ 000000014002e2a0 f i test.obj
 0001:0002d300       ?_Incref@?$_Ptr_base@U?$_Task_impl@E@details@Concurrency@@@std@@IEBAXXZ 000000014002e300 f i test.obj
 0001:0002d350       ?_Incref@?$_Ptr_base@U_ExceptionHolder@details@Concurrency@@@std@@IEBAXXZ 000000014002e350 f i test.obj
 0001:0002d3a0       ?_Incref@?$_Ptr_base@U_Task_impl_base@details@Concurrency@@@std@@IEBAXXZ 000000014002e3a0 f i test.obj
 0001:0002d3f0       ?_Incref@?$_Ptr_base@Uscheduler_interface@Concurrency@@@std@@IEBAXXZ 000000014002e3f0 f i test.obj
 0001:0002d440       ?_Incref@_Ref_count_base@std@@QEAAXXZ 000000014002e440 f i test.obj
 0001:0002d480       ?_Incref_nz@_Ref_count_base@std@@QEAA_NXZ 000000014002e480 f i test.obj
 0001:0002d500       ?_Incwref@_Ref_count_base@std@@QEAAXXZ 000000014002e500 f i test.obj
 0001:0002d540       ?_Init@?$_InitialTaskHandle@XV<lambda_1>@?1???$?0V?$_Fake_no_copy_callable_adapter@AEAP6AHPEAXI0@ZAEAPEAXW4IspSoftAeProcessType@@PEAUIspSoftAeInImage@@@std@@@?$_Task_async_state@H@std@@QEAA@$$QEAV?$_Fake_no_copy_callable_adapter@AEAP6AHPEAXI0@ZAEAPEAXW4IspSoftAeProcessType@@PEAUIspSoftAeInImage@@@3@@Z@U_TypeSelectorNoAsync@details@Concurrency@@@?$task@E@Concurrency@@QEBAXU_TypeSelectorNoAsync@details@3@@Z 000000014002e540 f i test.obj
 0001:0002d610       ?_Invoke@_CancellationTokenRegistration@details@Concurrency@@AEAAXXZ 000000014002e610 f i test.obj
 0001:0002d780       ?_IsCanceled@_CancellationTokenState@details@Concurrency@@QEBA_NXZ 000000014002e780 f i test.obj
 0001:0002d7e0       ?_IsCanceled@_Task_impl_base@details@Concurrency@@QEAA_NXZ 000000014002e7e0 f i test.obj
 0001:0002d840       ?_IsCompleted@_Task_impl_base@details@Concurrency@@QEAA_NXZ 000000014002e840 f i test.obj
 0001:0002d8a0       ?_IsCreated@_Task_impl_base@details@Concurrency@@QEAA_NXZ 000000014002e8a0 f i test.obj
 0001:0002d900       ?_IsPendingCancel@_Task_impl_base@details@Concurrency@@QEAA_NXZ 000000014002e900 f i test.obj
 0001:0002d960       ?_IsStarted@_Task_impl_base@details@Concurrency@@QEAA_NXZ 000000014002e960 f i test.obj
 0001:0002d9c0       ?_IsValid@_CancellationTokenState@details@Concurrency@@SA_NPEAV123@@Z 000000014002e9c0 f i test.obj
 0001:0002da20       ?_Local@?$_Func_class@E$$V@std@@AEBA_NXZ 000000014002ea20 f i test.obj
 0001:0002da80       ?_Local@?$_Func_class@H$$V@std@@AEBA_NXZ 000000014002ea80 f i test.obj
 0001:0002dae0       ?_Local@?$_Func_class@X$$V@std@@AEBA_NXZ 000000014002eae0 f i test.obj
 0001:0002db40       ?_LogTaskExecutionStarted@_TaskEventLogger@details@Concurrency@@QEAAXXZ 000000014002eb40 f i test.obj
 0001:0002db70       ?_Make@?$_Task_ptr@E@details@Concurrency@@SA?AV?$shared_ptr@U?$_Task_impl@E@details@Concurrency@@@std@@PEAV_CancellationTokenState@23@Uscheduler_ptr@3@@Z 000000014002eb70 f i test.obj
 0001:0002dbf0       ?_MakeVoidToUnitFunc@details@Concurrency@@YA?AV?$function@$$A6AEXZ@std@@AEBV?$function@$$A6AXXZ@4@@Z 000000014002ebf0 f i test.obj
 0001:0002dc90       ?_Map@?$deque@UIspFrameData@@V?$allocator@UIspFrameData@@@std@@@std@@AEAAAEAPEAPEAUIspFrameData@@XZ 000000014002ec90 f i test.obj
 0001:0002dcd0       ?_Map_distance@?$deque@UIspFrameData@@V?$allocator@UIspFrameData@@@std@@@std@@AEBA_JXZ 000000014002ecd0 f i test.obj
 0001:0002dd10       ?_Mapsize@?$deque@UIspFrameData@@V?$allocator@UIspFrameData@@@std@@@std@@AEAAAEA_KXZ 000000014002ed10 f i test.obj
 0001:0002dd50       ?_Maybe_run_deferred_function@?$_Associated_state@H@std@@IEAAXAEAV?$unique_lock@Vmutex@std@@@2@@Z 000000014002ed50 f i test.obj
 0001:0002ddc0       ?_Move@?$_Func_impl_no_alloc@V<lambda_1>@?1???$?0V?$_Fake_no_copy_callable_adapter@AEAP6AHPEAXI0@ZAEAPEAXW4IspSoftAeProcessType@@PEAUIspSoftAeInImage@@@std@@@?$_Task_async_state@H@std@@QEAA@$$QEAV?$_Fake_no_copy_callable_adapter@AEAP6AHPEAXI0@ZAEAPEAXW4IspSoftAeProcessType@@PEAUIspSoftAeInImage@@@3@@Z@X$$V@std@@EEAAPEAV?$_Func_base@X$$V@2@PEAX@Z 000000014002edc0 f i test.obj
 0001:0002de30       ?_Move@?$_Func_impl_no_alloc@V<lambda_1>@?1??_MakeVoidToUnitFunc@details@Concurrency@@YA?AV?$function@$$A6AEXZ@std@@AEBV?$function@$$A6AXXZ@6@@Z@E$$V@std@@EEAAPEAV?$_Func_base@E$$V@2@PEAX@Z 000000014002ee30 f i test.obj
 0001:0002de60       ?_Move@?$_Func_impl_no_alloc@V<lambda_1>@?4??_ScheduleContinuationTask@_Task_impl_base@details@Concurrency@@QEAAXPEAU_ContinuationTaskHandleBase@45@@Z@X$$V@std@@EEAAPEAV?$_Func_base@X$$V@2@PEAX@Z 000000014002ee60 f i test.obj
 0001:0002ded0       ?_Move@?$_Func_impl_no_alloc@V<lambda_1>@?7???R1?4??_ScheduleContinuationTask@_Task_impl_base@details@Concurrency@@QEAAXPEAU_ContinuationTaskHandleBase@45@@Z@QEBA@XZ@X$$V@std@@EEAAPEAV?$_Func_base@X$$V@2@PEAX@Z 000000014002eed0 f i test.obj
 0001:0002df40       ?_Move@?$_Func_impl_no_alloc@V<lambda_1>@?CC@??_CancelAndRunContinuations@?$_Task_impl@E@details@Concurrency@@UEAA_N_N00AEBV?$shared_ptr@U_ExceptionHolder@details@Concurrency@@@std@@@Z@X$$V@std@@EEAAPEAV?$_Func_base@X$$V@2@PEAX@Z 000000014002ef40 f i test.obj
 0001:0002dfb0       ?_Move@?$_Func_impl_no_alloc@V?$_Fake_no_copy_callable_adapter@AEAP6AHPEAXI0@ZAEAPEAXW4IspSoftAeProcessType@@PEAUIspSoftAeInImage@@@std@@H$$V@std@@EEAAPEAV?$_Func_base@H$$V@2@PEAX@Z 000000014002efb0 f i test.obj
 0001:0002e020       ?_Mycnd@condition_variable@std@@AEAAPEAU_Cnd_internal_imp_t@@XZ 000000014002f020 f i test.obj
 0001:0002e050       ?_Mymtx@_Mutex_base@std@@AEAAPEAU_Mtx_internal_imp_t@@XZ 000000014002f050 f i test.obj
 0001:0002e080       ?_Myoff@?$deque@UIspFrameData@@V?$allocator@UIspFrameData@@@std@@@std@@AEAAAEA_KXZ 000000014002f080 f i test.obj
 0001:0002e0c0       ?_Myoff@?$deque@UIspFrameData@@V?$allocator@UIspFrameData@@@std@@@std@@AEBAAEB_KXZ 000000014002f0c0 f i test.obj
 0001:0002e100       ?_Mysize@?$deque@UIspFrameData@@V?$allocator@UIspFrameData@@@std@@@std@@AEAAAEA_KXZ 000000014002f100 f i test.obj
 0001:0002e140       ?_Mysize@?$deque@UIspFrameData@@V?$allocator@UIspFrameData@@@std@@@std@@AEBAAEB_KXZ 000000014002f140 f i test.obj
 0001:0002e180       ?_NoCallOnDefaultTask_ErrorImpl@_DefaultTaskHelper@details@Concurrency@@SAXXZ 000000014002f180 f i test.obj
 0001:0002e1d0       ?_None@_CancellationTokenState@details@Concurrency@@SAPEAV123@XZ 000000014002f1d0 f i test.obj
 0001:0002e200       ?_Orphan_all@?$deque@UIspFrameData@@V?$allocator@UIspFrameData@@@std@@@std@@AEAAXXZ 000000014002f200 f i test.obj
 0001:0002e240       ?_Orphan_off@?$deque@UIspFrameData@@V?$allocator@UIspFrameData@@@std@@@std@@AEBAX_K@Z 000000014002f240 f i test.obj
 0001:0002e3e0       ?_Orphan_range@?$vector@PEAXV?$allocator@PEAX@std@@@std@@AEBAXPEAPEAX0@Z 000000014002f3e0 f i test.obj
 0001:0002e430       ?_Orphan_range_locked@?$vector@PEAXV?$allocator@PEAX@std@@@std@@AEBAXPEAPEAX0@Z 000000014002f430 f i test.obj
 0001:0002e4f0       ?_Orphan_range_unlocked@?$vector@PEAXV?$allocator@PEAX@std@@@std@@AEBAXPEAPEAX0@Z 000000014002f4f0 f i test.obj
 0001:0002e5a0       ?_Perform@?$_Init_func_transformer@X@Concurrency@@SA?AV?$function@$$A6AEXZ@std@@V?$function@$$A6AXXZ@4@@Z 000000014002f5a0 f i test.obj
 0001:0002e610       ?_Perform@?$_InitialTaskHandle@XV<lambda_1>@?1???$?0V?$_Fake_no_copy_callable_adapter@AEAP6AHPEAXI0@ZAEAPEAXW4IspSoftAeProcessType@@PEAUIspSoftAeInImage@@@std@@@?$_Task_async_state@H@std@@QEAA@$$QEAV?$_Fake_no_copy_callable_adapter@AEAP6AHPEAXI0@ZAEAPEAXW4IspSoftAeProcessType@@PEAUIspSoftAeInImage@@@3@@Z@U_TypeSelectorNoAsync@details@Concurrency@@@?$task@E@Concurrency@@QEBAXXZ 000000014002f610 f i test.obj
 0001:0002e650       ?_Reference@_RefCounter@details@Concurrency@@QEAAJXZ 000000014002f650 f i test.obj
 0001:0002e6e0       ?_Register@condition_variable@std@@QEAAXAEAV?$unique_lock@Vmutex@std@@@2@PEAH@Z 000000014002f6e0 f i test.obj
 0001:0002e760       ?_RegisterCallback@_CancellationTokenState@details@Concurrency@@QEAAXPEAV_CancellationTokenRegistration@23@@Z 000000014002f760 f i test.obj
 0001:0002e890       ?_RegisterCancellation@_Task_impl_base@details@Concurrency@@QEAAXV?$weak_ptr@U_Task_impl_base@details@Concurrency@@@std@@@Z 000000014002f890 f i test.obj
 0001:0002ea20       ?_Release@?$_Associated_state@H@std@@QEAAXXZ 000000014002fa20 f i test.obj
 0001:0002ea80       ?_Release@?$_Uninitialized_backout@PEAPEAUIspFrameData@@@std@@QEAAPEAPEAUIspFrameData@@XZ 000000014002fa80 f i test.obj
 0001:0002ead0       ?_Release@?$_Uninitialized_backout_al@V?$allocator@PEAX@std@@@std@@QEAAPEAPEAXXZ 000000014002fad0 f i test.obj
 0001:0002eb20       ?_Release@_RefCounter@details@Concurrency@@QEAAJXZ 000000014002fb20 f i test.obj
 0001:0002ebd0       ?_Reset_copy@?$_Func_class@X$$V@std@@IEAAXAEBV12@@Z 000000014002fbd0 f i test.obj
 0001:0002ec60       ?_Retain@?$_Associated_state@H@std@@QEAAXXZ 000000014002fc60 f i test.obj
 0001:0002eca0       ?_RethrowUserException@_ExceptionHolder@details@Concurrency@@QEAAXXZ 000000014002fca0 f i test.obj
 0001:0002ed30       ?_RunAndWait@_TaskCollectionBaseImpl@details@Concurrency@@QEAAXXZ 000000014002fd30 f i test.obj
 0001:0002ed70       ?_RunChoreBridge@_TaskProcHandle@details@Concurrency@@SAXPEAX@Z 000000014002fd70 f i test.obj
 0001:0002ee00       ?_RunContinuation@_Task_impl_base@details@Concurrency@@QEAAXPEAU_ContinuationTaskHandleBase@23@@Z 000000014002fe00 f i test.obj
 0001:0002f040       ?_RunTask@_TaskCollectionBaseImpl@details@Concurrency@@SAXP6AXPEAX@Z0W4_TaskInliningMode@23@@Z 0000000140030040 f i test.obj
 0001:0002f180       ?_RunTaskContinuations@_Task_impl_base@details@Concurrency@@QEAAXXZ 0000000140030180 f i test.obj
 0001:0002f200       ?_Run_deferred_function@?$_Associated_state@H@std@@EEAAXAEAV?$unique_lock@Vmutex@std@@@2@@Z 0000000140030200 f i test.obj
 0001:0002f230       ?_Run_deferred_function@?$_Deferred_async_state@H@std@@EEAAXAEAV?$unique_lock@Vmutex@std@@@2@@Z 0000000140030230 f i test.obj
 0001:0002f290       ?_Schedule@_PPLTaskChore@_DefaultPPLTaskScheduler@details@Concurrency@@QEAAXXZ 0000000140030290 f i test.obj
 0001:0002f330       ?_ScheduleContinuationTask@_Task_impl_base@details@Concurrency@@QEAAXPEAU_ContinuationTaskHandleBase@23@@Z 0000000140030330 f i test.obj
 0001:0002f410       ?_ScheduleFuncWithAutoInline@details@Concurrency@@YAXAEBV?$function@$$A6AXXZ@std@@W4_TaskInliningMode@12@@Z 0000000140030410 f i test.obj
 0001:0002f4b0       ?_ScheduleTask@_TaskCollectionBaseImpl@details@Concurrency@@QEAAXPEAU_TaskProcHandle@23@W4_TaskInliningMode@23@@Z 00000001400304b0 f i test.obj
 0001:0002f590       ?_ScheduleTask@_Task_impl_base@details@Concurrency@@QEAAXPEAU_TaskProcHandle@23@W4_TaskInliningMode@23@@Z 0000000140030590 f i test.obj
 0001:0002f600       ?_Set@?$_Func_class@E$$V@std@@AEAAXPEAV?$_Func_base@E$$V@2@@Z 0000000140030600 f i test.obj
 0001:0002f650       ?_Set@?$_Func_class@H$$V@std@@AEAAXPEAV?$_Func_base@H$$V@2@@Z 0000000140030650 f i test.obj
 0001:0002f6a0       ?_Set@?$_Func_class@X$$V@std@@AEAAXPEAV?$_Func_base@X$$V@2@@Z 00000001400306a0 f i test.obj
 0001:0002f6f0       ?_SetCollectionState@_TaskCollectionBaseImpl@details@Concurrency@@IEAAXW4_TaskCollectionState@123@@Z 00000001400306f0 f i test.obj
 0001:0002f810       ?_SetTaskCreationCallstack@?$task@E@Concurrency@@QEAAXAEBV_TaskCreationCallstack@details@2@@Z 0000000140030810 f i test.obj
 0001:0002f870       ?_SetTaskCreationCallstack@_Task_impl_base@details@Concurrency@@QEAAXAEBV_TaskCreationCallstack@23@@Z 0000000140030870 f i test.obj
 0001:0002f8c0       ?_Set_exception@?$_Associated_state@H@std@@QEAAXVexception_ptr@2@_N@Z 00000001400308c0 f i test.obj
 0001:0002f9c0       ?_Set_exception_raw@?$_Associated_state@H@std@@QEAAXVexception_ptr@2@PEAV?$unique_lock@Vmutex@std@@@2@_N@Z 00000001400309c0 f i test.obj
 0001:0002faf0       ?_Set_value@?$_Associated_state@H@std@@QEAAX$$QEAH_N@Z 0000000140030af0 f i test.obj
 0001:0002fbc0       ?_Set_value_raw@?$_Associated_state@H@std@@QEAAX$$QEAHPEAV?$unique_lock@Vmutex@std@@@2@_N@Z 0000000140030bc0 f i test.obj
 0001:0002fc50       ?_Subscript@?$_Deque_val@U?$_Deque_simple_types@UIspFrameData@@@std@@@std@@QEAAAEAUIspFrameData@@_K@Z 0000000140030c50 f i test.obj
 0001:0002fcc0       ?_Subscript@?$deque@UIspFrameData@@V?$allocator@UIspFrameData@@@std@@@std@@AEAAAEAUIspFrameData@@_K@Z 0000000140030cc0 f i test.obj
 0001:0002fd30       ?_Swap@?$_Ptr_base@U?$_Task_impl@E@details@Concurrency@@@std@@IEAAXAEAV12@@Z 0000000140030d30 f i test.obj
 0001:0002fda0       ?_Swap@?$_Ptr_base@U_ExceptionHolder@details@Concurrency@@@std@@IEAAXAEAV12@@Z 0000000140030da0 f i test.obj
 0001:0002fe10       ?_SyncCancelAndPropagateException@?$_InitialTaskHandle@XV<lambda_1>@?1???$?0V?$_Fake_no_copy_callable_adapter@AEAP6AHPEAXI0@ZAEAPEAXW4IspSoftAeProcessType@@PEAUIspSoftAeInImage@@@std@@@?$_Task_async_state@H@std@@QEAA@$$QEAV?$_Fake_no_copy_callable_adapter@AEAP6AHPEAXI0@ZAEAPEAXW4IspSoftAeProcessType@@PEAUIspSoftAeInImage@@@3@@Z@U_TypeSelectorNoAsync@details@Concurrency@@@?$task@E@Concurrency@@QEBAXXZ 0000000140030e10 f i test.obj
 0001:0002fe60       ?_Target_type@?$_Func_impl_no_alloc@V<lambda_1>@?1???$?0V?$_Fake_no_copy_callable_adapter@AEAP6AHPEAXI0@ZAEAPEAXW4IspSoftAeProcessType@@PEAUIspSoftAeInImage@@@std@@@?$_Task_async_state@H@std@@QEAA@$$QEAV?$_Fake_no_copy_callable_adapter@AEAP6AHPEAXI0@ZAEAPEAXW4IspSoftAeProcessType@@PEAUIspSoftAeInImage@@@3@@Z@X$$V@std@@EEBAAEBVtype_info@@XZ 0000000140030e60 f i test.obj
 0001:0002fe90       ?_Target_type@?$_Func_impl_no_alloc@V<lambda_1>@?1??_MakeVoidToUnitFunc@details@Concurrency@@YA?AV?$function@$$A6AEXZ@std@@AEBV?$function@$$A6AXXZ@6@@Z@E$$V@std@@EEBAAEBVtype_info@@XZ 0000000140030e90 f i test.obj
 0001:0002fec0       ?_Target_type@?$_Func_impl_no_alloc@V<lambda_1>@?4??_ScheduleContinuationTask@_Task_impl_base@details@Concurrency@@QEAAXPEAU_ContinuationTaskHandleBase@45@@Z@X$$V@std@@EEBAAEBVtype_info@@XZ 0000000140030ec0 f i test.obj
 0001:0002fef0       ?_Target_type@?$_Func_impl_no_alloc@V<lambda_1>@?7???R1?4??_ScheduleContinuationTask@_Task_impl_base@details@Concurrency@@QEAAXPEAU_ContinuationTaskHandleBase@45@@Z@QEBA@XZ@X$$V@std@@EEBAAEBVtype_info@@XZ 0000000140030ef0 f i test.obj
 0001:0002ff20       ?_Target_type@?$_Func_impl_no_alloc@V<lambda_1>@?CC@??_CancelAndRunContinuations@?$_Task_impl@E@details@Concurrency@@UEAA_N_N00AEBV?$shared_ptr@U_ExceptionHolder@details@Concurrency@@@std@@@Z@X$$V@std@@EEBAAEBVtype_info@@XZ 0000000140030f20 f i test.obj
 0001:0002ff50       ?_Target_type@?$_Func_impl_no_alloc@V?$_Fake_no_copy_callable_adapter@AEAP6AHPEAXI0@ZAEAPEAXW4IspSoftAeProcessType@@PEAUIspSoftAeInImage@@@std@@H$$V@std@@EEBAAEBVtype_info@@XZ 0000000140030f50 f i test.obj
 0001:0002ff80       ?_Throw_future_error2@std@@YAXW4future_errc@1@@Z 0000000140030f80 f i test.obj
 0001:0002ffd0       ?_Throw_system_error@std@@YAXW4errc@1@@Z 0000000140030fd0 f i test.obj
 0001:00030050       ?_Tidy@?$_Func_class@E$$V@std@@IEAAXXZ 0000000140031050 f i test.obj
 0001:000300f0       ?_Tidy@?$_Func_class@H$$V@std@@IEAAXXZ 00000001400310f0 f i test.obj
 0001:00030190       ?_Tidy@?$_Func_class@X$$V@std@@IEAAXXZ 0000000140031190 f i test.obj
 0001:00030230       ?_Tidy@?$deque@UIspFrameData@@V?$allocator@UIspFrameData@@@std@@@std@@AEAAXXZ 0000000140031230 f i test.obj
 0001:00030400       ?_Tidy@?$vector@PEAXV?$allocator@PEAX@std@@@std@@AEAAXXZ 0000000140031400 f i test.obj
 0001:000304f0       ?_TransitionedToStarted@?$_Task_impl@E@details@Concurrency@@QEAA_NXZ 00000001400314f0 f i test.obj
 0001:00030670       ?_Unregister@condition_variable@std@@QEAAXAEAVmutex@2@@Z 0000000140031670 f i test.obj
 0001:000306c0       ?_Validate@?$unique_lock@Vmutex@std@@@std@@AEBAXXZ 00000001400316c0 f i test.obj
 0001:00030720       ?_Verify_ownership_levels@_Mutex_base@std@@IEAA_NXZ 0000000140031720 f i test.obj
 0001:00030780       ?_Wait@?$_Associated_state@H@std@@UEAAXXZ 0000000140031780 f i test.obj
 0001:00030860       ?_Wait@?$_Task_async_state@H@std@@UEAAXXZ 0000000140031860 f i test.obj
 0001:000308a0       ?_Wait@_TaskCollectionBaseImpl@details@Concurrency@@QEAAXXZ 00000001400318a0 f i test.obj
 0001:000308e0       ?_Wait@_Task_impl_base@details@Concurrency@@QEAA?AW4task_group_status@3@XZ 00000001400318e0 f i test.obj
 0001:00030a20       ?_Xlen@?$deque@UIspFrameData@@V?$allocator@UIspFrameData@@@std@@@std@@CAXXZ 0000000140031a20 f i test.obj
 0001:00030a60       ?_Xlength@?$vector@PEAXV?$allocator@PEAX@std@@@std@@CAXXZ 0000000140031a60 f i test.obj
 0001:00030aa0       ?__autoclassinit2@<lambda_1>@?1??_RegisterCancellation@_Task_impl_base@details@Concurrency@@QEAAXV?$weak_ptr@U_Task_impl_base@details@Concurrency@@@std@@@Z@QEAAX_K@Z 0000000140031aa0 f i test.obj
 0001:00030ae0       ?__autoclassinit2@?$_CancellationTokenCallback@V<lambda_1>@?1??_RegisterCancellation@_Task_impl_base@details@Concurrency@@QEAAXV?$weak_ptr@U_Task_impl_base@details@Concurrency@@@std@@@Z@@details@Concurrency@@QEAAX_K@Z 0000000140031ae0 f i test.obj
 0001:00030b20       ?__autoclassinit2@?$_Deferred_async_state@H@std@@QEAAX_K@Z 0000000140031b20 f i test.obj
 0001:00030b60       ?__autoclassinit2@?$_Promise@H@std@@QEAAX_K@Z 0000000140031b60 f i test.obj
 0001:00030ba0       ?__autoclassinit2@?$_Task_async_state@H@std@@QEAAX_K@Z 0000000140031ba0 f i test.obj
 0001:00030be0       ?__autoclassinit2@?$_Uninitialized_backout_al@V?$allocator@PEAX@std@@@std@@QEAAX_K@Z 0000000140031be0 f i test.obj
 0001:00030c20       ?__autoclassinit2@?$basic_ifstream@DU?$char_traits@D@std@@@std@@QEAAX_K@Z 0000000140031c20 f i test.obj
 0001:00030c60       ?__autoclassinit2@?$future@H@std@@QEAAX_K@Z 0000000140031c60 f i test.obj
 0001:00030ca0       ?__autoclassinit2@?$queue@UIspFrameData@@V?$deque@UIspFrameData@@V?$allocator@UIspFrameData@@@std@@@std@@@std@@QEAAX_K@Z 0000000140031ca0 f i test.obj
 0001:00030ce0       ?__autoclassinit2@?$shared_ptr@U?$_Task_impl@E@details@Concurrency@@@std@@QEAAX_K@Z 0000000140031ce0 f i test.obj
 0001:00030d20       ?__autoclassinit2@?$shared_ptr@U_ExceptionHolder@details@Concurrency@@@std@@QEAAX_K@Z 0000000140031d20 f i test.obj
 0001:00030d60       ?__autoclassinit2@?$shared_ptr@U_Task_impl_base@details@Concurrency@@@std@@QEAAX_K@Z 0000000140031d60 f i test.obj
 0001:00030da0       ?__autoclassinit2@?$shared_ptr@Uscheduler_interface@Concurrency@@@std@@QEAAX_K@Z 0000000140031da0 f i test.obj
 0001:00030de0       ?__autoclassinit2@?$task@X@Concurrency@@QEAAX_K@Z 0000000140031de0 f i test.obj
 0001:00030e20       ?__autoclassinit2@?$unique_lock@Vmutex@std@@@std@@QEAAX_K@Z 0000000140031e20 f i test.obj
 0001:00030e60       ?__autoclassinit2@?$unique_ptr@V_PPLTaskChore@_DefaultPPLTaskScheduler@details@Concurrency@@U?$default_delete@V_PPLTaskChore@_DefaultPPLTaskScheduler@details@Concurrency@@@std@@@std@@QEAAX_K@Z 0000000140031e60 f i test.obj
 0001:00030ea0       ?__autoclassinit2@_PPLTaskChore@_DefaultPPLTaskScheduler@details@Concurrency@@QEAAX_K@Z 0000000140031ea0 f i test.obj
 0001:00030ee0       ?__autoclassinit2@_TaskCreationCallstack@details@Concurrency@@QEAAX_K@Z 0000000140031ee0 f i test.obj
 0001:00030f20       ?__autoclassinit2@exception_ptr@std@@QEAAX_K@Z 0000000140031f20 f i test.obj
 0001:00030f60       ?_get_internal_task_options@details@Concurrency@@YAAEAU_Internal_task_options@12@AEAVtask_options@2@@Z 0000000140031f60 f i test.obj
 0001:00030fa0       ?_get_internal_task_options@details@Concurrency@@YAAEBU_Internal_task_options@12@AEBVtask_options@2@@Z 0000000140031fa0 f i test.obj
 0001:00030fe0       ?_set_creation_callstack@_Internal_task_options@details@Concurrency@@QEAAXAEBV_TaskCreationCallstack@23@@Z 0000000140031fe0 f i test.obj
 0001:00031040       ?allocate@?$allocator@PEAUIspFrameData@@@std@@QEAAPEAPEAUIspFrameData@@_K@Z 0000000140032040 f i test.obj
 0001:00031090       ?allocate@?$allocator@PEAX@std@@QEAAPEAPEAX_K@Z 0000000140032090 f i test.obj
 0001:000310e0       ?allocate@?$allocator@UIspFrameData@@@std@@QEAAPEAUIspFrameData@@_K@Z 00000001400320e0 f i test.obj
 0001:00031130       ?back@?$deque@UIspFrameData@@V?$allocator@UIspFrameData@@@std@@@std@@QEAAAEAUIspFrameData@@XZ 0000000140032130 f i test.obj
 0001:00031210       ?back@?$queue@UIspFrameData@@V?$deque@UIspFrameData@@V?$allocator@UIspFrameData@@@std@@@std@@@std@@QEAAAEAUIspFrameData@@XZ 0000000140032210 f i test.obj
 0001:00031250       ?capacity@?$vector@PEAXV?$allocator@PEAX@std@@@std@@QEBA_KXZ 0000000140032250 f i test.obj
 0001:000312a0       ?category@error_code@std@@QEBAAEBVerror_category@2@XZ 00000001400322a0 f i test.obj
 0001:000312e0       ?category@error_condition@std@@QEBAAEBVerror_category@2@XZ 00000001400322e0 f i test.obj
 0001:00031320       ?close@?$basic_ifstream@DU?$char_traits@D@std@@@std@@QEAAXXZ 0000000140032320 f i test.obj
 0001:00031390       ?compare_exchange_strong@?$_Atomic_storage@J$03@std@@QEAA_NAEAJJW4memory_order@2@@Z 0000000140032390 f i test.obj
 0001:000314a0       ?current_exception@std@@YA?AVexception_ptr@1@XZ 00000001400324a0 f i test.obj
 0001:00031530       ?deallocate@?$allocator@PEAUIspFrameData@@@std@@QEAAXQEAPEAUIspFrameData@@_K@Z 0000000140032530 f i test.obj
 0001:00031610       ?deallocate@?$allocator@PEAX@std@@QEAAXQEAPEAX_K@Z 0000000140032610 f i test.obj
 0001:000316f0       ?deallocate@?$allocator@UIspFrameData@@@std@@QEAAXQEAUIspFrameData@@_K@Z 00000001400326f0 f i test.obj
 0001:000317d0       ?default_error_condition@error_category@std@@UEBA?AVerror_condition@2@H@Z 00000001400327d0 f i test.obj
 0001:00031830       ?empty@?$deque@UIspFrameData@@V?$allocator@UIspFrameData@@@std@@@std@@QEBA_NXZ 0000000140032830 f i test.obj
 0001:00031890       ?empty@TokenRegistrationContainer@_CancellationTokenState@details@Concurrency@@QEAA_NXZ 0000000140032890 f i test.obj
 0001:000318f0       ?equivalent@error_category@std@@UEBA_NAEBVerror_code@2@H@Z 00000001400328f0 f i test.obj
 0001:00031980       ?equivalent@error_category@std@@UEBA_NHAEBVerror_condition@2@@Z 0000000140032980 f i test.obj
 0001:000319f0       ?exchange@?$_Atomic_storage@J$03@std@@QEAAJJW4memory_order@2@@Z 00000001400329f0 f i test.obj
 0001:00031a80       ?front@?$deque@UIspFrameData@@V?$allocator@UIspFrameData@@@std@@@std@@QEAAAEAUIspFrameData@@XZ 0000000140032a80 f i test.obj
 0001:00031b50       ?front@?$queue@UIspFrameData@@V?$deque@UIspFrameData@@V?$allocator@UIspFrameData@@@std@@@std@@@std@@QEAAAEAUIspFrameData@@XZ 0000000140032b50 f i test.obj
 0001:00031b90       ?future_category@std@@YAAEBVerror_category@1@XZ 0000000140032b90 f i test.obj
 0001:00031bc0       ?generic_category@std@@YAAEBVerror_category@1@XZ 0000000140032bc0 f i test.obj
 0001:00031bf0       ?get@?$_Ptr_base@U?$_Task_impl@E@details@Concurrency@@@std@@IEBAPEAU?$_Task_impl@E@details@Concurrency@@XZ 0000000140032bf0 f i test.obj
 0001:00031c30       ?get@?$_Ptr_base@U_ExceptionHolder@details@Concurrency@@@std@@IEBAPEAU_ExceptionHolder@details@Concurrency@@XZ 0000000140032c30 f i test.obj
 0001:00031c70       ?get@?$_Ptr_base@U_Task_impl_base@details@Concurrency@@@std@@IEBAPEAU_Task_impl_base@details@Concurrency@@XZ 0000000140032c70 f i test.obj
 0001:00031cb0       ?get@?$_Ptr_base@Uscheduler_interface@Concurrency@@@std@@IEBAPEAUscheduler_interface@Concurrency@@XZ 0000000140032cb0 f i test.obj
 0001:00031cf0       ?get@?$future@H@std@@QEAAHXZ 0000000140032cf0 f i test.obj
 0001:00031db0       ?get@scheduler_ptr@Concurrency@@QEBAPEAUscheduler_interface@2@XZ 0000000140032db0 f i test.obj
 0001:00031df0       ?get_ambient_scheduler@Concurrency@@YAAEBV?$shared_ptr@Uscheduler_interface@Concurrency@@@std@@XZ 0000000140032df0 f i test.obj
 0001:00031e20       ?get_cancellation_token@task_options@Concurrency@@QEBA?AVcancellation_token@2@XZ 0000000140032e20 f i test.obj
 0001:00031e90       ?get_deleter@?$unique_ptr@V_PPLTaskChore@_DefaultPPLTaskScheduler@details@Concurrency@@U?$default_delete@V_PPLTaskChore@_DefaultPPLTaskScheduler@details@Concurrency@@@std@@@std@@QEAAAEAU?$default_delete@V_PPLTaskChore@_DefaultPPLTaskScheduler@details@Concurrency@@@2@XZ 0000000140032e90 f i test.obj
 0001:00031ed0       ?get_owner_mode@@YA?AW4owner_mode@@PEAX@Z 0000000140032ed0 f   test.obj
 0001:00031f00       ?get_scheduler@task_options@Concurrency@@QEBA?AUscheduler_ptr@2@XZ 0000000140032f00 f i test.obj
 0001:00031f70       ?invoke@?$_PPLTaskHandle@EU?$_InitialTaskHandle@XV<lambda_1>@?1???$?0V?$_Fake_no_copy_callable_adapter@AEAP6AHPEAXI0@ZAEAPEAXW4IspSoftAeProcessType@@PEAUIspSoftAeInImage@@@std@@@?$_Task_async_state@H@std@@QEAA@$$QEAV?$_Fake_no_copy_callable_adapter@AEAP6AHPEAXI0@ZAEAPEAXW4IspSoftAeProcessType@@PEAUIspSoftAeInImage@@@3@@Z@U_TypeSelectorNoAsync@details@Concurrency@@@?$task@E@Concurrency@@U_TaskProcHandle@details@3@@details@Concurrency@@UEBAXXZ 0000000140032f70 f i test.obj
 0001:00032080       ?load@?$_Atomic_storage@J$03@std@@QEBAJXZ 0000000140033080 f i test.obj
 0001:000320f0       ?lock@?$unique_lock@Vmutex@std@@@std@@QEAAXXZ 00000001400330f0 f i test.obj
 0001:00032140       ?lock@?$weak_ptr@U_Task_impl_base@details@Concurrency@@@std@@QEBA?AV?$shared_ptr@U_Task_impl_base@details@Concurrency@@@2@XZ 0000000140033140 f i test.obj
 0001:000321e0       ?lock@_Mutex_base@std@@QEAAXXZ 00000001400331e0 f i test.obj
 0001:00032250       ?make_error_code@std@@YA?AVerror_code@1@W4errc@1@@Z 0000000140033250 f i test.obj
 0001:000322a0       ?make_error_code@std@@YA?AVerror_code@1@W4future_errc@1@@Z 00000001400332a0 f i test.obj
 0001:000322f0       ?max_size@?$_Default_allocator_traits@V?$allocator@PEAX@std@@@std@@SA_KAEBV?$allocator@PEAX@2@@Z 00000001400332f0 f i test.obj
 0001:00032330       ?max_size@?$_Default_allocator_traits@V?$allocator@UIspFrameData@@@std@@@std@@SA_KAEBV?$allocator@UIspFrameData@@@2@@Z 0000000140033330 f i test.obj
 0001:00032370       ?max_size@?$deque@UIspFrameData@@V?$allocator@UIspFrameData@@@std@@@std@@QEBA_KXZ 0000000140033370 f i test.obj
 0001:000323e0       ?max_size@?$vector@PEAXV?$allocator@PEAX@std@@@std@@QEBA_KXZ 00000001400333e0 f i test.obj
 0001:00032450       ?message@_Future_error_category2@std@@UEBA?AV?$basic_string@DU?$char_traits@D@std@@V?$allocator@D@2@@2@H@Z 0000000140033450 f i test.obj
 0001:00032500       ?message@_Generic_error_category@std@@UEBA?AV?$basic_string@DU?$char_traits@D@std@@V?$allocator@D@2@@2@H@Z 0000000140033500 f i test.obj
 0001:00032570       ?message@error_code@std@@QEBA?AV?$basic_string@DU?$char_traits@D@std@@V?$allocator@D@2@@2@XZ 0000000140033570 f i test.obj
 0001:00032610       ?mutex@?$unique_lock@Vmutex@std@@@std@@QEBAPEAV02@XZ 0000000140033610 f i test.obj
 0001:00032650       ?name@_Future_error_category2@std@@UEBAPEBDXZ 0000000140033650 f i test.obj
 0001:00032680       ?name@_Generic_error_category@std@@UEBAPEBDXZ 0000000140033680 f i test.obj
 0001:000326b0       ?none@cancellation_token@Concurrency@@SA?AV12@XZ 00000001400336b0 f i test.obj
 0001:00032710       ?notify_all@condition_variable@std@@QEAAXXZ 0000000140033710 f i test.obj
 0001:00032750       ?open@?$basic_ifstream@DU?$char_traits@D@std@@@std@@QEAAXPEBDHH@Z 0000000140033750 f i test.obj
 0001:00032810       ?pop@?$queue@UIspFrameData@@V?$deque@UIspFrameData@@V?$allocator@UIspFrameData@@@std@@@std@@@std@@QEAAXXZ 0000000140033810 f i test.obj
 0001:00032850       ?pop_back@?$deque@UIspFrameData@@V?$allocator@UIspFrameData@@@std@@@std@@QEAAXXZ 0000000140033850 f i test.obj
 0001:000329d0       ?pop_front@?$deque@UIspFrameData@@V?$allocator@UIspFrameData@@@std@@@std@@QEAAXXZ 00000001400339d0 f i test.obj
 0001:00032b70       ?post_message@@YAHPEAXI0@Z 0000000140033b70 f   test.obj
 0001:00032ca0       ?push@?$queue@UIspFrameData@@V?$deque@UIspFrameData@@V?$allocator@UIspFrameData@@@std@@@std@@@std@@QEAAXAEBUIspFrameData@@@Z 0000000140033ca0 f i test.obj
 0001:00032cf0       ?push_back@?$deque@UIspFrameData@@V?$allocator@UIspFrameData@@@std@@@std@@QEAAXAEBUIspFrameData@@@Z 0000000140033cf0 f i test.obj
 0001:00032d40       ?push_back@TokenRegistrationContainer@_CancellationTokenState@details@Concurrency@@QEAAXPEAV_CancellationTokenRegistration@34@@Z 0000000140033d40 f i test.obj
 0001:00032e10       ?release@?$unique_lock@Vmutex@std@@@std@@QEAAPEAVmutex@2@XZ 0000000140033e10 f i test.obj
 0001:00032e70       ?release@?$unique_ptr@V_PPLTaskChore@_DefaultPPLTaskScheduler@details@Concurrency@@U?$default_delete@V_PPLTaskChore@_DefaultPPLTaskScheduler@details@Concurrency@@@std@@@std@@QEAAPEAV_PPLTaskChore@_DefaultPPLTaskScheduler@details@Concurrency@@XZ 0000000140033e70 f i test.obj
 0001:00032ec0       ?remove@TokenRegistrationContainer@_CancellationTokenState@details@Concurrency@@QEAAXPEAV_CancellationTokenRegistration@34@@Z 0000000140033ec0 f i test.obj
 0001:00032fd0       ?resize@?$vector@PEAXV?$allocator@PEAX@std@@@std@@QEAAX_K@Z 0000000140033fd0 f i test.obj
 0001:00033020       ?rethrow_exception@std@@YAXVexception_ptr@1@@Z 0000000140034020 f i test.obj
 0001:00033070       ?schedule@_DefaultPPLTaskScheduler@details@Concurrency@@UEAAXP6AXPEAX@Z0@Z 0000000140034070 f i test.obj
 0001:00033120       ?select_on_container_copy_construction@?$_Default_allocator_traits@V?$allocator@PEAX@std@@@std@@SA?AV?$allocator@PEAX@2@AEBV32@@Z 0000000140034120 f i test.obj
 0001:00033160       ?store@?$_Atomic_storage@J$03@std@@QEAAXJ@Z 0000000140034160 f i test.obj
 0001:000331c0       ?swap@?$shared_ptr@U?$_Task_impl@E@details@Concurrency@@@std@@QEAAXAEAV12@@Z 00000001400341c0 f i test.obj
 0001:00033210       ?swap@?$shared_ptr@U_ExceptionHolder@details@Concurrency@@@std@@QEAAXAEAV12@@Z 0000000140034210 f i test.obj
 0001:00033260       ?unlock@?$unique_lock@Vmutex@std@@@std@@QEAAXXZ 0000000140034260 f i test.obj
 0001:000332d0       ?unlock@_Mutex_base@std@@QEAAXXZ 00000001400342d0 f i test.obj
 0001:00033310       ?use_default@task_continuation_context@Concurrency@@SA?AV12@XZ 0000000140034310 f i test.obj
 0001:00033380       ?valid@?$_State_manager@H@std@@QEBA_NXZ 0000000140034380 f i test.obj
 0001:00033400       ?value@error_code@std@@QEBAHXZ 0000000140034400 f i test.obj
 0001:00033440       ?value@error_condition@std@@QEBAHXZ 0000000140034440 f i test.obj
 0001:00033480       ?wait@?$task@E@Concurrency@@QEBA?AW4task_group_status@2@XZ 0000000140034480 f i test.obj
 0001:000334e0       ?wait@?$task@X@Concurrency@@QEBA?AW4task_group_status@2@XZ 00000001400344e0 f i test.obj
 0001:00033520       ?wait@condition_variable@std@@QEAAXAEAV?$unique_lock@Vmutex@std@@@2@@Z 0000000140034520 f i test.obj
 0001:00033590       ?what@future_error@std@@UEBAPEBDXZ 0000000140034590 f i test.obj
 0001:000335e0       _Check_memory_order        00000001400345e0 f i test.obj
 0001:00033690       main                       0000000140034690 f   test.obj
 0001:000340e2       WideCharToMultiByte        00000001400350e2 f   kernel32:KERNEL32.dll
 0001:000340e8       GetModuleFileNameW         00000001400350e8 f   kernel32:KERNEL32.dll
 0001:000340ee       GetModuleHandleExW         00000001400350ee f   kernel32:KERNEL32.dll
 0001:000340f4       QueryPerformanceCounter    00000001400350f4 f   kernel32:KERNEL32.dll
 0001:000340fa       QueryPerformanceFrequency  00000001400350fa f   kernel32:KERNEL32.dll
 0001:00034100       ??0_Lockit@std@@QEAA@H@Z   0000000140035100 f   msvcprtd:MSVCP140D.dll
 0001:00034106       ??1_Lockit@std@@QEAA@XZ    0000000140035106 f   msvcprtd:MSVCP140D.dll
 0001:0003410c       ?_Xlength_error@std@@YAXPEBD@Z 000000014003510c f   msvcprtd:MSVCP140D.dll
 0001:00034112       ?_Xout_of_range@std@@YAXPEBD@Z 0000000140035112 f   msvcprtd:MSVCP140D.dll
 0001:00034120       ??0_Fac_node@std@@QEAA@PEAU01@PEAV_Facet_base@1@@Z 0000000140035120 f i msvcprtd:locale0_implib.obj
 0001:00034150       ??1_Fac_node@std@@QEAA@XZ  0000000140035150 f i msvcprtd:locale0_implib.obj
 0001:000341e0       ??1_Fac_tidy_reg_t@std@@QEAA@XZ 00000001400351e0 f i msvcprtd:locale0_implib.obj
 0001:00034250       ??2_Fac_node@std@@SAPEAX_K@Z 0000000140035250 f i msvcprtd:locale0_implib.obj
 0001:000342b0       ??3_Fac_node@std@@SAXPEAX@Z 00000001400352b0 f i msvcprtd:locale0_implib.obj
 0001:000342d0       ??_G_Fac_node@std@@QEAAPEAXI@Z 00000001400352d0 f i msvcprtd:locale0_implib.obj
 0001:00034330       ?_Facet_Register@std@@YAXPEAV_Facet_base@1@@Z 0000000140035330 f   msvcprtd:locale0_implib.obj
 0001:000343a0       ?__empty_global_delete@@YAXPEAXW4align_val_t@std@@@Z 00000001400353a0 f i msvcprtd:locale0_implib.obj
 0001:000343b0       ?__empty_global_delete@@YAXPEAX_KW4align_val_t@std@@@Z 00000001400353b0 f i msvcprtd:locale0_implib.obj
 0001:000343c0       ??Bid@locale@std@@QEAA_KXZ 00000001400353c0 f   msvcprtd:MSVCP140D.dll
 0001:000343c6       ?_Getgloballocale@locale@std@@CAPEAV_Locimp@12@XZ 00000001400353c6 f   msvcprtd:MSVCP140D.dll
 0001:000343cc       ?always_noconv@codecvt_base@std@@QEBA_NXZ 00000001400353cc f   msvcprtd:MSVCP140D.dll
 0001:000343d2       ?in@?$codecvt@DDU_Mbstatet@@@std@@QEBAHAEAU_Mbstatet@@PEBD1AEAPEBDPEAD3AEAPEAD@Z 00000001400353d2 f   msvcprtd:MSVCP140D.dll
 0001:000343d8       ?out@?$codecvt@DDU_Mbstatet@@@std@@QEBAHAEAU_Mbstatet@@PEBD1AEAPEBDPEAD3AEAPEAD@Z 00000001400353d8 f   msvcprtd:MSVCP140D.dll
 0001:000343de       ?unshift@?$codecvt@DDU_Mbstatet@@@std@@QEBAHAEAU_Mbstatet@@PEAD1AEAPEAD@Z 00000001400353de f   msvcprtd:MSVCP140D.dll
 0001:000343e4       ?_Getcat@?$codecvt@DDU_Mbstatet@@@std@@SA_KPEAPEBVfacet@locale@2@PEBV42@@Z 00000001400353e4 f   msvcprtd:MSVCP140D.dll
 0001:000343ea       ??0?$basic_streambuf@DU?$char_traits@D@std@@@std@@IEAA@XZ 00000001400353ea f   msvcprtd:MSVCP140D.dll
 0001:000343f0       ??1?$basic_streambuf@DU?$char_traits@D@std@@@std@@UEAA@XZ 00000001400353f0 f   msvcprtd:MSVCP140D.dll
 0001:000343f6       ?getloc@?$basic_streambuf@DU?$char_traits@D@std@@@std@@QEBA?AVlocale@2@XZ 00000001400353f6 f   msvcprtd:MSVCP140D.dll
 0001:000343fc       ?eback@?$basic_streambuf@DU?$char_traits@D@std@@@std@@IEBAPEADXZ 00000001400353fc f   msvcprtd:MSVCP140D.dll
 0001:00034402       ?gptr@?$basic_streambuf@DU?$char_traits@D@std@@@std@@IEBAPEADXZ 0000000140035402 f   msvcprtd:MSVCP140D.dll
 0001:00034408       ?pptr@?$basic_streambuf@DU?$char_traits@D@std@@@std@@IEBAPEADXZ 0000000140035408 f   msvcprtd:MSVCP140D.dll
 0001:0003440e       ?egptr@?$basic_streambuf@DU?$char_traits@D@std@@@std@@IEBAPEADXZ 000000014003540e f   msvcprtd:MSVCP140D.dll
 0001:00034414       ?gbump@?$basic_streambuf@DU?$char_traits@D@std@@@std@@IEAAXH@Z 0000000140035414 f   msvcprtd:MSVCP140D.dll
 0001:0003441a       ?setg@?$basic_streambuf@DU?$char_traits@D@std@@@std@@IEAAXPEAD00@Z 000000014003541a f   msvcprtd:MSVCP140D.dll
 0001:00034420       ?epptr@?$basic_streambuf@DU?$char_traits@D@std@@@std@@IEBAPEADXZ 0000000140035420 f   msvcprtd:MSVCP140D.dll
 0001:00034426       ?_Gndec@?$basic_streambuf@DU?$char_traits@D@std@@@std@@IEAAPEADXZ 0000000140035426 f   msvcprtd:MSVCP140D.dll
 0001:0003442c       ?_Gninc@?$basic_streambuf@DU?$char_traits@D@std@@@std@@IEAAPEADXZ 000000014003542c f   msvcprtd:MSVCP140D.dll
 0001:00034432       ?_Gnavail@?$basic_streambuf@DU?$char_traits@D@std@@@std@@IEBA_JXZ 0000000140035432 f   msvcprtd:MSVCP140D.dll
 0001:00034438       ?pbump@?$basic_streambuf@DU?$char_traits@D@std@@@std@@IEAAXH@Z 0000000140035438 f   msvcprtd:MSVCP140D.dll
 0001:0003443e       ?_Pninc@?$basic_streambuf@DU?$char_traits@D@std@@@std@@IEAAPEADXZ 000000014003543e f   msvcprtd:MSVCP140D.dll
 0001:00034444       ?_Pnavail@?$basic_streambuf@DU?$char_traits@D@std@@@std@@IEBA_JXZ 0000000140035444 f   msvcprtd:MSVCP140D.dll
 0001:0003444a       ?_Init@?$basic_streambuf@DU?$char_traits@D@std@@@std@@IEAAXXZ 000000014003544a f   msvcprtd:MSVCP140D.dll
 0001:00034450       ?_Init@?$basic_streambuf@DU?$char_traits@D@std@@@std@@IEAAXPEAPEAD0PEAH001@Z 0000000140035450 f   msvcprtd:MSVCP140D.dll
 0001:00034456       ?xsgetn@?$basic_streambuf@DU?$char_traits@D@std@@@std@@MEAA_JPEAD_J@Z 0000000140035456 f   msvcprtd:MSVCP140D.dll
 0001:0003445c       ?xsputn@?$basic_streambuf@DU?$char_traits@D@std@@@std@@MEAA_JPEBD_J@Z 000000014003545c f   msvcprtd:MSVCP140D.dll
 0001:00034462       ?_Fiopen@std@@YAPEAU_iobuf@@PEBDHH@Z 0000000140035462 f   msvcprtd:MSVCP140D.dll
 0001:00034468       ??1?$basic_ios@DU?$char_traits@D@std@@@std@@UEAA@XZ 0000000140035468 f   msvcprtd:MSVCP140D.dll
 0001:0003446e       ?clear@?$basic_ios@DU?$char_traits@D@std@@@std@@QEAAXH_N@Z 000000014003546e f   msvcprtd:MSVCP140D.dll
 0001:00034474       ?setstate@?$basic_ios@DU?$char_traits@D@std@@@std@@QEAAXH_N@Z 0000000140035474 f   msvcprtd:MSVCP140D.dll
 0001:0003447a       ??0?$basic_ios@DU?$char_traits@D@std@@@std@@IEAA@XZ 000000014003547a f   msvcprtd:MSVCP140D.dll
 0001:00034480       ?read@?$basic_istream@DU?$char_traits@D@std@@@std@@QEAAAEAV12@PEAD_J@Z 0000000140035480 f   msvcprtd:MSVCP140D.dll
 0001:00034486       ??0?$basic_iostream@DU?$char_traits@D@std@@@std@@QEAA@PEAV?$basic_streambuf@DU?$char_traits@D@std@@@1@@Z 0000000140035486 f   msvcprtd:MSVCP140D.dll
 0001:0003448c       ??1?$basic_iostream@DU?$char_traits@D@std@@@std@@UEAA@XZ 000000014003548c f   msvcprtd:MSVCP140D.dll
 0001:00034492       ?showmanyc@?$basic_streambuf@DU?$char_traits@D@std@@@std@@MEAA_JXZ 0000000140035492 f   msvcprtd:MSVCP140D.dll
 0001:00034498       ?__ExceptionPtrCreate@@YAXPEAX@Z 0000000140035498 f   msvcprtd:MSVCP140D.dll
 0001:0003449e       ?__ExceptionPtrDestroy@@YAXPEAX@Z 000000014003549e f   msvcprtd:MSVCP140D.dll
 0001:000344a4       ?__ExceptionPtrCopy@@YAXPEAXPEBX@Z 00000001400354a4 f   msvcprtd:MSVCP140D.dll
 0001:000344aa       ?__ExceptionPtrAssign@@YAXPEAXPEBX@Z 00000001400354aa f   msvcprtd:MSVCP140D.dll
 0001:000344b0       ?__ExceptionPtrToBool@@YA_NPEBX@Z 00000001400354b0 f   msvcprtd:MSVCP140D.dll
 0001:000344b6       ?__ExceptionPtrCurrentException@@YAXPEAX@Z 00000001400354b6 f   msvcprtd:MSVCP140D.dll
 0001:000344bc       ?__ExceptionPtrRethrow@@YAXPEBX@Z 00000001400354bc f   msvcprtd:MSVCP140D.dll
 0001:000344c2       _Mtx_init_in_situ          00000001400354c2 f   msvcprtd:MSVCP140D.dll
 0001:000344c8       _Mtx_destroy_in_situ       00000001400354c8 f   msvcprtd:MSVCP140D.dll
 0001:000344ce       _Mtx_lock                  00000001400354ce f   msvcprtd:MSVCP140D.dll
 0001:000344d4       _Mtx_unlock                00000001400354d4 f   msvcprtd:MSVCP140D.dll
 0001:000344da       _Cnd_init_in_situ          00000001400354da f   msvcprtd:MSVCP140D.dll
 0001:000344e0       _Cnd_destroy_in_situ       00000001400354e0 f   msvcprtd:MSVCP140D.dll
 0001:000344e6       _Cnd_wait                  00000001400354e6 f   msvcprtd:MSVCP140D.dll
 0001:000344ec       _Cnd_broadcast             00000001400354ec f   msvcprtd:MSVCP140D.dll
 0001:000344f2       _Cnd_register_at_thread_exit 00000001400354f2 f   msvcprtd:MSVCP140D.dll
 0001:000344f8       _Cnd_unregister_at_thread_exit 00000001400354f8 f   msvcprtd:MSVCP140D.dll
 0001:000344fe       ?_Throw_Cpp_error@std@@YAXH@Z 00000001400354fe f   msvcprtd:MSVCP140D.dll
 0001:00034510       __std_init_once_begin_initialize_clr 0000000140035510 f   msvcprtd:xonce2.obj
 0001:00034550       __std_init_once_complete_clr 0000000140035550 f   msvcprtd:xonce2.obj
 0001:00034580       __std_init_once_link_alternate_names_and_abort 0000000140035580 f   msvcprtd:xonce2.obj
 0001:0003458f       ?_Syserror_map@std@@YAPEBDH@Z 000000014003558f f   msvcprtd:MSVCP140D.dll
 0001:00034595       ?_Xbad_function_call@std@@YAXXZ 0000000140035595 f   msvcprtd:MSVCP140D.dll
 0001:0003459b       ?_Schedule_chore@details@Concurrency@@YAHPEAU_Threadpool_chore@12@@Z 000000014003559b f   msvcprtd:MSVCP140D.dll
 0001:000345a1       ?_Release_chore@details@Concurrency@@YAXPEAU_Threadpool_chore@12@@Z 00000001400355a1 f   msvcprtd:MSVCP140D.dll
 0001:000345a7       ?_ReportUnobservedException@details@Concurrency@@YAXXZ 00000001400355a7 f   msvcprtd:MSVCP140D.dll
 0001:000345ad       ?CaptureCallstack@platform@details@Concurrency@@YA_KPEAPEAX_K1@Z 00000001400355ad f   msvcprtd:MSVCP140D.dll
 0001:000345b3       ?GetCurrentThreadId@platform@details@Concurrency@@YAJXZ 00000001400355b3 f   msvcprtd:MSVCP140D.dll
 0001:000345b9       ?_CallInContext@_ContextCallback@details@Concurrency@@QEBAXV?$function@$$A6AXXZ@std@@_N@Z 00000001400355b9 f   msvcprtd:MSVCP140D.dll
 0001:000345bf       ?_Reset@_ContextCallback@details@Concurrency@@AEAAXXZ 00000001400355bf f   msvcprtd:MSVCP140D.dll
 0001:000345c5       ?_Capture@_ContextCallback@details@Concurrency@@AEAAXXZ 00000001400355c5 f   msvcprtd:MSVCP140D.dll
 0001:000345cb       ?ReportUnhandledError@_ExceptionHolder@details@Concurrency@@AEAAXXZ 00000001400355cb f   msvcprtd:MSVCP140D.dll
 0001:000345d1       ??0task_continuation_context@Concurrency@@AEAA@XZ 00000001400355d1 f   msvcprtd:MSVCP140D.dll
 0001:000345d7       ?_LogScheduleTask@_TaskEventLogger@details@Concurrency@@QEAAX_N@Z 00000001400355d7 f   msvcprtd:MSVCP140D.dll
 0001:000345dd       ?_LogCancelTask@_TaskEventLogger@details@Concurrency@@QEAAXXZ 00000001400355dd f   msvcprtd:MSVCP140D.dll
 0001:000345e3       ?_LogTaskCompleted@_TaskEventLogger@details@Concurrency@@QEAAXXZ 00000001400355e3 f   msvcprtd:MSVCP140D.dll
 0001:000345e9       ?_LogTaskExecutionCompleted@_TaskEventLogger@details@Concurrency@@QEAAXXZ 00000001400355e9 f   msvcprtd:MSVCP140D.dll
 0001:000345ef       ?_LogWorkItemStarted@_TaskEventLogger@details@Concurrency@@QEAAXXZ 00000001400355ef f   msvcprtd:MSVCP140D.dll
 0001:000345f5       ?_LogWorkItemCompleted@_TaskEventLogger@details@Concurrency@@QEAAXXZ 00000001400355f5 f   msvcprtd:MSVCP140D.dll
 0001:000345fb       ??0?$basic_istream@DU?$char_traits@D@std@@@std@@QEAA@PEAV?$basic_streambuf@DU?$char_traits@D@std@@@1@_N@Z 00000001400355fb f   msvcprtd:MSVCP140D.dll
 0001:00034601       ??1?$basic_istream@DU?$char_traits@D@std@@@std@@UEAA@XZ 0000000140035601 f   msvcprtd:MSVCP140D.dll
 0001:00034607       ?seekg@?$basic_istream@DU?$char_traits@D@std@@@std@@QEAAAEAV12@_JH@Z 0000000140035607 f   msvcprtd:MSVCP140D.dll
 0001:0003460d       ?tellg@?$basic_istream@DU?$char_traits@D@std@@@std@@QEAA?AV?$fpos@U_Mbstatet@@@2@XZ 000000014003560d f   msvcprtd:MSVCP140D.dll
 0001:00034613       ?_Xbad_alloc@std@@YAXXZ    0000000140035613 f   msvcprtd:MSVCP140D.dll
 0001:00034620       ??_L@YAXPEAX_K1P6AX0@Z2@Z  0000000140035620 f   MSVCRTD:ehvecctr.obj
 0001:000346d0       ??_L@YAXPEAX_KHP6AX0@Z2@Z  00000001400356d0 f   MSVCRTD:ehvecctr.obj
 0001:00034720       ??_M@YAXPEAX_K1P6AX0@Z@Z   0000000140035720 f   MSVCRTD:ehvecdtr.obj
 0001:000347e0       ??_M@YAXPEAX_KHP6AX0@Z@Z   00000001400357e0 f   MSVCRTD:ehvecdtr.obj
 0001:00034890       ?__ArrayUnwind@@YAXPEAX_K1P6AX0@Z@Z 0000000140035890 f   MSVCRTD:ehvecdtr.obj
 0001:00034910       ??2@YAPEAX_K@Z             0000000140035910 f   MSVCRTD:new_scalar.obj
 0001:00034960       ??3@YAXPEAX_K@Z            0000000140035960 f   MSVCRTD:delete_scalar_size.obj
 0001:00034980       ??_U@YAPEAX_K@Z            0000000140035980 f   MSVCRTD:new_array.obj
 0001:000349a0       ??_V@YAXPEAX@Z             00000001400359a0 f   MSVCRTD:delete_array.obj
 0001:000349c0       ?configure_argv@__scrt_narrow_argv_policy@@SAHXZ 00000001400359c0 f i MSVCRTD:utility.obj
 0001:00034ab0       ?initialize_environment@__scrt_narrow_environment_policy@@SAHXZ 0000000140035ab0 f i MSVCRTD:utility.obj
 0001:00034b50       NtCurrentTeb               0000000140035b50 f i MSVCRTD:utility.obj
 0001:00034b60       __scrt_acquire_startup_lock 0000000140035b60 f   MSVCRTD:utility.obj
 0001:00034bd0       __scrt_dllmain_after_initialize_c 0000000140035bd0 f   MSVCRTD:utility.obj
 0001:00034c00       __scrt_dllmain_before_initialize_c 0000000140035c00 f   MSVCRTD:utility.obj
 0001:00034c20       __scrt_dllmain_crt_thread_attach 0000000140035c20 f   MSVCRTD:utility.obj
 0001:00034c50       __scrt_dllmain_crt_thread_detach 0000000140035c50 f   MSVCRTD:utility.obj
 0001:00034c70       __scrt_dllmain_exception_filter 0000000140035c70 f   MSVCRTD:utility.obj
 0001:00034ce0       __scrt_dllmain_uninitialize_c 0000000140035ce0 f   MSVCRTD:utility.obj
 0001:00034d10       __scrt_dllmain_uninitialize_critical 0000000140035d10 f   MSVCRTD:utility.obj
 0001:00034d30       __scrt_initialize_crt      0000000140035d30 f   MSVCRTD:utility.obj
 0001:00034d80       __scrt_initialize_onexit_tables 0000000140035d80 f   MSVCRTD:utility.obj
 0001:00034e90       __scrt_is_nonwritable_in_current_image 0000000140035e90 f   MSVCRTD:utility.obj
 0001:00034f20       __scrt_release_startup_lock 0000000140035f20 f   MSVCRTD:utility.obj
 0001:00034f50       __scrt_uninitialize_crt    0000000140035f50 f   MSVCRTD:utility.obj
 0001:00034f90       _onexit                    0000000140035f90 f   MSVCRTD:utility.obj
 0001:00035010       at_quick_exit              0000000140036010 f   MSVCRTD:utility.obj
 0001:00035060       atexit                     0000000140036060 f   MSVCRTD:utility.obj
 0001:000350a0       _RTC_AllocaHelper          00000001400360a0 f   MSVCRTD:stack.obj
 0001:000350e0       _RTC_CheckStackVars        00000001400360e0 f   MSVCRTD:stack.obj
 0001:00035170       _RTC_CheckStackVars2       0000000140036170 f   MSVCRTD:stack.obj
 0001:00035280       _CRT_RTC_INIT              0000000140036280 f   MSVCRTD:init.obj
 0001:00035290       _CRT_RTC_INITW             0000000140036290 f   MSVCRTD:init.obj
 0001:000352a0       _RTC_InitBase              00000001400362a0 f   MSVCRTD:init.obj
 0001:000352e0       _RTC_Shutdown              00000001400362e0 f   MSVCRTD:init.obj
 0001:000353a0       ?_RTC_AllocaFailure@@YAXPEAXPEAU_RTC_ALLOCA_NODE@@H@Z 00000001400363a0 f   MSVCRTD:error.obj
 0001:00035500       ?_RTC_Failure@@YAXPEAXH@Z  0000000140036500 f   MSVCRTD:error.obj
 0001:00035550       ?_RTC_StackFailure@@YAXPEAXPEBD@Z 0000000140036550 f   MSVCRTD:error.obj
 0001:00035980       _RTC_UninitUse             0000000140036980 f   MSVCRTD:error.obj
 0001:00035a50       _vsprintf_s_l              0000000140036a50 f i MSVCRTD:error.obj
 0001:00035ac0       sprintf_s                  0000000140036ac0 f i MSVCRTD:error.obj
 0001:00035af0       __CheckForDebuggerJustMyCode 0000000140036af0 f   MSVCRTD:debugger_jmc.obj
 0001:00035b30       __GSHandlerCheck           0000000140036b30 f   MSVCRTD:gshandler.obj
 0001:00035b70       __GSHandlerCheckCommon     0000000140036b70 f   MSVCRTD:gshandler.obj
 0001:00035c70       __GSHandlerCheck_EH4       0000000140036c70 f   MSVCRTD:gshandlereh4.obj
 0001:00035d30       __chkstk                   0000000140036d30 f   MSVCRTD:chkstk.obj
 0001:00035d30       _alloca_probe              0000000140036d30 f   MSVCRTD:chkstk.obj
 0001:00035d90       __security_check_cookie    0000000140036d90 f   MSVCRTD:amdsecgs.obj
 0001:00035db0       ??1type_info@@UEAA@XZ      0000000140036db0 f   MSVCRTD:std_type_info_static.obj
 0001:00035dd0       ??_Etype_info@@UEAAPEAXI@Z 0000000140036dd0 f i MSVCRTD:std_type_info_static.obj
 0001:00035dd0       ??_Gtype_info@@UEAAPEAXI@Z 0000000140036dd0 f i MSVCRTD:std_type_info_static.obj
 0001:00035e10       __raise_securityfailure    0000000140036e10 f   MSVCRTD:gs_report.obj
 0001:00035e50       __report_gsfailure         0000000140036e50 f   MSVCRTD:gs_report.obj
 0001:00035f30       __report_rangecheckfailure 0000000140036f30 f   MSVCRTD:gs_report.obj
 0001:00035f50       __report_securityfailure   0000000140036f50 f   MSVCRTD:gs_report.obj
 0001:00035ff0       __report_securityfailureEx 0000000140036ff0 f   MSVCRTD:gs_report.obj
 0001:00036260       _Init_thread_abort         0000000140037260 f   MSVCRTD:thread_safe_statics.obj
 0001:00036290       _Init_thread_footer        0000000140037290 f   MSVCRTD:thread_safe_statics.obj
 0001:000362f0       _Init_thread_header        00000001400372f0 f   MSVCRTD:thread_safe_statics.obj
 0001:00036370       _Init_thread_lock          0000000140037370 f   MSVCRTD:thread_safe_statics.obj
 0001:00036390       _Init_thread_notify        0000000140037390 f   MSVCRTD:thread_safe_statics.obj
 0001:000363b0       _Init_thread_unlock        00000001400373b0 f   MSVCRTD:thread_safe_statics.obj
 0001:000363d0       _Init_thread_wait_v2       00000001400373d0 f   MSVCRTD:thread_safe_statics.obj
 0001:000366f0       ?set_app_type@__scrt_main_policy@@SAXXZ 00000001400376f0 f i MSVCRTD:exe_main.obj
 0001:00036710       ?set_commode@__scrt_file_policy@@SAXXZ 0000000140037710 f i MSVCRTD:exe_main.obj
 0001:00036730       ?set_fmode@__scrt_file_policy@@SAXXZ 0000000140037730 f i MSVCRTD:exe_main.obj
 0001:00036750       mainCRTStartup             0000000140037750 f   MSVCRTD:exe_main.obj
 0001:00036770       _guard_check_icall_nop     0000000140037770 f i MSVCRTD:guard_support.obj
 0001:00036780       ReadNoFence64              0000000140037780 f i MSVCRTD:guard_support.obj
 0001:000367a0       ReadPointerNoFence         00000001400377a0 f i MSVCRTD:guard_support.obj
 0001:000367c0       __castguard_check_failure_debugbreak 00000001400377c0 f i MSVCRTD:guard_support.obj
 0001:000367e0       __castguard_check_failure_fastfail 00000001400377e0 f i MSVCRTD:guard_support.obj
 0001:00036810       __castguard_check_failure_nop 0000000140037810 f i MSVCRTD:guard_support.obj
 0001:00036820       __castguard_check_failure_os_handled 0000000140037820 f i MSVCRTD:guard_support.obj
 0001:00036880       __castguard_check_failure_user_handled 0000000140037880 f i MSVCRTD:guard_support.obj
 0001:00036970       __castguard_set_user_handler 0000000140037970 f i MSVCRTD:guard_support.obj
 0001:000369a0       __castguard_slow_path_check_debugbreak 00000001400379a0 f i MSVCRTD:guard_support.obj
 0001:000369e0       __castguard_slow_path_check_fastfail 00000001400379e0 f i MSVCRTD:guard_support.obj
 0001:00036a30       __castguard_slow_path_check_nop 0000000140037a30 f i MSVCRTD:guard_support.obj
 0001:00036a40       __castguard_slow_path_check_os_handled 0000000140037a40 f i MSVCRTD:guard_support.obj
 0001:00036a90       __castguard_slow_path_check_user_handled 0000000140037a90 f i MSVCRTD:guard_support.obj
 0001:00036b50       _guard_icall_checks_enforced 0000000140037b50 f i MSVCRTD:guard_support.obj
 0001:00036b90       _guard_rf_checks_enforced  0000000140037b90 f i MSVCRTD:guard_support.obj
 0001:00036ba0       ??0bad_alloc@std@@QEAA@XZ  0000000140037ba0 f i MSVCRTD:throw_bad_alloc.obj
 0001:00036be0       ?__scrt_throw_std_bad_alloc@@YAXXZ 0000000140037be0 f   MSVCRTD:throw_bad_alloc.obj
 0001:00036c10       ?__scrt_throw_std_bad_array_new_length@@YAXXZ 0000000140037c10 f   MSVCRTD:throw_bad_alloc.obj
 0001:00036c40       ??3@YAXPEAX@Z              0000000140037c40 f   MSVCRTD:delete_scalar.obj
 0001:00036c60       __isa_available_init       0000000140037c60 f   MSVCRTD:cpu_disp.obj
 0001:00037010       _get_startup_argv_mode     0000000140038010 f   MSVCRTD:argv_mode.obj
 0001:00037020       __scrt_is_ucrt_dll_in_use  0000000140038020 f   MSVCRTD:ucrt_detection.obj
 0001:00037050       __crt_debugger_hook        0000000140038050 f   MSVCRTD:utility_desktop.obj
 0001:00037060       __scrt_fastfail            0000000140038060 f   MSVCRTD:utility_desktop.obj
 0001:00037200       __scrt_get_show_window_mode 0000000140038200 f   MSVCRTD:utility_desktop.obj
 0001:00037260       __scrt_initialize_mta      0000000140038260 f   MSVCRTD:utility_desktop.obj
 0001:00037270       __scrt_initialize_winrt    0000000140038270 f   MSVCRTD:utility_desktop.obj
 0001:00037280       __scrt_is_managed_app      0000000140038280 f   MSVCRTD:utility_desktop.obj
 0001:00037330       __scrt_set_unhandled_exception_filter 0000000140038330 f   MSVCRTD:utility_desktop.obj
 0001:00037350       __scrt_exe_initialize_mta  0000000140038350 f   MSVCRTD:utility_desktop.obj
 0001:00037350       __scrt_stub_for_initialize_mta 0000000140038350 f   MSVCRTD:utility_desktop.obj
 0001:00037360       __scrt_unhandled_exception_filter 0000000140038360 f   MSVCRTD:utility_desktop.obj
 0001:00037400       ?_RTC_GetErrorFunc@@YAP6AHHPEBDH00ZZPEBX@Z 0000000140038400 f   MSVCRTD:userapi.obj
 0001:00037410       ?_RTC_GetErrorFuncW@@YAP6AHHPEB_WH00ZZPEBX@Z 0000000140038410 f   MSVCRTD:userapi.obj
 0001:00037420       _RTC_GetErrDesc            0000000140038420 f   MSVCRTD:userapi.obj
 0001:00037440       _RTC_NumErrors             0000000140038440 f   MSVCRTD:userapi.obj
 0001:00037450       _RTC_SetErrorFunc          0000000140038450 f   MSVCRTD:userapi.obj
 0001:00037470       _RTC_SetErrorFuncW         0000000140038470 f   MSVCRTD:userapi.obj
 0001:00037490       _RTC_SetErrorType          0000000140038490 f   MSVCRTD:userapi.obj
 0001:000379c0       ?_RTC_GetSrcLine@@YAHPEAEPEA_WKPEAH1K@Z 00000001400389c0 f   MSVCRTD:pdblkup.obj
 0001:00037e50       __security_init_cookie     0000000140038e50 f   MSVCRTD:gs_support.obj
 0001:00037ed0       _matherr                   0000000140038ed0 f   MSVCRTD:matherr.obj
 0001:00037ee0       _get_startup_commit_mode   0000000140038ee0 f   MSVCRTD:commit_mode.obj
 0001:00037ef0       _get_startup_file_mode     0000000140038ef0 f   MSVCRTD:file_mode.obj
 0001:00037f00       _get_startup_new_mode      0000000140038f00 f   MSVCRTD:new_mode.obj
 0001:00037f10       _get_startup_thread_locale_mode 0000000140038f10 f   MSVCRTD:thread_locale.obj
 0001:00037f20       ?__scrt_initialize_type_info@@YAXXZ 0000000140038f20 f   MSVCRTD:tncleanup.obj
 0001:00037f40       ?__scrt_uninitialize_type_info@@YAXXZ 0000000140038f40 f   MSVCRTD:tncleanup.obj
 0001:00037f60       _should_initialize_environment 0000000140038f60 f   MSVCRTD:env_mode.obj
 0001:00037f70       _initialize_invalid_parameter_handler 0000000140038f70 f   MSVCRTD:invalid_parameter_handler.obj
 0001:00037f80       _initialize_denormal_control 0000000140038f80 f   MSVCRTD:denormal_control.obj
 0001:00037f90       __local_stdio_scanf_options 0000000140038f90 f i MSVCRTD:default_local_stdio_options.obj
 0001:00037fa0       __scrt_initialize_default_local_stdio_options 0000000140038fa0 f   MSVCRTD:default_local_stdio_options.obj
 0001:00037ff0       __scrt_is_user_matherr_present 0000000140038ff0 f   MSVCRTD:matherr_detection.obj
 0001:00038020       __scrt_get_dyn_tls_init_callback 0000000140039020 f   MSVCRTD:dyn_tls_init.obj
 0001:00038030       __scrt_get_dyn_tls_dtor_callback 0000000140039030 f   MSVCRTD:dyn_tls_dtor.obj
 0001:00038040       _RTC_Initialize            0000000140039040 f   MSVCRTD:initsect.obj
 0001:00038090       _RTC_Terminate             0000000140039090 f   MSVCRTD:initsect.obj
 0001:000380e0       __std_exception_copy       00000001400390e0 f   vcruntimed:VCRUNTIME140D.dll
 0001:000380e6       __std_exception_destroy    00000001400390e6 f   vcruntimed:VCRUNTIME140D.dll
 0001:000380ec       memcpy                     00000001400390ec f   vcruntimed:VCRUNTIME140D.dll
 0001:000380f2       memmove                    00000001400390f2 f   vcruntimed:VCRUNTIME140D.dll
 0001:000380f8       memset                     00000001400390f8 f   vcruntimed:VCRUNTIME140D.dll
 0001:000380fe       _CxxThrowException         00000001400390fe f   vcruntimed:VCRUNTIME140D.dll
 0001:00038104       __CxxFrameHandler4         0000000140039104 f   vcruntimed:VCRUNTIME140_1D.dll
 0001:0003810a       memchr                     000000014003910a f   vcruntimed:VCRUNTIME140D.dll
 0001:00038110       _purecall                  0000000140039110 f   vcruntimed:VCRUNTIME140D.dll
 0001:00038116       __C_specific_handler       0000000140039116 f   vcruntimed:VCRUNTIME140D.dll
 0001:0003811c       __current_exception        000000014003911c f   vcruntimed:VCRUNTIME140D.dll
 0001:00038122       __current_exception_context 0000000140039122 f   vcruntimed:VCRUNTIME140D.dll
 0001:00038128       __C_specific_handler_noexcept 0000000140039128 f   vcruntimed:VCRUNTIME140D.dll
 0001:0003812e       __vcrt_GetModuleFileNameW  000000014003912e f   vcruntimed:VCRUNTIME140D.dll
 0001:00038134       __vcrt_GetModuleHandleW    0000000140039134 f   vcruntimed:VCRUNTIME140D.dll
 0001:0003813a       __vcrt_LoadLibraryExW      000000014003913a f   vcruntimed:VCRUNTIME140D.dll
 0001:00038140       __std_type_info_destroy_list 0000000140039140 f   vcruntimed:VCRUNTIME140D.dll
 0001:00038146       _invalid_parameter         0000000140039146 f   ucrtd:ucrtbased.dll
 0001:0003814c       _CrtDbgReport              000000014003914c f   ucrtd:ucrtbased.dll
 0001:00038152       __acrt_iob_func            0000000140039152 f   ucrtd:ucrtbased.dll
 0001:00038158       __stdio_common_vfprintf    0000000140039158 f   ucrtd:ucrtbased.dll
 0001:0003815e       __stdio_common_vsprintf    000000014003915e f   ucrtd:ucrtbased.dll
 0001:00038164       abs                        0000000140039164 f   ucrtd:ucrtbased.dll
 0001:0003816a       exp                        000000014003916a f   ucrtd:ucrtbased.dll
 0001:00038170       log10                      0000000140039170 f   ucrtd:ucrtbased.dll
 0001:00038176       pow                        0000000140039176 f   ucrtd:ucrtbased.dll
 0001:0003817c       sqrt                       000000014003917c f   ucrtd:ucrtbased.dll
 0001:00038182       sqrtf                      0000000140039182 f   ucrtd:ucrtbased.dll
 0001:00038188       strcmp                     0000000140039188 f   ucrtd:ucrtbased.dll
 0001:0003818e       strlen                     000000014003918e f   ucrtd:ucrtbased.dll
 0001:00038194       _localtime64               0000000140039194 f   ucrtd:ucrtbased.dll
 0001:0003819a       _time64                    000000014003919a f   ucrtd:ucrtbased.dll
 0001:000381a0       floorf                     00000001400391a0 f   ucrtd:ucrtbased.dll
 0001:000381a6       _get_stream_buffer_pointers 00000001400391a6 f   ucrtd:ucrtbased.dll
 0001:000381ac       fclose                     00000001400391ac f   ucrtd:ucrtbased.dll
 0001:000381b2       fflush                     00000001400391b2 f   ucrtd:ucrtbased.dll
 0001:000381b8       fgetc                      00000001400391b8 f   ucrtd:ucrtbased.dll
 0001:000381be       fgetpos                    00000001400391be f   ucrtd:ucrtbased.dll
 0001:000381c4       fgets                      00000001400391c4 f   ucrtd:ucrtbased.dll
 0001:000381ca       fopen                      00000001400391ca f   ucrtd:ucrtbased.dll
 0001:000381d0       fputc                      00000001400391d0 f   ucrtd:ucrtbased.dll
 0001:000381d6       fread                      00000001400391d6 f   ucrtd:ucrtbased.dll
 0001:000381dc       fsetpos                    00000001400391dc f   ucrtd:ucrtbased.dll
 0001:000381e2       _fseeki64                  00000001400391e2 f   ucrtd:ucrtbased.dll
 0001:000381e8       fwrite                     00000001400391e8 f   ucrtd:ucrtbased.dll
 0001:000381ee       setvbuf                    00000001400391ee f   ucrtd:ucrtbased.dll
 0001:000381f4       ungetc                     00000001400391f4 f   ucrtd:ucrtbased.dll
 0001:000381fa       _lock_file                 00000001400391fa f   ucrtd:ucrtbased.dll
 0001:00038200       _unlock_file               0000000140039200 f   ucrtd:ucrtbased.dll
 0001:00038206       free                       0000000140039206 f   ucrtd:ucrtbased.dll
 0001:0003820c       malloc                     000000014003920c f   ucrtd:ucrtbased.dll
 0001:00038212       atoi                       0000000140039212 f   ucrtd:ucrtbased.dll
 0001:00038218       _mkdir                     0000000140039218 f   ucrtd:ucrtbased.dll
 0001:0003821e       abort                      000000014003921e f   ucrtd:ucrtbased.dll
 0001:00038224       _CrtDbgReportW             0000000140039224 f   ucrtd:ucrtbased.dll
 0001:0003822a       _wassert                   000000014003922a f   ucrtd:ucrtbased.dll
 0001:00038230       _free_dbg                  0000000140039230 f   ucrtd:ucrtbased.dll
 0001:00038236       _malloc_dbg                0000000140039236 f   ucrtd:ucrtbased.dll
 0001:0003823c       terminate                  000000014003923c f   ucrtd:ucrtbased.dll
 0001:00038242       _callnewh                  0000000140039242 f   ucrtd:ucrtbased.dll
 0001:00038248       _seh_filter_dll            0000000140039248 f   ucrtd:ucrtbased.dll
 0001:0003824e       _configure_narrow_argv     000000014003924e f   ucrtd:ucrtbased.dll
 0001:00038254       _initialize_narrow_environment 0000000140039254 f   ucrtd:ucrtbased.dll
 0001:0003825a       _initialize_onexit_table   000000014003925a f   ucrtd:ucrtbased.dll
 0001:00038260       _register_onexit_function  0000000140039260 f   ucrtd:ucrtbased.dll
 0001:00038266       _execute_onexit_table      0000000140039266 f   ucrtd:ucrtbased.dll
 0001:0003826c       _crt_atexit                000000014003926c f   ucrtd:ucrtbased.dll
 0001:00038272       _crt_at_quick_exit         0000000140039272 f   ucrtd:ucrtbased.dll
 0001:00038278       _cexit                     0000000140039278 f   ucrtd:ucrtbased.dll
 0001:0003827e       strcpy_s                   000000014003927e f   ucrtd:ucrtbased.dll
 0001:00038284       strcat_s                   0000000140039284 f   ucrtd:ucrtbased.dll
 0001:0003828a       __stdio_common_vsprintf_s  000000014003928a f   ucrtd:ucrtbased.dll
 0001:00038290       _seh_filter_exe            0000000140039290 f   ucrtd:ucrtbased.dll
 0001:00038296       _set_app_type              0000000140039296 f   ucrtd:ucrtbased.dll
 0001:0003829c       __setusermatherr           000000014003929c f   ucrtd:ucrtbased.dll
 0001:000382a2       _get_initial_narrow_environment 00000001400392a2 f   ucrtd:ucrtbased.dll
 0001:000382a8       _initterm                  00000001400392a8 f   ucrtd:ucrtbased.dll
 0001:000382ae       _initterm_e                00000001400392ae f   ucrtd:ucrtbased.dll
 0001:000382b4       exit                       00000001400392b4 f   ucrtd:ucrtbased.dll
 0001:000382ba       _exit                      00000001400392ba f   ucrtd:ucrtbased.dll
 0001:000382c0       _set_fmode                 00000001400392c0 f   ucrtd:ucrtbased.dll
 0001:000382c6       __p___argc                 00000001400392c6 f   ucrtd:ucrtbased.dll
 0001:000382cc       __p___argv                 00000001400392cc f   ucrtd:ucrtbased.dll
 0001:000382d2       _c_exit                    00000001400392d2 f   ucrtd:ucrtbased.dll
 0001:000382d8       _register_thread_local_exe_atexit_callback 00000001400392d8 f   ucrtd:ucrtbased.dll
 0001:000382de       _configthreadlocale        00000001400392de f   ucrtd:ucrtbased.dll
 0001:000382e4       _set_new_mode              00000001400392e4 f   ucrtd:ucrtbased.dll
 0001:000382ea       __p__commode               00000001400392ea f   ucrtd:ucrtbased.dll
 0001:000382f0       _wmakepath_s               00000001400392f0 f   ucrtd:ucrtbased.dll
 0001:000382f6       _wsplitpath_s              00000001400392f6 f   ucrtd:ucrtbased.dll
 0001:000382fc       wcscpy_s                   00000001400392fc f   ucrtd:ucrtbased.dll
 0001:00038302       InitOnceBeginInitialize    0000000140039302 f   kernel32:KERNEL32.dll
 0001:00038308       InitOnceComplete           0000000140039308 f   kernel32:KERNEL32.dll
 0001:0003830e       IsDebuggerPresent          000000014003930e f   kernel32:KERNEL32.dll
 0001:00038314       RaiseException             0000000140039314 f   kernel32:KERNEL32.dll
 0001:0003831a       MultiByteToWideChar        000000014003931a f   kernel32:KERNEL32.dll
 0001:00038320       GetCurrentThreadId         0000000140039320 f   kernel32:KERNEL32.dll
 0001:00038326       RtlCaptureContext          0000000140039326 f   kernel32:KERNEL32.dll
 0001:0003832c       RtlLookupFunctionEntry     000000014003932c f   kernel32:KERNEL32.dll
 0001:00038332       RtlVirtualUnwind           0000000140039332 f   kernel32:KERNEL32.dll
 0001:00038338       UnhandledExceptionFilter   0000000140039338 f   kernel32:KERNEL32.dll
 0001:0003833e       SetUnhandledExceptionFilter 000000014003933e f   kernel32:KERNEL32.dll
 0001:00038344       GetCurrentProcess          0000000140039344 f   kernel32:KERNEL32.dll
 0001:0003834a       TerminateProcess           000000014003934a f   kernel32:KERNEL32.dll
 0001:00038350       IsProcessorFeaturePresent  0000000140039350 f   kernel32:KERNEL32.dll
 0001:00038356       ReleaseSRWLockExclusive    0000000140039356 f   kernel32:KERNEL32.dll
 0001:0003835c       AcquireSRWLockExclusive    000000014003935c f   kernel32:KERNEL32.dll
 0001:00038362       WakeAllConditionVariable   0000000140039362 f   kernel32:KERNEL32.dll
 0001:00038368       SleepConditionVariableSRW  0000000140039368 f   kernel32:KERNEL32.dll
 0001:0003836e       GetStartupInfoW            000000014003936e f   kernel32:KERNEL32.dll
 0001:00038374       GetModuleHandleW           0000000140039374 f   kernel32:KERNEL32.dll
 0001:0003837a       GetLastError               000000014003937a f   kernel32:KERNEL32.dll
 0001:00038380       HeapAlloc                  0000000140039380 f   kernel32:KERNEL32.dll
 0001:00038386       HeapFree                   0000000140039386 f   kernel32:KERNEL32.dll
 0001:0003838c       GetProcessHeap             000000014003938c f   kernel32:KERNEL32.dll
 0001:00038392       VirtualQuery               0000000140039392 f   kernel32:KERNEL32.dll
 0001:00038398       FreeLibrary                0000000140039398 f   kernel32:KERNEL32.dll
 0001:0003839e       GetProcAddress             000000014003939e f   kernel32:KERNEL32.dll
 0001:000383a4       GetCurrentProcessId        00000001400393a4 f   kernel32:KERNEL32.dll
 0001:000383aa       GetSystemTimeAsFileTime    00000001400393aa f   kernel32:KERNEL32.dll
 0001:000383b0       InitializeSListHead        00000001400393b0 f   kernel32:KERNEL32.dll
 0001:000383c0       __acrt_initialize          00000001400393c0 f   MSVCRTD:ucrt_stubs.obj
 0001:000383c0       __scrt_stub_for_acrt_initialize 00000001400393c0 f   MSVCRTD:ucrt_stubs.obj
 0001:000383c0       __vcrt_initialize          00000001400393c0 f   MSVCRTD:ucrt_stubs.obj
 0001:000383d0       __acrt_thread_attach       00000001400393d0 f   MSVCRTD:ucrt_stubs.obj
 0001:000383d0       __scrt_stub_for_acrt_thread_attach 00000001400393d0 f   MSVCRTD:ucrt_stubs.obj
 0001:000383d0       __vcrt_thread_attach       00000001400393d0 f   MSVCRTD:ucrt_stubs.obj
 0001:000383e0       __acrt_thread_detach       00000001400393e0 f   MSVCRTD:ucrt_stubs.obj
 0001:000383e0       __scrt_stub_for_acrt_thread_detach 00000001400393e0 f   MSVCRTD:ucrt_stubs.obj
 0001:000383e0       __vcrt_thread_detach       00000001400393e0 f   MSVCRTD:ucrt_stubs.obj
 0001:000383f0       __acrt_uninitialize        00000001400393f0 f   MSVCRTD:ucrt_stubs.obj
 0001:000383f0       __scrt_stub_for_acrt_uninitialize 00000001400393f0 f   MSVCRTD:ucrt_stubs.obj
 0001:000383f0       __vcrt_uninitialize        00000001400393f0 f   MSVCRTD:ucrt_stubs.obj
 0001:00038400       __acrt_uninitialize_critical 0000000140039400 f   MSVCRTD:ucrt_stubs.obj
 0001:00038400       __scrt_stub_for_acrt_uninitialize_critical 0000000140039400 f   MSVCRTD:ucrt_stubs.obj
 0001:00038400       __vcrt_uninitialize_critical 0000000140039400 f   MSVCRTD:ucrt_stubs.obj
 0001:00038410       __scrt_stub_for_is_c_termination_complete 0000000140039410 f   MSVCRTD:ucrt_stubs.obj
 0001:00038410       _is_c_termination_complete 0000000140039410 f   MSVCRTD:ucrt_stubs.obj
 0001:00038430       _guard_dispatch_icall_nop  0000000140039430 f   MSVCRTD:guard_dispatch.obj
 0001:00038450       _guard_xfg_dispatch_icall_nop 0000000140039450 f   MSVCRTD:guard_xfg_dispatch.obj
 0001:0003a390       ??__F_S_scheduler@?1??_GetStaticAmbientSchedulerStorage@details@Concurrency@@YAPEAV?$shared_ptr@Uscheduler_interface@Concurrency@@@std@@XZ@YAXXZ 000000014003b390 f i test.obj
 0002:00000000       __imp_WideCharToMultiByte  000000014003c000     kernel32:KERNEL32.dll
 0002:00000008       __imp_GetModuleFileNameW   000000014003c008     kernel32:KERNEL32.dll
 0002:00000010       __imp_GetModuleHandleExW   000000014003c010     kernel32:KERNEL32.dll
 0002:00000018       __imp_QueryPerformanceCounter 000000014003c018     kernel32:KERNEL32.dll
 0002:00000020       __imp_QueryPerformanceFrequency 000000014003c020     kernel32:KERNEL32.dll
 0002:00000028       __imp_GetSystemTimeAsFileTime 000000014003c028     kernel32:KERNEL32.dll
 0002:00000030       __imp_GetCurrentProcessId  000000014003c030     kernel32:KERNEL32.dll
 0002:00000038       __imp_GetProcAddress       000000014003c038     kernel32:KERNEL32.dll
 0002:00000040       __imp_FreeLibrary          000000014003c040     kernel32:KERNEL32.dll
 0002:00000048       __imp_VirtualQuery         000000014003c048     kernel32:KERNEL32.dll
 0002:00000050       __imp_GetProcessHeap       000000014003c050     kernel32:KERNEL32.dll
 0002:00000058       __imp_HeapFree             000000014003c058     kernel32:KERNEL32.dll
 0002:00000060       __imp_HeapAlloc            000000014003c060     kernel32:KERNEL32.dll
 0002:00000068       __imp_GetLastError         000000014003c068     kernel32:KERNEL32.dll
 0002:00000070       __imp_GetModuleHandleW     000000014003c070     kernel32:KERNEL32.dll
 0002:00000078       __imp_GetStartupInfoW      000000014003c078     kernel32:KERNEL32.dll
 0002:00000080       __imp_SleepConditionVariableSRW 000000014003c080     kernel32:KERNEL32.dll
 0002:00000088       __imp_WakeAllConditionVariable 000000014003c088     kernel32:KERNEL32.dll
 0002:00000090       __imp_AcquireSRWLockExclusive 000000014003c090     kernel32:KERNEL32.dll
 0002:00000098       __imp_ReleaseSRWLockExclusive 000000014003c098     kernel32:KERNEL32.dll
 0002:000000a0       __imp_IsProcessorFeaturePresent 000000014003c0a0     kernel32:KERNEL32.dll
 0002:000000a8       __imp_TerminateProcess     000000014003c0a8     kernel32:KERNEL32.dll
 0002:000000b0       __imp_GetCurrentProcess    000000014003c0b0     kernel32:KERNEL32.dll
 0002:000000b8       __imp_SetUnhandledExceptionFilter 000000014003c0b8     kernel32:KERNEL32.dll
 0002:000000c0       __imp_UnhandledExceptionFilter 000000014003c0c0     kernel32:KERNEL32.dll
 0002:000000c8       __imp_RtlVirtualUnwind     000000014003c0c8     kernel32:KERNEL32.dll
 0002:000000d0       __imp_RtlLookupFunctionEntry 000000014003c0d0     kernel32:KERNEL32.dll
 0002:000000d8       __imp_RtlCaptureContext    000000014003c0d8     kernel32:KERNEL32.dll
 0002:000000e0       __imp_GetCurrentThreadId   000000014003c0e0     kernel32:KERNEL32.dll
 0002:000000e8       __imp_MultiByteToWideChar  000000014003c0e8     kernel32:KERNEL32.dll
 0002:000000f0       __imp_RaiseException       000000014003c0f0     kernel32:KERNEL32.dll
 0002:000000f8       __imp_IsDebuggerPresent    000000014003c0f8     kernel32:KERNEL32.dll
 0002:00000100       __imp_InitOnceComplete     000000014003c100     kernel32:KERNEL32.dll
 0002:00000100       __imp___std_init_once_complete 000000014003c100     kernel32:KERNEL32.dll
 0002:00000108       __imp_InitOnceBeginInitialize 000000014003c108     kernel32:KERNEL32.dll
 0002:00000108       __imp___std_init_once_begin_initialize 000000014003c108     kernel32:KERNEL32.dll
 0002:00000110       __imp_InitializeSListHead  000000014003c110     kernel32:KERNEL32.dll
 0002:00000118       \177KERNEL32_NULL_THUNK_DATA 000000014003c118     kernel32:KERNEL32.dll
 0002:00000120       __imp_?xsputn@?$basic_streambuf@DU?$char_traits@D@std@@@std@@MEAA_JPEBD_J@Z 000000014003c120     msvcprtd:MSVCP140D.dll
 0002:00000128       __imp_?_Fiopen@std@@YAPEAU_iobuf@@PEBDHH@Z 000000014003c128     msvcprtd:MSVCP140D.dll
 0002:00000130       __imp_??1?$basic_ios@DU?$char_traits@D@std@@@std@@UEAA@XZ 000000014003c130     msvcprtd:MSVCP140D.dll
 0002:00000138       __imp_?clear@?$basic_ios@DU?$char_traits@D@std@@@std@@QEAAXH_N@Z 000000014003c138     msvcprtd:MSVCP140D.dll
 0002:00000140       __imp_?setstate@?$basic_ios@DU?$char_traits@D@std@@@std@@QEAAXH_N@Z 000000014003c140     msvcprtd:MSVCP140D.dll
 0002:00000148       __imp_??0?$basic_ios@DU?$char_traits@D@std@@@std@@IEAA@XZ 000000014003c148     msvcprtd:MSVCP140D.dll
 0002:00000150       __imp_?read@?$basic_istream@DU?$char_traits@D@std@@@std@@QEAAAEAV12@PEAD_J@Z 000000014003c150     msvcprtd:MSVCP140D.dll
 0002:00000158       __imp_??0?$basic_iostream@DU?$char_traits@D@std@@@std@@QEAA@PEAV?$basic_streambuf@DU?$char_traits@D@std@@@1@@Z 000000014003c158     msvcprtd:MSVCP140D.dll
 0002:00000160       __imp_??1?$basic_iostream@DU?$char_traits@D@std@@@std@@UEAA@XZ 000000014003c160     msvcprtd:MSVCP140D.dll
 0002:00000168       __imp_?showmanyc@?$basic_streambuf@DU?$char_traits@D@std@@@std@@MEAA_JXZ 000000014003c168     msvcprtd:MSVCP140D.dll
 0002:00000170       __imp_?id@?$codecvt@DDU_Mbstatet@@@std@@2V0locale@2@A 000000014003c170     msvcprtd:MSVCP140D.dll
 0002:00000178       __imp_?__ExceptionPtrCreate@@YAXPEAX@Z 000000014003c178     msvcprtd:MSVCP140D.dll
 0002:00000180       __imp_?__ExceptionPtrDestroy@@YAXPEAX@Z 000000014003c180     msvcprtd:MSVCP140D.dll
 0002:00000188       __imp_?__ExceptionPtrCopy@@YAXPEAXPEBX@Z 000000014003c188     msvcprtd:MSVCP140D.dll
 0002:00000190       __imp_?__ExceptionPtrAssign@@YAXPEAXPEBX@Z 000000014003c190     msvcprtd:MSVCP140D.dll
 0002:00000198       __imp_?__ExceptionPtrToBool@@YA_NPEBX@Z 000000014003c198     msvcprtd:MSVCP140D.dll
 0002:000001a0       __imp_?__ExceptionPtrCurrentException@@YAXPEAX@Z 000000014003c1a0     msvcprtd:MSVCP140D.dll
 0002:000001a8       __imp_?__ExceptionPtrRethrow@@YAXPEBX@Z 000000014003c1a8     msvcprtd:MSVCP140D.dll
 0002:000001b0       __imp__Mtx_init_in_situ    000000014003c1b0     msvcprtd:MSVCP140D.dll
 0002:000001b8       __imp__Mtx_destroy_in_situ 000000014003c1b8     msvcprtd:MSVCP140D.dll
 0002:000001c0       __imp__Mtx_lock            000000014003c1c0     msvcprtd:MSVCP140D.dll
 0002:000001c8       __imp__Mtx_unlock          000000014003c1c8     msvcprtd:MSVCP140D.dll
 0002:000001d0       __imp__Cnd_init_in_situ    000000014003c1d0     msvcprtd:MSVCP140D.dll
 0002:000001d8       __imp__Cnd_destroy_in_situ 000000014003c1d8     msvcprtd:MSVCP140D.dll
 0002:000001e0       __imp__Cnd_wait            000000014003c1e0     msvcprtd:MSVCP140D.dll
 0002:000001e8       __imp__Cnd_broadcast       000000014003c1e8     msvcprtd:MSVCP140D.dll
 0002:000001f0       __imp__Cnd_register_at_thread_exit 000000014003c1f0     msvcprtd:MSVCP140D.dll
 0002:000001f8       __imp__Cnd_unregister_at_thread_exit 000000014003c1f8     msvcprtd:MSVCP140D.dll
 0002:00000200       __imp_?_Throw_Cpp_error@std@@YAXH@Z 000000014003c200     msvcprtd:MSVCP140D.dll
 0002:00000208       __imp_?_Syserror_map@std@@YAPEBDH@Z 000000014003c208     msvcprtd:MSVCP140D.dll
 0002:00000210       __imp_?_Xbad_function_call@std@@YAXXZ 000000014003c210     msvcprtd:MSVCP140D.dll
 0002:00000218       __imp_?_Schedule_chore@details@Concurrency@@YAHPEAU_Threadpool_chore@12@@Z 000000014003c218     msvcprtd:MSVCP140D.dll
 0002:00000220       __imp_?_Release_chore@details@Concurrency@@YAXPEAU_Threadpool_chore@12@@Z 000000014003c220     msvcprtd:MSVCP140D.dll
 0002:00000228       __imp_?_ReportUnobservedException@details@Concurrency@@YAXXZ 000000014003c228     msvcprtd:MSVCP140D.dll
 0002:00000230       __imp_?CaptureCallstack@platform@details@Concurrency@@YA_KPEAPEAX_K1@Z 000000014003c230     msvcprtd:MSVCP140D.dll
 0002:00000238       __imp_?GetCurrentThreadId@platform@details@Concurrency@@YAJXZ 000000014003c238     msvcprtd:MSVCP140D.dll
 0002:00000240       __imp_?_CallInContext@_ContextCallback@details@Concurrency@@QEBAXV?$function@$$A6AXXZ@std@@_N@Z 000000014003c240     msvcprtd:MSVCP140D.dll
 0002:00000248       __imp_?_Reset@_ContextCallback@details@Concurrency@@AEAAXXZ 000000014003c248     msvcprtd:MSVCP140D.dll
 0002:00000250       __imp_?_Capture@_ContextCallback@details@Concurrency@@AEAAXXZ 000000014003c250     msvcprtd:MSVCP140D.dll
 0002:00000258       __imp_?ReportUnhandledError@_ExceptionHolder@details@Concurrency@@AEAAXXZ 000000014003c258     msvcprtd:MSVCP140D.dll
 0002:00000260       __imp_??0task_continuation_context@Concurrency@@AEAA@XZ 000000014003c260     msvcprtd:MSVCP140D.dll
 0002:00000268       __imp_?_LogScheduleTask@_TaskEventLogger@details@Concurrency@@QEAAX_N@Z 000000014003c268     msvcprtd:MSVCP140D.dll
 0002:00000270       __imp_?_LogCancelTask@_TaskEventLogger@details@Concurrency@@QEAAXXZ 000000014003c270     msvcprtd:MSVCP140D.dll
 0002:00000278       __imp_?_LogTaskCompleted@_TaskEventLogger@details@Concurrency@@QEAAXXZ 000000014003c278     msvcprtd:MSVCP140D.dll
 0002:00000280       __imp_?_LogTaskExecutionCompleted@_TaskEventLogger@details@Concurrency@@QEAAXXZ 000000014003c280     msvcprtd:MSVCP140D.dll
 0002:00000288       __imp_?_LogWorkItemStarted@_TaskEventLogger@details@Concurrency@@QEAAXXZ 000000014003c288     msvcprtd:MSVCP140D.dll
 0002:00000290       __imp_?_LogWorkItemCompleted@_TaskEventLogger@details@Concurrency@@QEAAXXZ 000000014003c290     msvcprtd:MSVCP140D.dll
 0002:00000298       __imp_??0?$basic_istream@DU?$char_traits@D@std@@@std@@QEAA@PEAV?$basic_streambuf@DU?$char_traits@D@std@@@1@_N@Z 000000014003c298     msvcprtd:MSVCP140D.dll
 0002:000002a0       __imp_??1?$basic_istream@DU?$char_traits@D@std@@@std@@UEAA@XZ 000000014003c2a0     msvcprtd:MSVCP140D.dll
 0002:000002a8       __imp_?seekg@?$basic_istream@DU?$char_traits@D@std@@@std@@QEAAAEAV12@_JH@Z 000000014003c2a8     msvcprtd:MSVCP140D.dll
 0002:000002b0       __imp_?tellg@?$basic_istream@DU?$char_traits@D@std@@@std@@QEAA?AV?$fpos@U_Mbstatet@@@2@XZ 000000014003c2b0     msvcprtd:MSVCP140D.dll
 0002:000002b8       __imp_?_Xbad_alloc@std@@YAXXZ 000000014003c2b8     msvcprtd:MSVCP140D.dll
 0002:000002c0       __imp_?_Pnavail@?$basic_streambuf@DU?$char_traits@D@std@@@std@@IEBA_JXZ 000000014003c2c0     msvcprtd:MSVCP140D.dll
 0002:000002c8       __imp_?_Pninc@?$basic_streambuf@DU?$char_traits@D@std@@@std@@IEAAPEADXZ 000000014003c2c8     msvcprtd:MSVCP140D.dll
 0002:000002d0       __imp_?pbump@?$basic_streambuf@DU?$char_traits@D@std@@@std@@IEAAXH@Z 000000014003c2d0     msvcprtd:MSVCP140D.dll
 0002:000002d8       __imp_?_Gnavail@?$basic_streambuf@DU?$char_traits@D@std@@@std@@IEBA_JXZ 000000014003c2d8     msvcprtd:MSVCP140D.dll
 0002:000002e0       __imp_?_Gninc@?$basic_streambuf@DU?$char_traits@D@std@@@std@@IEAAPEADXZ 000000014003c2e0     msvcprtd:MSVCP140D.dll
 0002:000002e8       __imp_?_Gndec@?$basic_streambuf@DU?$char_traits@D@std@@@std@@IEAAPEADXZ 000000014003c2e8     msvcprtd:MSVCP140D.dll
 0002:000002f0       __imp_?epptr@?$basic_streambuf@DU?$char_traits@D@std@@@std@@IEBAPEADXZ 000000014003c2f0     msvcprtd:MSVCP140D.dll
 0002:000002f8       __imp_?xsgetn@?$basic_streambuf@DU?$char_traits@D@std@@@std@@MEAA_JPEAD_J@Z 000000014003c2f8     msvcprtd:MSVCP140D.dll
 0002:00000300       __imp_?setg@?$basic_streambuf@DU?$char_traits@D@std@@@std@@IEAAXPEAD00@Z 000000014003c300     msvcprtd:MSVCP140D.dll
 0002:00000308       __imp_?gbump@?$basic_streambuf@DU?$char_traits@D@std@@@std@@IEAAXH@Z 000000014003c308     msvcprtd:MSVCP140D.dll
 0002:00000310       __imp_?egptr@?$basic_streambuf@DU?$char_traits@D@std@@@std@@IEBAPEADXZ 000000014003c310     msvcprtd:MSVCP140D.dll
 0002:00000318       __imp_?pptr@?$basic_streambuf@DU?$char_traits@D@std@@@std@@IEBAPEADXZ 000000014003c318     msvcprtd:MSVCP140D.dll
 0002:00000320       __imp_?gptr@?$basic_streambuf@DU?$char_traits@D@std@@@std@@IEBAPEADXZ 000000014003c320     msvcprtd:MSVCP140D.dll
 0002:00000328       __imp_?eback@?$basic_streambuf@DU?$char_traits@D@std@@@std@@IEBAPEADXZ 000000014003c328     msvcprtd:MSVCP140D.dll
 0002:00000330       __imp_?getloc@?$basic_streambuf@DU?$char_traits@D@std@@@std@@QEBA?AVlocale@2@XZ 000000014003c330     msvcprtd:MSVCP140D.dll
 0002:00000338       __imp_??1?$basic_streambuf@DU?$char_traits@D@std@@@std@@UEAA@XZ 000000014003c338     msvcprtd:MSVCP140D.dll
 0002:00000340       __imp_??0?$basic_streambuf@DU?$char_traits@D@std@@@std@@IEAA@XZ 000000014003c340     msvcprtd:MSVCP140D.dll
 0002:00000348       __imp_?_Getcat@?$codecvt@DDU_Mbstatet@@@std@@SA_KPEAPEBVfacet@locale@2@PEBV42@@Z 000000014003c348     msvcprtd:MSVCP140D.dll
 0002:00000350       __imp_?_Init@?$basic_streambuf@DU?$char_traits@D@std@@@std@@IEAAXPEAPEAD0PEAH001@Z 000000014003c350     msvcprtd:MSVCP140D.dll
 0002:00000358       __imp_??0_Lockit@std@@QEAA@H@Z 000000014003c358     msvcprtd:MSVCP140D.dll
 0002:00000360       __imp_??1_Lockit@std@@QEAA@XZ 000000014003c360     msvcprtd:MSVCP140D.dll
 0002:00000368       __imp_?_Xlength_error@std@@YAXPEBD@Z 000000014003c368     msvcprtd:MSVCP140D.dll
 0002:00000370       __imp_?_Xout_of_range@std@@YAXPEBD@Z 000000014003c370     msvcprtd:MSVCP140D.dll
 0002:00000378       __imp_??Bid@locale@std@@QEAA_KXZ 000000014003c378     msvcprtd:MSVCP140D.dll
 0002:00000380       __imp_?_Getgloballocale@locale@std@@CAPEAV_Locimp@12@XZ 000000014003c380     msvcprtd:MSVCP140D.dll
 0002:00000388       __imp_?always_noconv@codecvt_base@std@@QEBA_NXZ 000000014003c388     msvcprtd:MSVCP140D.dll
 0002:00000390       __imp_?in@?$codecvt@DDU_Mbstatet@@@std@@QEBAHAEAU_Mbstatet@@PEBD1AEAPEBDPEAD3AEAPEAD@Z 000000014003c390     msvcprtd:MSVCP140D.dll
 0002:00000398       __imp_?out@?$codecvt@DDU_Mbstatet@@@std@@QEBAHAEAU_Mbstatet@@PEBD1AEAPEBDPEAD3AEAPEAD@Z 000000014003c398     msvcprtd:MSVCP140D.dll
 0002:000003a0       __imp_?unshift@?$codecvt@DDU_Mbstatet@@@std@@QEBAHAEAU_Mbstatet@@PEAD1AEAPEAD@Z 000000014003c3a0     msvcprtd:MSVCP140D.dll
 0002:000003a8       __imp_?_Init@?$basic_streambuf@DU?$char_traits@D@std@@@std@@IEAAXXZ 000000014003c3a8     msvcprtd:MSVCP140D.dll
 0002:000003b0       \177MSVCP140D_NULL_THUNK_DATA 000000014003c3b0     msvcprtd:MSVCP140D.dll
 0002:000003b8       __imp___vcrt_GetModuleFileNameW 000000014003c3b8     vcruntimed:VCRUNTIME140D.dll
 0002:000003c0       __imp___C_specific_handler_noexcept 000000014003c3c0     vcruntimed:VCRUNTIME140D.dll
 0002:000003c8       __imp___current_exception_context 000000014003c3c8     vcruntimed:VCRUNTIME140D.dll
 0002:000003d0       __imp___current_exception  000000014003c3d0     vcruntimed:VCRUNTIME140D.dll
 0002:000003d8       __imp___vcrt_GetModuleHandleW 000000014003c3d8     vcruntimed:VCRUNTIME140D.dll
 0002:000003e0       __imp___vcrt_LoadLibraryExW 000000014003c3e0     vcruntimed:VCRUNTIME140D.dll
 0002:000003e8       __imp___C_specific_handler 000000014003c3e8     vcruntimed:VCRUNTIME140D.dll
 0002:000003f0       __imp__purecall            000000014003c3f0     vcruntimed:VCRUNTIME140D.dll
 0002:000003f8       __imp_memchr               000000014003c3f8     vcruntimed:VCRUNTIME140D.dll
 0002:00000400       __imp__CxxThrowException   000000014003c400     vcruntimed:VCRUNTIME140D.dll
 0002:00000408       __imp_memset               000000014003c408     vcruntimed:VCRUNTIME140D.dll
 0002:00000410       __imp_memmove              000000014003c410     vcruntimed:VCRUNTIME140D.dll
 0002:00000418       __imp_memcpy               000000014003c418     vcruntimed:VCRUNTIME140D.dll
 0002:00000420       __imp___std_exception_destroy 000000014003c420     vcruntimed:VCRUNTIME140D.dll
 0002:00000428       __imp___std_exception_copy 000000014003c428     vcruntimed:VCRUNTIME140D.dll
 0002:00000430       __imp___std_type_info_destroy_list 000000014003c430     vcruntimed:VCRUNTIME140D.dll
 0002:00000438       \177VCRUNTIME140D_NULL_THUNK_DATA 000000014003c438     vcruntimed:VCRUNTIME140D.dll
 0002:00000440       __imp___CxxFrameHandler4   000000014003c440     vcruntimed:VCRUNTIME140_1D.dll
 0002:00000448       \177VCRUNTIME140_1D_NULL_THUNK_DATA 000000014003c448     vcruntimed:VCRUNTIME140_1D.dll
 0002:00000450       __imp__lock_file           000000014003c450     ucrtd:ucrtbased.dll
 0002:00000458       __imp__unlock_file         000000014003c458     ucrtd:ucrtbased.dll
 0002:00000460       __imp_free                 000000014003c460     ucrtd:ucrtbased.dll
 0002:00000468       __imp_malloc               000000014003c468     ucrtd:ucrtbased.dll
 0002:00000470       __imp_atoi                 000000014003c470     ucrtd:ucrtbased.dll
 0002:00000478       __imp__mkdir               000000014003c478     ucrtd:ucrtbased.dll
 0002:00000480       __imp_abort                000000014003c480     ucrtd:ucrtbased.dll
 0002:00000488       __imp__CrtDbgReportW       000000014003c488     ucrtd:ucrtbased.dll
 0002:00000490       __imp__wassert             000000014003c490     ucrtd:ucrtbased.dll
 0002:00000498       __imp__free_dbg            000000014003c498     ucrtd:ucrtbased.dll
 0002:000004a0       __imp__malloc_dbg          000000014003c4a0     ucrtd:ucrtbased.dll
 0002:000004a8       __imp_terminate            000000014003c4a8     ucrtd:ucrtbased.dll
 0002:000004b0       __imp__callnewh            000000014003c4b0     ucrtd:ucrtbased.dll
 0002:000004b8       __imp__seh_filter_dll      000000014003c4b8     ucrtd:ucrtbased.dll
 0002:000004c0       __imp__configure_narrow_argv 000000014003c4c0     ucrtd:ucrtbased.dll
 0002:000004c8       __imp__initialize_narrow_environment 000000014003c4c8     ucrtd:ucrtbased.dll
 0002:000004d0       __imp__initialize_onexit_table 000000014003c4d0     ucrtd:ucrtbased.dll
 0002:000004d8       __imp__register_onexit_function 000000014003c4d8     ucrtd:ucrtbased.dll
 0002:000004e0       __imp__execute_onexit_table 000000014003c4e0     ucrtd:ucrtbased.dll
 0002:000004e8       __imp__crt_atexit          000000014003c4e8     ucrtd:ucrtbased.dll
 0002:000004f0       __imp__crt_at_quick_exit   000000014003c4f0     ucrtd:ucrtbased.dll
 0002:000004f8       __imp_ungetc               000000014003c4f8     ucrtd:ucrtbased.dll
 0002:00000500       __imp_strcpy_s             000000014003c500     ucrtd:ucrtbased.dll
 0002:00000508       __imp_strcat_s             000000014003c508     ucrtd:ucrtbased.dll
 0002:00000510       __imp___stdio_common_vsprintf_s 000000014003c510     ucrtd:ucrtbased.dll
 0002:00000518       __imp__seh_filter_exe      000000014003c518     ucrtd:ucrtbased.dll
 0002:00000520       __imp__set_app_type        000000014003c520     ucrtd:ucrtbased.dll
 0002:00000528       __imp___setusermatherr     000000014003c528     ucrtd:ucrtbased.dll
 0002:00000530       __imp__get_initial_narrow_environment 000000014003c530     ucrtd:ucrtbased.dll
 0002:00000538       __imp__initterm            000000014003c538     ucrtd:ucrtbased.dll
 0002:00000540       __imp__initterm_e          000000014003c540     ucrtd:ucrtbased.dll
 0002:00000548       __imp_exit                 000000014003c548     ucrtd:ucrtbased.dll
 0002:00000550       __imp__exit                000000014003c550     ucrtd:ucrtbased.dll
 0002:00000558       __imp__set_fmode           000000014003c558     ucrtd:ucrtbased.dll
 0002:00000560       __imp___p___argc           000000014003c560     ucrtd:ucrtbased.dll
 0002:00000568       __imp___p___argv           000000014003c568     ucrtd:ucrtbased.dll
 0002:00000570       __imp__c_exit              000000014003c570     ucrtd:ucrtbased.dll
 0002:00000578       __imp__register_thread_local_exe_atexit_callback 000000014003c578     ucrtd:ucrtbased.dll
 0002:00000580       __imp__configthreadlocale  000000014003c580     ucrtd:ucrtbased.dll
 0002:00000588       __imp__set_new_mode        000000014003c588     ucrtd:ucrtbased.dll
 0002:00000590       __imp___p__commode         000000014003c590     ucrtd:ucrtbased.dll
 0002:00000598       __imp__wmakepath_s         000000014003c598     ucrtd:ucrtbased.dll
 0002:000005a0       __imp__wsplitpath_s        000000014003c5a0     ucrtd:ucrtbased.dll
 0002:000005a8       __imp_wcscpy_s             000000014003c5a8     ucrtd:ucrtbased.dll
 0002:000005b0       __imp__cexit               000000014003c5b0     ucrtd:ucrtbased.dll
 0002:000005b8       __imp_fwrite               000000014003c5b8     ucrtd:ucrtbased.dll
 0002:000005c0       __imp__fseeki64            000000014003c5c0     ucrtd:ucrtbased.dll
 0002:000005c8       __imp_fsetpos              000000014003c5c8     ucrtd:ucrtbased.dll
 0002:000005d0       __imp_fread                000000014003c5d0     ucrtd:ucrtbased.dll
 0002:000005d8       __imp_fputc                000000014003c5d8     ucrtd:ucrtbased.dll
 0002:000005e0       __imp_fopen                000000014003c5e0     ucrtd:ucrtbased.dll
 0002:000005e8       __imp_fgets                000000014003c5e8     ucrtd:ucrtbased.dll
 0002:000005f0       __imp_fgetpos              000000014003c5f0     ucrtd:ucrtbased.dll
 0002:000005f8       __imp_fgetc                000000014003c5f8     ucrtd:ucrtbased.dll
 0002:00000600       __imp_fflush               000000014003c600     ucrtd:ucrtbased.dll
 0002:00000608       __imp_fclose               000000014003c608     ucrtd:ucrtbased.dll
 0002:00000610       __imp_floorf               000000014003c610     ucrtd:ucrtbased.dll
 0002:00000618       __imp__time64              000000014003c618     ucrtd:ucrtbased.dll
 0002:00000620       __imp__localtime64         000000014003c620     ucrtd:ucrtbased.dll
 0002:00000628       __imp_strlen               000000014003c628     ucrtd:ucrtbased.dll
 0002:00000630       __imp_strcmp               000000014003c630     ucrtd:ucrtbased.dll
 0002:00000638       __imp_sqrtf                000000014003c638     ucrtd:ucrtbased.dll
 0002:00000640       __imp_sqrt                 000000014003c640     ucrtd:ucrtbased.dll
 0002:00000648       __imp_pow                  000000014003c648     ucrtd:ucrtbased.dll
 0002:00000650       __imp_log10                000000014003c650     ucrtd:ucrtbased.dll
 0002:00000658       __imp_exp                  000000014003c658     ucrtd:ucrtbased.dll
 0002:00000660       __imp_abs                  000000014003c660     ucrtd:ucrtbased.dll
 0002:00000668       __imp___stdio_common_vsprintf 000000014003c668     ucrtd:ucrtbased.dll
 0002:00000670       __imp___stdio_common_vfprintf 000000014003c670     ucrtd:ucrtbased.dll
 0002:00000678       __imp___acrt_iob_func      000000014003c678     ucrtd:ucrtbased.dll
 0002:00000680       __imp__CrtDbgReport        000000014003c680     ucrtd:ucrtbased.dll
 0002:00000688       __imp__invalid_parameter   000000014003c688     ucrtd:ucrtbased.dll
 0002:00000690       __imp_setvbuf              000000014003c690     ucrtd:ucrtbased.dll
 0002:00000698       __imp__get_stream_buffer_pointers 000000014003c698     ucrtd:ucrtbased.dll
 0002:000006a0       \177ucrtbased_NULL_THUNK_DATA 000000014003c6a0     ucrtd:ucrtbased.dll
 0002:000006a8       __guard_check_icall_fptr   000000014003c6a8     MSVCRTD:guard_support.obj
 0002:000006b0       __guard_xfg_check_icall_fptr 000000014003c6b0     MSVCRTD:guard_support.obj
 0002:000006b8       __guard_dispatch_icall_fptr 000000014003c6b8     MSVCRTD:guard_support.obj
 0002:000006c0       __guard_xfg_dispatch_icall_fptr 000000014003c6c0     MSVCRTD:guard_support.obj
 0002:000006c8       __guard_xfg_table_dispatch_icall_fptr 000000014003c6c8     MSVCRTD:guard_support.obj
 0002:000006d0       __castguard_check_failure_os_handled_fptr 000000014003c6d0     MSVCRTD:guard_support.obj
 0002:000006d8       __guard_memcpy_fptr        000000014003c6d8     vcruntimed:softmemtag.obj
 0002:000006e0       __xc_a                     000000014003c6e0     MSVCRTD:initializers.obj
 0002:00000730       __xc_z                     000000014003c730     MSVCRTD:initializers.obj
 0002:00000738       __xi_a                     000000014003c738     MSVCRTD:initializers.obj
 0002:00000750       __xi_z                     000000014003c750     MSVCRTD:initializers.obj
 0002:00000758       __xl_a                     000000014003c758     MSVCRTD:tlssup.obj
 0002:00000760       __xl_z                     000000014003c760     MSVCRTD:tlssup.obj
 0002:00000768       __xp_a                     000000014003c768     MSVCRTD:initializers.obj
 0002:00000770       __xp_z                     000000014003c770     MSVCRTD:initializers.obj
 0002:00000778       __xt_a                     000000014003c778     MSVCRTD:initializers.obj
 0002:00000780       __xt_z                     000000014003c780     MSVCRTD:initializers.obj
 0002:00001e58       ??_7exception@std@@6B@     000000014003de58     alAELibCore.obj
 0002:00001e68       ??_C@_0BC@EOODALEL@Unknown?5exception@ 000000014003de68     alAELibCore.obj
 0002:00001e88       ??_7bad_alloc@std@@6B@     000000014003de88     alAELibCore.obj
 0002:00001ea0       ??_7bad_array_new_length@std@@6B@ 000000014003dea0     alAELibCore.obj
 0002:00001eb0       ??_C@_0BF@KINCDENJ@bad?5array?5new?5length@ 000000014003deb0     alAELibCore.obj
 0002:00001ec8       ??_C@_0BB@FCMFBGOM@invalid?5argument@ 000000014003dec8     alAELibCore.obj
 0002:00001edc       ??_C@_02DKCKIIND@?$CFs@    000000014003dedc     alAELibCore.obj
 0002:00001ee0       ??_C@_0GC@IGIKFMFC@C?3?2Program?5Files?2Microsoft?5Visu@ 000000014003dee0     alAELibCore.obj
 0002:00001f50       ??_C@_1ME@LJPJJNIE@?$AAC?$AA?3?$AA?2?$AAP?$AAr?$AAo?$AAg?$AAr?$AAa?$AAm?$AA?5?$AAF?$AAi?$AAl?$AAe@ 000000014003df50     alAELibCore.obj
 0002:00002014       ??_C@_11LOCGONAA@@         000000014003e014     alAELibCore.obj
 0002:00002018       ??_C@_1CG@JNLFBNGN@?$AA?$CC?$AAi?$AAn?$AAv?$AAa?$AAl?$AAi?$AAd?$AA?5?$AAa?$AAr?$AAg?$AAu?$AAm?$AAe@ 000000014003e018     alAELibCore.obj
 0002:00002040       ??_C@_0BA@JFNIOLAK@string?5too?5long@ 000000014003e040     alAELibCore.obj
 0002:00002050       ??_C@_00CNPNBAHC@@         000000014003e050     alAELibCore.obj
 0002:00002054       ??_C@_05EHILDPJH@TRACE@    000000014003e054     alAELibCore.obj
 0002:0000205c       ??_C@_05KOLFGEDA@DEBUG@    000000014003e05c     alAELibCore.obj
 0002:00002064       ??_C@_04BEADLPGM@INFO@     000000014003e064     alAELibCore.obj
 0002:0000206c       ??_C@_04JBIELMDE@WARN@     000000014003e06c     alAELibCore.obj
 0002:00002074       ??_C@_05MBDEGLCK@ERROR@    000000014003e074     alAELibCore.obj
 0002:0000207c       ??_C@_05JLFELJNP@FATAL@    000000014003e07c     alAELibCore.obj
 0002:00002084       ??_C@_03MPPIHBHJ@OFF@      000000014003e084     alAELibCore.obj
 0002:00002088       ??_C@_06PMPIMKLF@UNKNOW@   000000014003e088     alAELibCore.obj
 0002:00002090       ??_C@_07KCOHIFOP@WARNING@  000000014003e090     alAELibCore.obj
 0002:00002098       ??_C@_0BN@JIFPLFBB@please?5input?5right?5log?5level@ 000000014003e098     alAELibCore.obj
 0002:000020b8       ??_C@_0O@MHMKJFMJ@set_log_level@ 000000014003e0b8     alAELibCore.obj
 0002:000020c8       ??_C@_0DG@OHEKIOCK@D?3?23aalgo?23a?9tmp?23a?2AE?2RGB?2JG_A@ 000000014003e0c8     alAELibCore.obj
 0002:00002100       ??_C@_0DI@LMKIDAIG@?6?$FLAEC?5Proc?$FN?$CF02d?9?$CF02d?5?$CF02d?3?$CF02d?3@ 000000014003e100     alAELibCore.obj
 0002:00002138       ??_C@_04HDOCAJNK@?$CFs?$CFs@ 000000014003e138     alAELibCore.obj
 0002:00002140       ??_C@_04MDKIEGGJ@?5?$CFs?6@ 000000014003e140     alAELibCore.obj
 0002:00002148       ??_C@_0BM@OBMLPGFH@allib_ae_set_debug_log_flag@ 000000014003e148     alAELibCore.obj
 0002:00002168       ??_C@_0DG@GALAJCLF@D?3?23aalgo?23a?9tmp?23a?2AE?2RGB?2JG_A@ 000000014003e168     alAELibCore.obj
 0002:000021a0       ??_C@_0BL@JGOOFEMD@debug?5level?1to_file?3?5?$CFd?1?$CFd@ 000000014003e1a0     alAELibCore.obj
 0002:000021c0       ??_C@_0O@OLNPIHPI@camera?5ID?3?5?$CFd@ 000000014003e1c0     alAELibCore.obj
 0002:000021d0       ??_C@_0BC@OLPNFDA@allib_ae_loadfunc@ 000000014003e1d0     alAELibCore.obj
 0002:000021e8       ??_C@_0DD@PILFLLDC@INITEXP?5gain?5?$CFu?0?5shutter?5?$CFu?0?5mi@ 000000014003e1e8     alAELibCore.obj
 0002:00002220       ??_C@_0P@FHFBKOKJ@alAE_set_param@ 000000014003e220     alAELibCore.obj
 0002:00002230       ??_C@_0BN@CGPMLJLN@expoSOF1?5?$CFf?0?5?$CFf?0?5?$CFf?0?5?$CFf?0?5?$CFf?6@ 000000014003e230     alAELibCore.obj
 0002:00002250       ??_C@_0P@HJBEIPDL@alAE_get_param@ 000000014003e250     alAELibCore.obj
 0002:00002260       ??_C@_0CL@FGAGKGHO@pipeDelay?5?$CFu?0?5expoSOF2?5?$CFf?0?5?$CFf?0?5@ 000000014003e260     alAELibCore.obj
 0002:00002290       ??_C@_0DP@COACIALP@slave?5ucIsConverged?1uciAE_AEcon@ 000000014003e290     alAELibCore.obj
 0002:000022d0       ??_C@_0N@GCMCAEMO@alAE_process@ 000000014003e2d0     alAELibCore.obj
 0002:000022e0       ??_C@_0CE@GGNJDMJE@?$FLOUT?$FNiso?1ad_gain?1expoTime?3?5?$CFu?1?$CF@ 000000014003e2e0     alAELibCore.obj
 0002:00002308       ??_C@_0CH@OFKDGPOK@?$FLOUT?$FNmidtones_gain?1shadows_gain@ 000000014003e308     alAELibCore.obj
 0002:00002330       ??_C@_0CL@NOJJMGKM@?$FLOUT?$FNbg_bv?1bv?1lux?1ymean_8bit?3?5?$CF@ 000000014003e330     alAELibCore.obj
 0002:00002360       ??_C@_0CC@GFMJKDNB@lib_runtime_st?4uwCountingIdx?3?5?$CF@ 000000014003e360     alAELibCore.obj
 0002:00002388       ??_C@_0BB@PDEDMOLF@?$FLWhiteBox?$FNlux?5?$CFd@ 000000014003e388     alAELibCore.obj
 0002:000023a0       ??_C@_0BL@DMHGKALL@?$FLWhiteBox?$FNucIsConverged?5?$CFd@ 000000014003e3a0     alAELibCore.obj
 0002:000023c0       ??_C@_0BI@GHPIKDMP@?$FLWhiteBox?$FNymean_8bit?5?$CFd@ 000000014003e3c0     alAELibCore.obj
 0002:000023d8       ??_C@_0CJ@ECMDDBMC@?$FLWhiteBox?$FNiso?1ad_gain?1expoTime?3@ 000000014003e3d8     alAELibCore.obj
 0002:00002408       ??_C@_0CD@MKFLECEP@sof_index?1stats_sof_idx?3?5?$CFld?5?1?5@ 000000014003e408     alAELibCore.obj
 0002:00002430       ??_C@_0BC@LEPHJGPC@now?5imageBv?5is?5?$CFd@ 000000014003e430     alAELibCore.obj
 0002:00002448       ??_C@_0BI@KCBNMKOC@now?5target?5mode?5is?5?$CF02d@ 000000014003e448     alAELibCore.obj
 0002:00002460       ??_C@_0BD@KFNBIMJA@now?5target?5is?5?$CF?42d@ 000000014003e460     alAELibCore.obj
 0002:00002478       ??_C@_0BP@MLIEPHPI@stats?5weight?5blk?5?5bnk?3?5?$CFd?5?$CK?5?$CFd@ 000000014003e478     alAELibCore.obj
 0002:00002498       ??_C@_0BD@NIIMEKJJ@udYmean_weight?3?5?$CFd@ 000000014003e498     alAELibCore.obj
 0002:000024b0       ??_C@_0BL@LMNBJIAP@effect?5midtones_gain?5is?5?$CFd@ 000000014003e4b0     alAELibCore.obj
 0002:000024d0       ??_C@_0DJ@DPBLOOHB@ucIsConverged?1uciAE_AEconverge_@ 000000014003e4d0     alAELibCore.obj
 0002:00002510       ??_C@_0CN@MBKEIOIA@?$FLOUT?$FNiso?1ad_gain?1expoTime?3?5?$CFu?1?$CF@ 000000014003e510     alAELibCore.obj
 0002:00002540       ??_C@_0BK@KNNNADPI@?$FLWhiteBox?$FNlux?5bvresult?5?$CFd@ 000000014003e540     alAELibCore.obj
 0002:00002560       ??_C@_0BI@JAINEOIJ@?$FLsmoothAE?$FN?5prevBv?5is?5?$CFd@ 000000014003e560     alAELibCore.obj
 0002:00002578       ??_C@_0BA@DEALFNDJ@alAE_estimation@ 000000014003e578     alAELibCore.obj
 0002:00002588       ??_C@_0CN@CMNIOENK@?$FLWDR?5AE?$FN?3?5short?5target?5?3?5?$CFd?5?5?5u@ 000000014003e588     alAELibCore.obj
 0002:000025b8       ??_C@_0CC@MFEJKAHD@?6?5before?5smooth?5ae_nextBV?5is?5?$CFd@ 000000014003e5b8     alAELibCore.obj
 0002:000025e0       ??_C@_0CK@JAALCCGH@?6?5after?5smooth?5ae_nextBV?5is?5?$CFd?0@ 000000014003e5e0     alAELibCore.obj
 0002:00002610       ??_C@_0BA@DLJMFNKK@roi?5Ymean?3?5?$CFd?5?6@ 000000014003e610     alAELibCore.obj
 0002:00002620       ??_C@_0BE@PELOHAE@uwbgAEMean_8bit?3?5?$CFd@ 000000014003e620     alAELibCore.obj
 0002:00002638       ??_C@_0BI@GMLPNPBK@alAE_Simple_AE_Metering@ 000000014003e638     alAELibCore.obj
 0002:00002650       ??_C@_0ED@ILDEICHC@configinfo?5ExpTimePerLine?5?$CFu?5?5e@ 000000014003e650     alAELibCore.obj
 0002:00002698       ??_C@_0BN@LGFIOLPD@alAELib_GetExposureParameter@ 000000014003e698     alAELibCore.obj
 0002:000026b8       ??_C@_0BF@OOFOIAJH@ae_expo_mode?5is?5?$CF02d@ 000000014003e6b8     alAELibCore.obj
 0002:000026d0       ??_C@_0BB@FDNIJOHL@midtones_comp?5?$CFu@ 000000014003e6d0     alAELibCore.obj
 0002:000026e8       ??_C@_0CB@MIIDNGDC@al3awrapper_dispatchhw3a_aestat@ 000000014003e6e8     alAELibCore.obj
 0002:00002710       ??_C@_0CB@INBOFCAC@multicamera?5mode?5?$CFd?0?5cameraid?5?$CF@ 000000014003e710     alAELibCore.obj
 0002:00002738       ??_C@_0CC@LGGAFBJP@ERROR?5P1?5?$DO?5P2?0?5set?5default?5P_Ga@ 000000014003e738     alAELibCore.obj
 0002:00002760       ??_C@_0BP@KLIGJKCG@alAELib_CalculateProgressiveAE@ 000000014003e760     alAELibCore.obj
 0002:00002780       ??_C@_0EJ@GIFNGOHK@?$FLSmooth?$FN?5?5SPD?5?$CFu?0?5prediff?5?$CFd?5?5t@ 000000014003e780     alAELibCore.obj
 0002:000027d0       ??_C@_0DC@KJHMMIEE@cur?5master?5?$CFd?5?5slave?5?$CFd?0?5varian@ 000000014003e7d0     alAELibCore.obj
 0002:00002808       ??_C@_0BL@OAKOOGAI@alAELib_Core_estimateSlave@ 000000014003e808     alAELibCore.obj
 0002:00002828       ??_C@_0CE@EKIIJOKO@master?5?$CFu?5?5slave?5?$CFu?0?5variance?5?$CF@ 000000014003e828     alAELibCore.obj
 0002:00002850       ??_C@_0HP@GNMNPJFM@camid?5?$CFu?5?5master?5?$CFd?5mixExposure@ 000000014003e850     alAELibCore.obj
 0002:000028d0       ??_C@_0BJ@LHDJIIPN@alAELib_Core_mixExposure@ 000000014003e8d0     alAELibCore.obj
 0002:000028f0       ??_C@_0BD@JOIDEGLD@cal?5metering?5table@ 000000014003e8f0     alAELibCore.obj
 0002:00002908       ??_C@_0BO@HIBCGCNP@alAELib_Core_calMeteringRatio@ 000000014003e908     alAELibCore.obj
 0002:00002928       ??_C@_0BH@EDKEEENI@deque?5empty?5before?5pop@ 000000014003e928     alAELibCore.obj
 0002:00002940       ??_C@_0GA@PAHFIELO@C?3?2Program?5Files?2Microsoft?5Visu@ 000000014003e940     alAELibCore.obj
 0002:000029a0       ??_C@_1MA@OKAOIGCC@?$AAC?$AA?3?$AA?2?$AAP?$AAr?$AAo?$AAg?$AAr?$AAa?$AAm?$AA?5?$AAF?$AAi?$AAl?$AAe@ 000000014003e9a0     alAELibCore.obj
 0002:00002a60       ??_C@_1DC@NJAACHCD@?$AA?$CC?$AAd?$AAe?$AAq?$AAu?$AAe?$AA?5?$AAe?$AAm?$AAp?$AAt?$AAy?$AA?5?$AAb?$AAe@ 000000014003ea60     alAELibCore.obj
 0002:00002a98       ??_C@_0BN@OLMACEKN@back?$CI?$CJ?5called?5on?5empty?5deque@ 000000014003ea98     alAELibCore.obj
 0002:00002ab8       ??_C@_1DO@OOAHKDGC@?$AA?$CC?$AAb?$AAa?$AAc?$AAk?$AA?$CI?$AA?$CJ?$AA?5?$AAc?$AAa?$AAl?$AAl?$AAe?$AAd?$AA?5@ 000000014003eab8     alAELibCore.obj
 0002:00002af8       ??_C@_0BO@PEOHNLIM@front?$CI?$CJ?5called?5on?5empty?5deque@ 000000014003eaf8     alAELibCore.obj
 0002:00002b20       ??_C@_1EA@EELNAHHD@?$AA?$CC?$AAf?$AAr?$AAo?$AAn?$AAt?$AA?$CI?$AA?$CJ?$AA?5?$AAc?$AAa?$AAl?$AAl?$AAe?$AAd@ 000000014003eb20     alAELibCore.obj
 0002:00002b60       ??_C@_0DG@KGHKKGBC@null?5pointer?5cannot?5point?5to?5a?5@ 000000014003eb60     alAELibCore.obj
 0002:00002ba0       ??_C@_1HA@FACCKGGH@?$AA?$CC?$AAn?$AAu?$AAl?$AAl?$AA?5?$AAp?$AAo?$AAi?$AAn?$AAt?$AAe?$AAr?$AA?5?$AAc@ 000000014003eba0     alAELibCore.obj
 0002:00002c10       ??_C@_0BH@BANGMCFP@_Allocsize?5?$DO?$DN?5_Newsize@ 000000014003ec10     alAELibCore.obj
 0002:00002c28       ??_C@_1DC@MABCNPLG@?$AA?$CC?$AA_?$AAA?$AAl?$AAl?$AAo?$AAc?$AAs?$AAi?$AAz?$AAe?$AA?5?$AA?$DO?$AA?$DN?$AA?5@ 000000014003ec28     alAELibCore.obj
 0002:00002c60       ??_C@_0BC@KBDMBKEH@deque?$DMT?$DO?5too?5long@ 000000014003ec60     alAELibCore.obj
 0002:00002c78       ??_C@_0BJ@HAJGEHKO@transposed?5pointer?5range@ 000000014003ec78     alAELibCore.obj
 0002:00002ca0       ??_C@_0GD@EGBILONE@C?3?2Program?5Files?2Microsoft?5Visu@ 000000014003eca0     alAELibCore.obj
 0002:00002d10       ??_C@_1MG@NMJBCGEN@?$AAC?$AA?3?$AA?2?$AAP?$AAr?$AAo?$AAg?$AAr?$AAa?$AAm?$AA?5?$AAF?$AAi?$AAl?$AAe@ 000000014003ed10     alAELibCore.obj
 0002:00002dd8       ??_C@_1DG@FJIKMGFD@?$AA?$CC?$AAt?$AAr?$AAa?$AAn?$AAs?$AAp?$AAo?$AAs?$AAe?$AAd?$AA?5?$AAp?$AAo?$AAi@ 000000014003edd8     alAELibCore.obj
 0002:00002e10       __real@0000000000000000    000000014003ee10     alAELibCore.obj
 0002:00002e18       __real@34210fb0            000000014003ee18     alAELibCore.obj
 0002:00002e1c       __real@34617c5c            000000014003ee1c     alAELibCore.obj
 0002:00002e20       __real@348637bd            000000014003ee20     alAELibCore.obj
 0002:00002e24       __real@3727c5ac            000000014003ee24     alAELibCore.obj
 0002:00002e28       __real@399d4952            000000014003ee28     alAELibCore.obj
 0002:00002e2c       __real@39b78034            000000014003ee2c     alAELibCore.obj
 0002:00002e30       __real@3e4ccccd            000000014003ee30     alAELibCore.obj
 0002:00002e34       __real@3e99999a            000000014003ee34     alAELibCore.obj
 0002:00002e38       __real@3ecccccd            000000014003ee38     alAELibCore.obj
 0002:00002e3c       __real@3f000000            000000014003ee3c     alAELibCore.obj
 0002:00002e40       __real@3f50624dd2f1a9fc    000000014003ee40     alAELibCore.obj
 0002:00002e48       __real@3f666666            000000014003ee48     alAELibCore.obj
 0002:00002e4c       __real@3f800000            000000014003ee4c     alAELibCore.obj
 0002:00002e50       __real@3f8a3d71            000000014003ee50     alAELibCore.obj
 0002:00002e54       __real@3fa66666            000000014003ee54     alAELibCore.obj
 0002:00002e58       __real@3fe0000000000000    000000014003ee58     alAELibCore.obj
 0002:00002e60       __real@3ff0000000000000    000000014003ee60     alAELibCore.obj
 0002:00002e68       __real@3ff07ae147ae147b    000000014003ee68     alAELibCore.obj
 0002:00002e70       __real@3ff147ae147ae148    000000014003ee70     alAELibCore.obj
 0002:00002e78       __real@4000000000000000    000000014003ee78     alAELibCore.obj
 0002:00002e80       __real@40400000            000000014003ee80     alAELibCore.obj
 0002:00002e84       __real@40533333            000000014003ee84     alAELibCore.obj
 0002:00002e88       __real@408f400000000000    000000014003ee88     alAELibCore.obj
 0002:00002e90       __real@412e848000000000    000000014003ee90     alAELibCore.obj
 0002:00002e98       __real@41800000            000000014003ee98     alAELibCore.obj
 0002:00002e9c       __real@41a00000            000000014003ee9c     alAELibCore.obj
 0002:00002ea0       __real@42c80000            000000014003eea0     alAELibCore.obj
 0002:00002ea4       __real@435b1eb8            000000014003eea4     alAELibCore.obj
 0002:00002ea8       __real@447a0000            000000014003eea8     alAELibCore.obj
 0002:00002eac       __real@47c35000            000000014003eeac     alAELibCore.obj
 0002:00002eb0       __real@4e6e6b28            000000014003eeb0     alAELibCore.obj
 0002:00002ec0       __xmm@80000000800000008000000080000000 000000014003eec0     alAELibCore.obj
 0002:00003070       ??_C@_0GP@JHEKDLNO@?$FLIAE?5Process?$FN?5brightLow?5?$CFu?5?5bri@ 000000014003f070     alAELib_iAE.obj
 0002:000030e0       ??_C@_0BD@DJOBBFHC@Calculate_DTC_GAIN@ 000000014003f0e0     alAELib_iAE.obj
 0002:000030f8       ??_C@_0DG@HCAMJAKO@D?3?23aalgo?23a?9tmp?23a?2AE?2RGB?2JG_A@ 000000014003f0f8     alAELib_iAE.obj
 0002:00003130       ??_C@_0DP@NDDPKMAP@?$FLIAE?5Process?$FN?5short?5target?5?$CFu?5?5@ 000000014003f130     alAELib_iAE.obj
 0002:000032c0       ??_C@_0BM@HOBPJGAE@isDynamic?5scene?3?5wdrmode?5?$CFd@ 000000014003f2c0     table.obj
 0002:000032e0       ??_C@_0P@KIFLCIAE@isDynamicScene@ 000000014003f2e0     table.obj
 0002:000032f0       ??_C@_0DA@BOAAMMFE@D?3?23aalgo?23a?9tmp?23a?2AE?2RGB?2JG_A@ 000000014003f2f0     table.obj
 0002:00003320       ??_C@_0DI@CGBBIIHI@isDynamic?5scene?3?5brightYHist?5?$CFd@ 000000014003f320     table.obj
 0002:00003358       ??_C@_0CB@HPIOEONG@mode?1expIndex?1lv_index?3?5?$CFd?1?$CFf?1?$CF@ 000000014003f358     table.obj
 0002:00003380       ??_C@_0N@KMOIJJJL@updateTarget@ 000000014003f380     table.obj
 0002:00003390       ??_C@_0EI@EGHNODGL@?$FLCheckTable?$FN?5after?5expindex?5?$CFf?0@ 000000014003f390     table.obj
 0002:000033d8       ??_C@_0P@FBDLPMLI@matchExpoTable@ 000000014003f3d8     table.obj
 0002:000033e8       __real@38d1b717            000000014003f3e8     table.obj
 0002:000033ec       __real@3a83126f            000000014003f3ec     table.obj
 0002:00004568       ??_7bad_cast@std@@6B@      0000000140040568     IspSoftAeApi.obj
 0002:00004578       ??_C@_08EPJLHIJG@bad?5cast@ 0000000140040578     IspSoftAeApi.obj
 0002:00004584       ??_C@_05CONGJGK@AElog@     0000000140040584     IspSoftAeApi.obj
 0002:00004590       ??_C@_08JMCGOLPI@?$CFs?1?$CFd?9?$CFd@ 0000000140040590     IspSoftAeApi.obj
 0002:000045a0       ??_C@_0L@FILMCDMJ@?$CFs?1?$CF2d?4log@ 00000001400405a0     IspSoftAeApi.obj
 0002:000045b0       ??_C@_0BC@JPGPPKBE@?6savelog?5file?5?$CFs?5@ 00000001400405b0     IspSoftAeApi.obj
 0002:000045c4       ??_C@_02DPNLHKJD@a?$CL@    00000001400405c4     IspSoftAeApi.obj
 0002:000045c8       ??_C@_01KICIPPFI@?2@       00000001400405c8     IspSoftAeApi.obj
 0002:000045d0       ??_C@_0M@IBKOEKDE@strpath?5?$CFs?6@ 00000001400405d0     IspSoftAeApi.obj
 0002:000045e0       ??_C@_0O@FBAFEPDI@GetCurrMoudle@ 00000001400405e0     IspSoftAeApi.obj
 0002:000045f0       ??_C@_0DC@HGOJGHHD@D?3?23aalgo?23a?9tmp?23a?2AE?2RGB?2JG_A@ 00000001400405f0     IspSoftAeApi.obj
 0002:00004628       ??_C@_0BD@CIAKDPOH@AE?5ver?3?5?$CFld_V?$CF?42f?6@ 0000000140040628     IspSoftAeApi.obj
 0002:0000463c       ??_C@_06FKJJDGPA@AeInit@   000000014004063c     IspSoftAeApi.obj
 0002:00004648       ??_C@_0L@MEOELKAM@ERROR?5?$CFx?$AN?6@ 0000000140040648     IspSoftAeApi.obj
 0002:00004658       ??_C@_0BG@BABKGLBJ@ERROR?5tuning?5bin?5?$CFx?$AN?6@ 0000000140040658     IspSoftAeApi.obj
 0002:00004678       ??_7?$basic_filebuf@DU?$char_traits@D@std@@@std@@6B@ 0000000140040678     IspSoftAeApi.obj
 0002:000046f8       ??_7?$basic_fstream@DU?$char_traits@D@std@@@std@@6B@ 00000001400406f8     IspSoftAeApi.obj
 0002:00004700       ??_8?$basic_fstream@DU?$char_traits@D@std@@@std@@7B?$basic_istream@DU?$char_traits@D@std@@@1@@ 0000000140040700     IspSoftAeApi.obj
 0002:00004708       ??_8?$basic_fstream@DU?$char_traits@D@std@@@std@@7B?$basic_ostream@DU?$char_traits@D@std@@@1@@ 0000000140040708     IspSoftAeApi.obj
 0002:00004710       ??_C@_0N@LJBGLPDJ@?2AEParam?4bin@ 0000000140040710     IspSoftAeApi.obj
 0002:00004720       ??_C@_0BK@GCPAHBBJ@?$LE?r?$LP?$KKAEParam?4bin?J?$KH?$LA?$NM?$KD?$KB?5?$CFs?6@ 0000000140040720     IspSoftAeApi.obj
 0002:00004740       ??_C@_0BA@LGNDHMJD@AeLoadTuningBin@ 0000000140040740     IspSoftAeApi.obj
 0002:00004750       ??_C@_0N@FMLFFOOI@?2AEDebug?4txt@ 0000000140040750     IspSoftAeApi.obj
 0002:00004760       ??_C@_01KDCPPGHE@r@        0000000140040760     IspSoftAeApi.obj
 0002:00004768       ??_C@_0BD@HNDJNOJP@ERROR?$CB?$CB?$CB?5Fail?5open@ 0000000140040768     IspSoftAeApi.obj
 0002:00004780       ??_C@_0BD@PAGPNKGH@AeLoadDebugSetting@ 0000000140040780     IspSoftAeApi.obj
 0002:00004798       ??_C@_0BN@EIFPEKIG@set?5loglevel?5?$CFd?5?5saveflag?5?$CFd@ 0000000140040798     IspSoftAeApi.obj
 0002:000047c0       ??_C@_0FP@DMKANEL@check?5ISPOut?5gain?5?$CFu?5?5shutter?5?$CF@ 00000001400407c0     IspSoftAeApi.obj
 0002:00004820       ??_C@_05BDKLFEBD@AeRun@    0000000140040820     IspSoftAeApi.obj
 0002:00004828       ??_C@_0BC@FDIPBPCB@ae?5deinit?5error?$AN?6@ 0000000140040828     IspSoftAeApi.obj
 0002:00004840       ??_C@_0BP@PFIPNLNI@front?$CI?$CJ?5called?5on?5empty?5string@ 0000000140040840     IspSoftAeApi.obj
 0002:00004860       ??_C@_0GC@HPEHFALL@C?3?2Program?5Files?2Microsoft?5Visu@ 0000000140040860     IspSoftAeApi.obj
 0002:000048d0       ??_C@_1ME@FHHFGEFF@?$AAC?$AA?3?$AA?2?$AAP?$AAr?$AAo?$AAg?$AAr?$AAa?$AAm?$AA?5?$AAF?$AAi?$AAl?$AAe@ 00000001400408d0     IspSoftAeApi.obj
 0002:000049a0       ??_C@_1EC@DINNLDHA@?$AA?$CC?$AAf?$AAr?$AAo?$AAn?$AAt?$AA?$CI?$AA?$CJ?$AA?5?$AAc?$AAa?$AAl?$AAl?$AAe?$AAd@ 00000001400409a0     IspSoftAeApi.obj
 0002:000049e8       ??_C@_0BI@CFPLBAOH@invalid?5string?5position@ 00000001400409e8     IspSoftAeApi.obj
 0002:00004a00       __real@44c80000            0000000140040a00     IspSoftAeApi.obj
 0002:00006980       ??_C@_17CNPHIMPH@?$AA?$CF?$AAl?$AAs@ 0000000140042980     test.obj
 0002:00006990       ??_7logic_error@std@@6B@   0000000140042990     test.obj
 0002:000069a8       ??_7runtime_error@std@@6B@ 00000001400429a8     test.obj
 0002:000069b8       ??_C@_0BF@FBDAHHJI@Invalid?5memory?5order@ 00000001400429b8     test.obj
 0002:000069d0       ??_C@_0GB@LLCMICAF@C?3?2Program?5Files?2Microsoft?5Visu@ 00000001400429d0     test.obj
 0002:00006a40       ??_C@_1MC@HIBPEGJG@?$AAC?$AA?3?$AA?2?$AAP?$AAr?$AAo?$AAg?$AAr?$AAa?$AAm?$AA?5?$AAF?$AAi?$AAl?$AAe@ 0000000140042a40     test.obj
 0002:00006b08       ??_C@_1CO@JOMFDNFG@?$AA?$CC?$AAI?$AAn?$AAv?$AAa?$AAl?$AAi?$AAd?$AA?5?$AAm?$AAe?$AAm?$AAo?$AAr?$AAy@ 0000000140042b08     test.obj
 0002:00006b40       ??_7_System_error@std@@6B@ 0000000140042b40     test.obj
 0002:00006b58       ??_7system_error@std@@6B@  0000000140042b58     test.obj
 0002:00006b70       ??_7_Generic_error_category@std@@6B@ 0000000140042b70     test.obj
 0002:00006ba0       ??_C@_07DCLBNMLN@generic@  0000000140042ba0     test.obj
 0002:00006bb0       ??_7invalid_operation@Concurrency@@6B@ 0000000140042bb0     test.obj
 0002:00006bc8       ??_7_DefaultPPLTaskScheduler@details@Concurrency@@6B@ 0000000140042bc8     test.obj
 0002:00006bd0       ??_C@_0BM@DMDJGFCM@Fail?5to?5schedule?5the?5chore?$CB@ 0000000140042bd0     test.obj
 0002:00006bf8       ??_7_RefCounter@details@Concurrency@@6B@ 0000000140042bf8     test.obj
 0002:00006c08       ??_C@_1CC@FIFNJCOI@?$AA_?$AAM?$AA_?$AAr?$AAe?$AAf?$AAC?$AAo?$AAu?$AAn?$AAt?$AA?5?$AA?$DN?$AA?$DN?$AA?5@ 0000000140042c08     test.obj
 0002:00006c30       ??_C@_1OE@HBGBIBMN@?$AAC?$AA?3?$AA?2?$AAP?$AAr?$AAo?$AAg?$AAr?$AAa?$AAm?$AA?5?$AAF?$AAi?$AAl?$AAe@ 0000000140042c30     test.obj
 0002:00006d18       ??_C@_1BM@LPMPGBJF@?$AA_?$AAR?$AAe?$AAf?$AAc?$AAo?$AAu?$AAn?$AAt?$AA?5?$AA?$DO?$AA?5?$AA1@ 0000000140042d18     test.obj
 0002:00006d38       ??_C@_1BO@OJJMJNDL@?$AA_?$AAR?$AAe?$AAf?$AAc?$AAo?$AAu?$AAn?$AAt?$AA?5?$AA?$DO?$AA?$DN?$AA?5?$AA0@ 0000000140042d38     test.obj
 0002:00006d58       ??_C@_1CA@NFMJLAOC@?$AA_?$AAM?$AA_?$AAr?$AAe?$AAf?$AAC?$AAo?$AAu?$AAn?$AAt?$AA?5?$AA?$DO?$AA?5?$AA0@ 0000000140042d58     test.obj
 0002:00006d80       ??_7_CancellationTokenRegistration@details@Concurrency@@6B@ 0000000140042d80     test.obj
 0002:00006d98       ??_C@_1DC@PENDFFBE@?$AA_?$AAM?$AA_?$AAs?$AAt?$AAa?$AAt?$AAe?$AA?5?$AA?$CB?$AA?$DN?$AA?5?$AA_?$AAS?$AAT@ 0000000140042d98     test.obj
 0002:00006dd0       ??_C@_1CE@EMAFIFOG@?$AA?$CI?$AA_?$AAT?$AAi?$AAd?$AA?5?$AA?$CG?$AA?5?$AA0?$AAx?$AA3?$AA?$CJ?$AA?5?$AA?$DN?$AA?$DN@ 0000000140042dd0     test.obj
 0002:00006df8       ??_C@_1M@HLGKFCJM@?$AAf?$AAa?$AAl?$AAs?$AAe@ 0000000140042df8     test.obj
 0002:00006e08       ??_C@_1DI@EACGMCMO@?$AA_?$AAP?$AAR?$AAe?$AAg?$AAi?$AAs?$AAt?$AAr?$AAa?$AAt?$AAi?$AAo?$AAn?$AA?9@ 0000000140042e08     test.obj
 0002:00006e48       ??_7_TaskProcHandle@details@Concurrency@@6B@ 0000000140042e48     test.obj
 0002:00006e58       ??_C@_1CE@EFNNEBLK@?$AA_?$AAN?$AAe?$AAw?$AAS?$AAt?$AAa?$AAt?$AAe?$AA?5?$AA?$CB?$AA?$DN?$AA?5?$AA_?$AAN@ 0000000140042e58     test.obj
 0002:00006e80       ??_C@_1MG@KIAHJANJ@?$AAC?$AA?3?$AA?2?$AAP?$AAr?$AAo?$AAg?$AAr?$AAa?$AAm?$AA?5?$AAF?$AAi?$AAl?$AAe@ 0000000140042e80     test.obj
 0002:00006f48       ??_C@_0DN@ELCPICKL@This?5function?5cannot?5be?5called?5@ 0000000140042f48     test.obj
 0002:00006f90       ??_C@_1GE@HEJBLLIH@?$AA_?$AAM?$AA_?$AAc?$AAo?$AAn?$AAt?$AAe?$AAx?$AAt?$AA?4?$AA_?$AAM?$AA_?$AAc@ 0000000140042f90     test.obj
 0002:00007000       ??_C@_1MK@CDFDOPBL@?$AAC?$AA?3?$AA?2?$AAP?$AAr?$AAo?$AAg?$AAr?$AAa?$AAm?$AA?5?$AAF?$AAi?$AAl?$AAe@ 0000000140043000     test.obj
 0002:000070d8       ??_7_Task_impl_base@details@Concurrency@@6B@ 00000001400430d8     test.obj
 0002:000070e8       ??_C@_1DE@HKLLFL@?$AA_?$AAM?$AA_?$AAp?$AAT?$AAo?$AAk?$AAe?$AAn?$AAS?$AAt?$AAa?$AAt?$AAe?$AA?5@ 00000001400430e8     test.obj
 0002:00007120       ??_C@_1BM@KOCOFLMI@?$AA_?$AAI?$AAs?$AAC?$AAa?$AAn?$AAc?$AAe?$AAl?$AAe?$AAd?$AA?$CI?$AA?$CJ@ 0000000140043120     test.obj
 0002:00007140       ??_C@_1BO@DMKCBEKE@?$AA_?$AAI?$AAs?$AAC?$AAo?$AAm?$AAp?$AAl?$AAe?$AAt?$AAe?$AAd?$AA?$CI?$AA?$CJ@ 0000000140043140     test.obj
 0002:00007160       ??_C@_1CK@HDFGAOGN@?$AA?$CB?$AA_?$AAH?$AAa?$AAs?$AAU?$AAs?$AAe?$AAr?$AAE?$AAx?$AAc?$AAe?$AAp?$AAt@ 0000000140043160     test.obj
 0002:00007198       ??_7?$_CancellationTokenCallback@V<lambda_1>@?1??_RegisterCancellation@_Task_impl_base@details@Concurrency@@QEAAXV?$weak_ptr@U_Task_impl_base@details@Concurrency@@@std@@@Z@@details@Concurrency@@6B@ 0000000140043198     test.obj
 0002:000071b0       ??_C@_1HG@NEMKJKCM@?$AAd?$AAe?$AAt?$AAa?$AAi?$AAl?$AAs?$AA?3?$AA?3?$AA_?$AAC?$AAa?$AAn?$AAc?$AAe@ 00000001400431b0     test.obj
 0002:00007228       ??_C@_1CI@PJIAENBF@?$AA_?$AAH?$AAa?$AAs?$AAU?$AAs?$AAe?$AAr?$AAE?$AAx?$AAc?$AAe?$AAp?$AAt?$AAi@ 0000000140043228     test.obj
 0002:00007250       ??_C@_1HG@JIMEIBOF@?$AA_?$AAI?$AAs?$AAC?$AAo?$AAm?$AAp?$AAl?$AAe?$AAt?$AAe?$AAd?$AA?$CI?$AA?$CJ?$AA?5@ 0000000140043250     test.obj
 0002:000072c8       ??_C@_1DE@GNFOBFIL@?$AA?$CB?$AA_?$AAI?$AAm?$AAp?$AAl?$AAB?$AAa?$AAs?$AAe?$AA?9?$AA?$DO?$AA_?$AAI?$AAs@ 00000001400432c8     test.obj
 0002:00007308       ??_7?$_Task_impl@E@details@Concurrency@@6B@ 0000000140043308     test.obj
 0002:00007318       ??_C@_0P@JCDOJLHG@broken?5promise@ 0000000140043318     test.obj
 0002:00007328       ??_C@_0BJ@JOKOCMFN@future?5already?5retrieved@ 0000000140043328     test.obj
 0002:00007348       ??_C@_0BK@JNDAEPJA@promise?5already?5satisfied@ 0000000140043348     test.obj
 0002:00007368       ??_C@_08CCNMMIE@no?5state@ 0000000140043368     test.obj
 0002:00007380       ??_7future_error@std@@6B@  0000000140043380     test.obj
 0002:00007398       ??_7_Future_error_category2@std@@6B@ 0000000140043398     test.obj
 0002:000073c8       ??_C@_06MOFGPAFB@future@   00000001400433c8     test.obj
 0002:000073d8       ??_7?$_Associated_state@H@std@@6B@ 00000001400433d8     test.obj
 0002:00007410       ??_C@_1FE@HKNJDLPG@?$AAD?$AA?3?$AA?2?$AA3?$AAa?$AAa?$AAl?$AAg?$AAo?$AA?2?$AA3?$AAa?$AA?9?$AAt?$AAm@ 0000000140043410     test.obj
 0002:00007468       ??_C@_1M@JGBHBAHP@?$AAo?$AAw?$AAn?$AAe?$AAr@ 0000000140043468     test.obj
 0002:00007478       ??_C@_19MLBBEMBH@?$AAd?$AAa?$AAt?$AAa@ 0000000140043478     test.obj
 0002:00007490       ??_7?$basic_ifstream@DU?$char_traits@D@std@@@std@@6B@ 0000000140043490     test.obj
 0002:00007498       ??_8?$basic_ifstream@DU?$char_traits@D@std@@@std@@7B@ 0000000140043498     test.obj
 0002:000074a0       ??_C@_0M@FOIHLBFO@AEParam?4bin@ 00000001400434a0     test.obj
 0002:000074b0       ??_C@_0L@LFONBCGL@otpbin?4bin@ 00000001400434b0     test.obj
 0002:000074c0       ??_C@_0CB@MHGIBOIG@ISPAeStatusOutfakeshutter109?4bi@ 00000001400434c0     test.obj
 0002:000074e8       ??_C@_0P@NFMBPPMJ@?6?5qcount?5?$CFlld?6@ 00000001400434e8     test.obj
 0002:000074f8       ??_C@_0L@KBHHMAAA@atfout?4bin@ 00000001400434f8     test.obj
 0002:00007508       ??_C@_0L@GIEGMHIO@AwbOut?4bin@ 0000000140043508     test.obj
 0002:00007518       ??_C@_0N@FJDLBDHJ@debug?5?$CFu?0?5?$CFu@ 0000000140043518     test.obj
 0002:00007528       ??_C@_0BM@OGJJFCJL@ERROR?$CB?$CBAE?5?5cam0?5?$CFd?5?5cam1?5?$CFd@ 0000000140043528     test.obj
 0002:00007548       ??_C@_0BN@OAMAONMJ@cam0?5time?5?$CFf?0?5?5cam1time1?5?$CFf?6@ 0000000140043548     test.obj
 0002:00007570       ??_C@_1EM@DFKPPGCC@?$AA_?$AAS?$AAy?$AAn?$AAc?$AAh?$AAr?$AAo?$AAn?$AAo?$AAu?$AAs?$AAC?$AAa?$AAn@ 0000000140043570     test.obj
 0002:000075c0       ??_C@_1FE@DLHNFJCN@?$AA?$CB?$AA_?$AAI?$AAs?$AAC?$AAa?$AAn?$AAc?$AAe?$AAl?$AAe?$AAd?$AA?$CI?$AA?$CJ?$AA?5@ 00000001400435c0     test.obj
 0002:00007618       ??_C@_1DG@CPLNFBGJ@?$AA_?$AAM?$AA_?$AAT?$AAa?$AAs?$AAk?$AAS?$AAt?$AAa?$AAt?$AAe?$AA?5?$AA?$CB?$AA?$DN@ 0000000140043618     test.obj
 0002:00007650       ??_C@_1FA@OOAEPECB@?$AA?$CB?$AA_?$AAI?$AAs?$AAC?$AAo?$AAm?$AAp?$AAl?$AAe?$AAt?$AAe?$AAd?$AA?$CI?$AA?$CJ@ 0000000140043650     test.obj
 0002:000076a0       ??_C@_1FI@GGEDPMOK@?$AA?$CB?$AA_?$AAS?$AAy?$AAn?$AAc?$AAh?$AAr?$AAo?$AAn?$AAo?$AAu?$AAs?$AAC?$AAa@ 00000001400436a0     test.obj
 0002:000076f8       ??_C@_1CA@LBFIIMIE@?$AA?$CB?$AA_?$AAU?$AAs?$AAe?$AAr?$AAE?$AAx?$AAc?$AAe?$AAp?$AAt?$AAi?$AAo?$AAn@ 00000001400436f8     test.obj
 0002:00007718       ??_C@_1BO@KCPPHOIC@?$AA_?$AAC?$AAt?$AA?5?$AA?$CB?$AA?$DN?$AA?5?$AAn?$AAu?$AAl?$AAl?$AAp?$AAt?$AAr@ 0000000140043718     test.obj
 0002:00007738       ??_C@_0BO@PFKOHNJC@vector?5subscript?5out?5of?5range@ 0000000140043738     test.obj
 0002:00007760       ??_C@_0GB@GOGKFLMN@C?3?2Program?5Files?2Microsoft?5Visu@ 0000000140043760     test.obj
 0002:000077d0       ??_C@_1MC@KLOJGIMA@?$AAC?$AA?3?$AA?2?$AAP?$AAr?$AAo?$AAg?$AAr?$AAa?$AAm?$AA?5?$AAF?$AAi?$AAl?$AAe@ 00000001400437d0     test.obj
 0002:000078a0       ??_C@_1EA@LEKOKFNB@?$AA?$CC?$AAv?$AAe?$AAc?$AAt?$AAo?$AAr?$AA?5?$AAs?$AAu?$AAb?$AAs?$AAc?$AAr?$AAi@ 00000001400438a0     test.obj
 0002:000078e0       ??_C@_1FA@CMEHBBKL@?$AA?$CB?$AA_?$AAH?$AAa?$AAs?$AAU?$AAs?$AAe?$AAr?$AAE?$AAx?$AAc?$AAe?$AAp?$AAt@ 00000001400438e0     test.obj
 0002:00007930       ??_C@_0IO@JHDHJNHO@promise?$DMT?$DO?3?3set_exception?1set_e@ 0000000140043930     test.obj
 0002:000079c0       ??_C@_0GB@HBGDFNNK@C?3?2Program?5Files?2Microsoft?5Visu@ 00000001400439c0     test.obj
 0002:00007a30       ??_C@_1MC@LKBNFNDM@?$AAC?$AA?3?$AA?2?$AAP?$AAr?$AAo?$AAg?$AAr?$AAa?$AAm?$AA?5?$AAF?$AAi?$AAl?$AAe@ 0000000140043a30     test.obj
 0002:00007b00       ??_C@_1BCG@JAMNDBAN@?$AA?$CC?$AAp?$AAr?$AAo?$AAm?$AAi?$AAs?$AAe?$AA?$DM?$AAT?$AA?$DO?$AA?3?$AA?3?$AAs?$AAe@ 0000000140043b00     test.obj
 0002:00007c30       ??_7?$_Ref_count_obj2@U_ExceptionHolder@details@Concurrency@@@std@@6B@ 0000000140043c30     test.obj
 0002:00007c58       ??_7?$_Ref_count_obj2@U?$_Task_impl@E@details@Concurrency@@@std@@6B@ 0000000140043c58     test.obj
 0002:00007c78       ??_C@_0BA@FOIKENOD@vector?5too?5long@ 0000000140043c78     test.obj
 0002:00007c90       ??_7?$_Func_impl_no_alloc@V<lambda_1>@?7???R1?4??_ScheduleContinuationTask@_Task_impl_base@details@Concurrency@@QEAAXPEAU_ContinuationTaskHandleBase@45@@Z@QEBA@XZ@X$$V@std@@6B@ 0000000140043c90     test.obj
 0002:00007cc8       ??_7?$_Func_impl_no_alloc@V<lambda_1>@?4??_ScheduleContinuationTask@_Task_impl_base@details@Concurrency@@QEAAXPEAU_ContinuationTaskHandleBase@45@@Z@X$$V@std@@6B@ 0000000140043cc8     test.obj
 0002:00007d00       ??_7?$_Func_impl_no_alloc@V<lambda_1>@?1??_MakeVoidToUnitFunc@details@Concurrency@@YA?AV?$function@$$A6AEXZ@std@@AEBV?$function@$$A6AXXZ@6@@Z@E$$V@std@@6B@ 0000000140043d00     test.obj
 0002:00007d38       ??_7?$_Func_impl_no_alloc@V<lambda_1>@?CC@??_CancelAndRunContinuations@?$_Task_impl@E@details@Concurrency@@UEAA_N_N00AEBV?$shared_ptr@U_ExceptionHolder@details@Concurrency@@@std@@@Z@X$$V@std@@6B@ 0000000140043d38     test.obj
 0002:00007d70       ??_7?$_Packaged_state@$$A6AHXZ@std@@6B@ 0000000140043d70     test.obj
 0002:00007da8       ??_7?$_Deferred_async_state@H@std@@6B@ 0000000140043da8     test.obj
 0002:00007de0       ??_7?$_Task_async_state@H@std@@6B@ 0000000140043de0     test.obj
 0002:00007e18       ??_7?$_Func_impl_no_alloc@V?$_Fake_no_copy_callable_adapter@AEAP6AHPEAXI0@ZAEAPEAXW4IspSoftAeProcessType@@PEAUIspSoftAeInImage@@@std@@H$$V@std@@6B@ 0000000140043e18     test.obj
 0002:00007e50       ??_7?$_PPLTaskHandle@EU?$_InitialTaskHandle@XV<lambda_1>@?1???$?0V?$_Fake_no_copy_callable_adapter@AEAP6AHPEAXI0@ZAEAPEAXW4IspSoftAeProcessType@@PEAUIspSoftAeInImage@@@std@@@?$_Task_async_state@H@std@@QEAA@$$QEAV?$_Fake_no_copy_callable_adapter@AEAP6AHPEAXI0@ZAEAPEAXW4IspSoftAeProcessType@@PEAUIspSoftAeInImage@@@3@@Z@U_TypeSelectorNoAsync@details@Concurrency@@@?$task@E@Concurrency@@U_TaskProcHandle@details@3@@details@Concurrency@@6B@ 0000000140043e50     test.obj
 0002:00007e68       ??_7?$_InitialTaskHandle@XV<lambda_1>@?1???$?0V?$_Fake_no_copy_callable_adapter@AEAP6AHPEAXI0@ZAEAPEAXW4IspSoftAeProcessType@@PEAUIspSoftAeInImage@@@std@@@?$_Task_async_state@H@std@@QEAA@$$QEAV?$_Fake_no_copy_callable_adapter@AEAP6AHPEAXI0@ZAEAPEAXW4IspSoftAeProcessType@@PEAUIspSoftAeInImage@@@3@@Z@U_TypeSelectorNoAsync@details@Concurrency@@@?$task@E@Concurrency@@6B@ 0000000140043e68     test.obj
 0002:00007e78       ??_C@_1BO@BLOIMFDG@?$AA?$CI?$AAb?$AAo?$AAo?$AAl?$AA?$CJ?$AA_?$AAM?$AA_?$AAp?$AAT?$AAa?$AAs?$AAk@ 0000000140043e78     test.obj
 0002:00007e98       ??_C@_1BK@GCBKEOON@?$AA_?$AAI?$AAs?$AAC?$AAr?$AAe?$AAa?$AAt?$AAe?$AAd?$AA?$CI?$AA?$CJ@ 0000000140043e98     test.obj
 0002:00007ec0       ??_7?$_Func_impl_no_alloc@V<lambda_1>@?1???$?0V?$_Fake_no_copy_callable_adapter@AEAP6AHPEAXI0@ZAEAPEAXW4IspSoftAeProcessType@@PEAUIspSoftAeInImage@@@std@@@?$_Task_async_state@H@std@@QEAA@$$QEAV?$_Fake_no_copy_callable_adapter@AEAP6AHPEAXI0@ZAEAPEAXW4IspSoftAeProcessType@@PEAUIspSoftAeInImage@@@3@@Z@X$$V@std@@6B@ 0000000140043ec0     test.obj
 0002:00007ef0       __real@461c4000            0000000140043ef0     test.obj
 0002:00007ef8       ??_C@_0DK@PCBCHJKC@D?3?2a?2_work?21?2s?2src?2vctools?2crt?2@ 0000000140043ef8     msvcprtd:locale0_implib.obj
 0002:00008000       ??_C@_0NN@JMPELKLB@The?5value?5of?5ESP?5was?5not?5proper@ 0000000140044000     MSVCRTD:error.obj
 0002:000080e0       ??_C@_0BBN@ELNNILBE@A?5cast?5to?5a?5smaller?5data?5type?5h@ 00000001400440e0     MSVCRTD:error.obj
 0002:00008200       ??_C@_0BN@BPOGFMJL@Stack?5memory?5was?5corrupted?$AN?6@ 0000000140044200     MSVCRTD:error.obj
 0002:00008220       ??_C@_0DG@DAJCDLPN@A?5local?5variable?5was?5used?5befor@ 0000000140044220     MSVCRTD:error.obj
 0002:00008258       ??_C@_0CM@JMIDGKLA@Stack?5memory?5around?5_alloca?5was@ 0000000140044258     MSVCRTD:error.obj
 0002:00008288       ??_C@_0BO@CHIONIOI@Unknown?5Runtime?5Check?5Error?$AN?6@ 0000000140044288     MSVCRTD:error.obj
 0002:000082b0       ??_C@_1GM@CNOOJIHC@?$AAR?$AAu?$AAn?$AAt?$AAi?$AAm?$AAe?$AA?5?$AAC?$AAh?$AAe?$AAc?$AAk?$AA?5?$AAE@ 00000001400442b0     MSVCRTD:error.obj
 0002:00008320       ??_C@_1EA@NFKNIFJP@?$AAR?$AAu?$AAn?$AA?9?$AAT?$AAi?$AAm?$AAe?$AA?5?$AAC?$AAh?$AAe?$AAc?$AAk?$AA?5@ 0000000140044320     MSVCRTD:error.obj
 0002:00008360       ??_C@_0BB@PFFGGCJP@Unknown?5Filename@ 0000000140044360     MSVCRTD:error.obj
 0002:00008378       ??_C@_0BE@GNBOBNCK@Unknown?5Module?5Name@ 0000000140044378     MSVCRTD:error.obj
 0002:00008390       ??_C@_0CA@IODNCDPG@Run?9Time?5Check?5Failure?5?$CD?$CFd?5?9?5?$CFs@ 0000000140044390     MSVCRTD:error.obj
 0002:000083b0       ??_C@_0CG@IAFNJNEE@Stack?5corrupted?5near?5unknown?5va@ 00000001400443b0     MSVCRTD:error.obj
 0002:000083d8       ??_C@_05MKKEDADM@?$CF?42X?5@ 00000001400443d8     MSVCRTD:error.obj
 0002:000083e0       ??_C@_0EJ@LJKNEOLN@Stack?5area?5around?5_alloca?5memor@ 00000001400443e0     MSVCRTD:error.obj
 0002:0000842c       ??_C@_01EEMJAFIK@?6@       000000014004442c     MSVCRTD:error.obj
 0002:00008430       ??_C@_02LLMPMKNF@?$DO?5@   0000000140044430     MSVCRTD:error.obj
 0002:00008438       ??_C@_08OMAHNMHJ@?6Data?3?5?$DM@ 0000000140044438     MSVCRTD:error.obj
 0002:00008448       ??_C@_0CK@DKGBICFE@?6Allocation?5number?5within?5this?5@ 0000000140044448     MSVCRTD:error.obj
 0002:00008478       ??_C@_07DFDJCKFN@?6Size?3?5@ 0000000140044478     MSVCRTD:error.obj
 0002:00008480       ??_C@_0N@MHFFIMFG@?6Address?3?50x@ 0000000140044480     MSVCRTD:error.obj
 0002:00008490       ??_C@_0EI@CLEPFNGI@Stack?5area?5around?5_alloca?5memor@ 0000000140044490     MSVCRTD:error.obj
 0002:000084d8       ??_C@_0BK@ODNDAGKB@?$CFs?$CFs?$CFp?$CFs?$CFzd?$CFs?$CFd?$CFs?$CFs?$CFs?$CFs?$CFs@ 00000001400444d8     MSVCRTD:error.obj
 0002:000084f8       ??_C@_0DE@OHJBPMBP@A?5variable?5is?5being?5used?5withou@ 00000001400444f8     MSVCRTD:error.obj
 0002:00008538       ??_7type_info@@6B@         0000000140044538     MSVCRTD:std_type_info_static.obj
 0002:00008550       ??_C@_0P@GHFPNOJB@bad?5allocation@ 0000000140044550     MSVCRTD:throw_bad_alloc.obj
 0002:00008588       ??_C@_0BJ@HEGAHDFO@Stack?5pointer?5corruption@ 0000000140044588     MSVCRTD:userapi.obj
 0002:000085a8       ??_C@_0CK@FEGOIOPB@Cast?5to?5smaller?5type?5causing?5lo@ 00000001400445a8     MSVCRTD:userapi.obj
 0002:000085d8       ??_C@_0BI@CIGMDCBH@Stack?5memory?5corruption@ 00000001400445d8     MSVCRTD:userapi.obj
 0002:000085f0       ??_C@_0CK@CNLNOEPB@Local?5variable?5used?5before?5init@ 00000001400445f0     MSVCRTD:userapi.obj
 0002:00008620       ??_C@_0BP@OGBCLIBO@Stack?5around?5_alloca?5corrupted@ 0000000140044620     MSVCRTD:userapi.obj
 0002:000086a0       ??_C@_1EI@MLPKHBGE@?$AAa?$AAp?$AAi?$AA?9?$AAm?$AAs?$AA?9?$AAw?$AAi?$AAn?$AA?9?$AAc?$AAo?$AAr?$AAe@ 00000001400446a0     MSVCRTD:pdblkup.obj
 0002:000086e8       ??_C@_1BK@JHLNAEJL@?$AAa?$AAd?$AAv?$AAa?$AAp?$AAi?$AA3?$AA2?$AA?4?$AAd?$AAl?$AAl@ 00000001400446e8     MSVCRTD:pdblkup.obj
 0002:00008708       ??_C@_0O@COHOBMLB@RegOpenKeyExW@ 0000000140044708     MSVCRTD:pdblkup.obj
 0002:00008718       ??_C@_0BB@GLNAEDBD@RegQueryValueExW@ 0000000140044718     MSVCRTD:pdblkup.obj
 0002:00008730       ??_C@_0M@HLOHPNFA@RegCloseKey@ 0000000140044730     MSVCRTD:pdblkup.obj
 0002:00008740       ??_C@_1HE@EBEAGLFB@?$AAS?$AAO?$AAF?$AAT?$AAW?$AAA?$AAR?$AAE?$AA?2?$AAW?$AAo?$AAw?$AA6?$AA4?$AA3@ 0000000140044740     MSVCRTD:pdblkup.obj
 0002:000087b8       ??_C@_1BG@EABPBLLF@?$AAP?$AAr?$AAo?$AAd?$AAu?$AAc?$AAt?$AAD?$AAi?$AAr@ 00000001400447b8     MSVCRTD:pdblkup.obj
 0002:000087f0       ??_C@_1BC@JINFINNJ@?$AAM?$AAS?$AAP?$AAD?$AAB?$AA1?$AA4?$AA0@ 00000001400447f0     MSVCRTD:pdblkup.obj
 0002:00008808       ??_C@_0BB@KCIACLNC@PDBOpenValidate5@ 0000000140044808     MSVCRTD:pdblkup.obj
 0002:00008820       _load_config_used          0000000140044820     MSVCRTD:loadcfg.obj
 0002:000089b8       __imp_IspSoftAeLoad        00000001400449b8     <linker-defined>
 0002:00008a00       __CastGuardVftablesStart   0000000140044a00     MSVCRTD:guard_support.obj
 0002:00008a80       __CastGuardVftablesEnd     0000000140044a80     MSVCRTD:guard_support.obj
 0002:00008b00       _tls_used                  0000000140044b00     MSVCRTD:tlssup.obj
 0002:00008b30       ??_R4exception@std@@6B@    0000000140044b30     alAELibCore.obj
 0002:00008b58       ??_R3exception@std@@8      0000000140044b58     alAELibCore.obj
 0002:00008b70       ??_R2exception@std@@8      0000000140044b70     alAELibCore.obj
 0002:00008b80       ??_R1A@?0A@EA@exception@std@@8 0000000140044b80     alAELibCore.obj
 0002:00008ba8       ??_R4bad_alloc@std@@6B@    0000000140044ba8     alAELibCore.obj
 0002:00008bd0       ??_R3bad_alloc@std@@8      0000000140044bd0     alAELibCore.obj
 0002:00008be8       ??_R2bad_alloc@std@@8      0000000140044be8     alAELibCore.obj
 0002:00008c00       ??_R1A@?0A@EA@bad_alloc@std@@8 0000000140044c00     alAELibCore.obj
 0002:00008c28       ??_R4bad_array_new_length@std@@6B@ 0000000140044c28     alAELibCore.obj
 0002:00008c50       ??_R3bad_array_new_length@std@@8 0000000140044c50     alAELibCore.obj
 0002:00008c68       ??_R2bad_array_new_length@std@@8 0000000140044c68     alAELibCore.obj
 0002:00008c88       ??_R1A@?0A@EA@bad_array_new_length@std@@8 0000000140044c88     alAELibCore.obj
 0002:00008cb0       ??_R4?$basic_filebuf@DU?$char_traits@D@std@@@std@@6B@ 0000000140044cb0     IspSoftAeApi.obj
 0002:00008cd8       ??_R3?$basic_filebuf@DU?$char_traits@D@std@@@std@@8 0000000140044cd8     IspSoftAeApi.obj
 0002:00008cf0       ??_R2?$basic_filebuf@DU?$char_traits@D@std@@@std@@8 0000000140044cf0     IspSoftAeApi.obj
 0002:00008d08       ??_R1A@?0A@EA@?$basic_filebuf@DU?$char_traits@D@std@@@std@@8 0000000140044d08     IspSoftAeApi.obj
 0002:00008d30       ??_R1A@?0A@EA@?$basic_streambuf@DU?$char_traits@D@std@@@std@@8 0000000140044d30     IspSoftAeApi.obj
 0002:00008d58       ??_R3?$basic_streambuf@DU?$char_traits@D@std@@@std@@8 0000000140044d58     IspSoftAeApi.obj
 0002:00008d70       ??_R2?$basic_streambuf@DU?$char_traits@D@std@@@std@@8 0000000140044d70     IspSoftAeApi.obj
 0002:00008d80       ??_R4?$basic_fstream@DU?$char_traits@D@std@@@std@@6B@ 0000000140044d80     IspSoftAeApi.obj
 0002:00008da8       ??_R3?$basic_fstream@DU?$char_traits@D@std@@@std@@8 0000000140044da8     IspSoftAeApi.obj
 0002:00008dc0       ??_R2?$basic_fstream@DU?$char_traits@D@std@@@std@@8 0000000140044dc0     IspSoftAeApi.obj
 0002:00008e18       ??_R1A@?0A@EA@?$basic_fstream@DU?$char_traits@D@std@@@std@@8 0000000140044e18     IspSoftAeApi.obj
 0002:00008e40       ??_R1A@?0A@EA@?$basic_iostream@DU?$char_traits@D@std@@@std@@8 0000000140044e40     IspSoftAeApi.obj
 0002:00008e68       ??_R3?$basic_iostream@DU?$char_traits@D@std@@@std@@8 0000000140044e68     IspSoftAeApi.obj
 0002:00008e80       ??_R2?$basic_iostream@DU?$char_traits@D@std@@@std@@8 0000000140044e80     IspSoftAeApi.obj
 0002:00008ed0       ??_R1A@?0A@EA@?$basic_istream@DU?$char_traits@D@std@@@std@@8 0000000140044ed0     IspSoftAeApi.obj
 0002:00008ef8       ??_R3?$basic_istream@DU?$char_traits@D@std@@@std@@8 0000000140044ef8     IspSoftAeApi.obj
 0002:00008f10       ??_R2?$basic_istream@DU?$char_traits@D@std@@@std@@8 0000000140044f10     IspSoftAeApi.obj
 0002:00008f38       ??_R1A@A@3FA@?$basic_ios@DU?$char_traits@D@std@@@std@@8 0000000140044f38     IspSoftAeApi.obj
 0002:00008f60       ??_R3?$basic_ios@DU?$char_traits@D@std@@@std@@8 0000000140044f60     IspSoftAeApi.obj
 0002:00008f78       ??_R2?$basic_ios@DU?$char_traits@D@std@@@std@@8 0000000140044f78     IspSoftAeApi.obj
 0002:00008f98       ??_R1A@?0A@EA@?$basic_ios@DU?$char_traits@D@std@@@std@@8 0000000140044f98     IspSoftAeApi.obj
 0002:00008fc0       ??_R1A@?0A@EA@ios_base@std@@8 0000000140044fc0     IspSoftAeApi.obj
 0002:00008fe8       ??_R3ios_base@std@@8       0000000140044fe8     IspSoftAeApi.obj
 0002:00009000       ??_R2ios_base@std@@8       0000000140045000     IspSoftAeApi.obj
 0002:00009018       ??_R17?0A@EA@?$_Iosb@H@std@@8 0000000140045018     IspSoftAeApi.obj
 0002:00009040       ??_R3?$_Iosb@H@std@@8      0000000140045040     IspSoftAeApi.obj
 0002:00009058       ??_R2?$_Iosb@H@std@@8      0000000140045058     IspSoftAeApi.obj
 0002:00009068       ??_R1A@?0A@EA@?$_Iosb@H@std@@8 0000000140045068     IspSoftAeApi.obj
 0002:00009090       ??_R1A@A@3EA@ios_base@std@@8 0000000140045090     IspSoftAeApi.obj
 0002:000090b8       ??_R17A@3EA@?$_Iosb@H@std@@8 00000001400450b8     IspSoftAeApi.obj
 0002:000090e0       ??_R1BA@?0A@EA@?$basic_ostream@DU?$char_traits@D@std@@@std@@8 00000001400450e0     IspSoftAeApi.obj
 0002:00009108       ??_R3?$basic_ostream@DU?$char_traits@D@std@@@std@@8 0000000140045108     IspSoftAeApi.obj
 0002:00009120       ??_R2?$basic_ostream@DU?$char_traits@D@std@@@std@@8 0000000140045120     IspSoftAeApi.obj
 0002:00009148       ??_R1A@?0A@EA@?$basic_ostream@DU?$char_traits@D@std@@@std@@8 0000000140045148     IspSoftAeApi.obj
 0002:00009170       ??_R4bad_cast@std@@6B@     0000000140045170     IspSoftAeApi.obj
 0002:00009198       ??_R3bad_cast@std@@8       0000000140045198     IspSoftAeApi.obj
 0002:000091b0       ??_R2bad_cast@std@@8       00000001400451b0     IspSoftAeApi.obj
 0002:000091c8       ??_R1A@?0A@EA@bad_cast@std@@8 00000001400451c8     IspSoftAeApi.obj
 0002:000091f0       ??_R4?$basic_ifstream@DU?$char_traits@D@std@@@std@@6B@ 00000001400451f0     test.obj
 0002:00009218       ??_R3?$basic_ifstream@DU?$char_traits@D@std@@@std@@8 0000000140045218     test.obj
 0002:00009230       ??_R2?$basic_ifstream@DU?$char_traits@D@std@@@std@@8 0000000140045230     test.obj
 0002:00009260       ??_R1A@?0A@EA@?$basic_ifstream@DU?$char_traits@D@std@@@std@@8 0000000140045260     test.obj
 0002:00009288       ??_R3_Ref_count_base@std@@8 0000000140045288     test.obj
 0002:000092a0       ??_R2_Ref_count_base@std@@8 00000001400452a0     test.obj
 0002:000092b0       ??_R1A@?0A@EA@_Ref_count_base@std@@8 00000001400452b0     test.obj
 0002:000092d8       ??_R4logic_error@std@@6B@  00000001400452d8     test.obj
 0002:00009300       ??_R3logic_error@std@@8    0000000140045300     test.obj
 0002:00009318       ??_R2logic_error@std@@8    0000000140045318     test.obj
 0002:00009330       ??_R1A@?0A@EA@logic_error@std@@8 0000000140045330     test.obj
 0002:00009358       ??_R4runtime_error@std@@6B@ 0000000140045358     test.obj
 0002:00009380       ??_R3runtime_error@std@@8  0000000140045380     test.obj
 0002:00009398       ??_R2runtime_error@std@@8  0000000140045398     test.obj
 0002:000093b0       ??_R1A@?0A@EA@runtime_error@std@@8 00000001400453b0     test.obj
 0002:000093d8       ??_R3error_category@std@@8 00000001400453d8     test.obj
 0002:000093f0       ??_R2error_category@std@@8 00000001400453f0     test.obj
 0002:00009400       ??_R1A@?0A@EA@error_category@std@@8 0000000140045400     test.obj
 0002:00009428       ??_R4_System_error@std@@6B@ 0000000140045428     test.obj
 0002:00009450       ??_R3_System_error@std@@8  0000000140045450     test.obj
 0002:00009468       ??_R2_System_error@std@@8  0000000140045468     test.obj
 0002:00009488       ??_R1A@?0A@EA@_System_error@std@@8 0000000140045488     test.obj
 0002:000094b0       ??_R4system_error@std@@6B@ 00000001400454b0     test.obj
 0002:000094d8       ??_R3system_error@std@@8   00000001400454d8     test.obj
 0002:000094f0       ??_R2system_error@std@@8   00000001400454f0     test.obj
 0002:00009518       ??_R1A@?0A@EA@system_error@std@@8 0000000140045518     test.obj
 0002:00009540       ??_R4_Generic_error_category@std@@6B@ 0000000140045540     test.obj
 0002:00009568       ??_R3_Generic_error_category@std@@8 0000000140045568     test.obj
 0002:00009580       ??_R2_Generic_error_category@std@@8 0000000140045580     test.obj
 0002:00009598       ??_R1A@?0A@EA@_Generic_error_category@std@@8 0000000140045598     test.obj
 0002:000095c0       ??_R3scheduler_interface@Concurrency@@8 00000001400455c0     test.obj
 0002:000095d8       ??_R2scheduler_interface@Concurrency@@8 00000001400455d8     test.obj
 0002:000095e8       ??_R1A@?0A@EA@scheduler_interface@Concurrency@@8 00000001400455e8     test.obj
 0002:00009610       ??_R4invalid_operation@Concurrency@@6B@ 0000000140045610     test.obj
 0002:00009638       ??_R3invalid_operation@Concurrency@@8 0000000140045638     test.obj
 0002:00009650       ??_R2invalid_operation@Concurrency@@8 0000000140045650     test.obj
 0002:00009668       ??_R1A@?0A@EA@invalid_operation@Concurrency@@8 0000000140045668     test.obj
 0002:00009690       ??_R4_DefaultPPLTaskScheduler@details@Concurrency@@6B@ 0000000140045690     test.obj
 0002:000096b8       ??_R3_DefaultPPLTaskScheduler@details@Concurrency@@8 00000001400456b8     test.obj
 0002:000096d0       ??_R2_DefaultPPLTaskScheduler@details@Concurrency@@8 00000001400456d0     test.obj
 0002:000096e8       ??_R1A@?0A@EA@_DefaultPPLTaskScheduler@details@Concurrency@@8 00000001400456e8     test.obj
 0002:00009710       ??_R4_RefCounter@details@Concurrency@@6B@ 0000000140045710     test.obj
 0002:00009738       ??_R3_RefCounter@details@Concurrency@@8 0000000140045738     test.obj
 0002:00009750       ??_R2_RefCounter@details@Concurrency@@8 0000000140045750     test.obj
 0002:00009760       ??_R1A@?0A@EA@_RefCounter@details@Concurrency@@8 0000000140045760     test.obj
 0002:00009788       ??_R4_CancellationTokenRegistration@details@Concurrency@@6B@ 0000000140045788     test.obj
 0002:000097b0       ??_R3_CancellationTokenRegistration@details@Concurrency@@8 00000001400457b0     test.obj
 0002:000097c8       ??_R2_CancellationTokenRegistration@details@Concurrency@@8 00000001400457c8     test.obj
 0002:000097e0       ??_R1A@?0A@EA@_CancellationTokenRegistration@details@Concurrency@@8 00000001400457e0     test.obj
 0002:00009808       ??_R4_TaskProcHandle@details@Concurrency@@6B@ 0000000140045808     test.obj
 0002:00009830       ??_R3_TaskProcHandle@details@Concurrency@@8 0000000140045830     test.obj
 0002:00009848       ??_R2_TaskProcHandle@details@Concurrency@@8 0000000140045848     test.obj
 0002:00009858       ??_R1A@?0A@EA@_TaskProcHandle@details@Concurrency@@8 0000000140045858     test.obj
 0002:00009880       ??_R3?$_Func_base@X$$V@std@@8 0000000140045880     test.obj
 0002:00009898       ??_R2?$_Func_base@X$$V@std@@8 0000000140045898     test.obj
 0002:000098a8       ??_R1A@?0A@EA@?$_Func_base@X$$V@std@@8 00000001400458a8     test.obj
 0002:000098d0       ??_R4_Task_impl_base@details@Concurrency@@6B@ 00000001400458d0     test.obj
 0002:000098f8       ??_R3_Task_impl_base@details@Concurrency@@8 00000001400458f8     test.obj
 0002:00009910       ??_R2_Task_impl_base@details@Concurrency@@8 0000000140045910     test.obj
 0002:00009920       ??_R1A@?0A@EA@_Task_impl_base@details@Concurrency@@8 0000000140045920     test.obj
 0002:00009948       ??_R4?$_CancellationTokenCallback@V<lambda_1>@?1??_RegisterCancellation@_Task_impl_base@details@Concurrency@@QEAAXV?$weak_ptr@U_Task_impl_base@details@Concurrency@@@std@@@Z@@details@Concurrency@@6B@ 0000000140045948     test.obj
 0002:00009970       ??_R3?$_CancellationTokenCallback@V<lambda_1>@?1??_RegisterCancellation@_Task_impl_base@details@Concurrency@@QEAAXV?$weak_ptr@U_Task_impl_base@details@Concurrency@@@std@@@Z@@details@Concurrency@@8 0000000140045970     test.obj
 0002:00009988       ??_R2?$_CancellationTokenCallback@V<lambda_1>@?1??_RegisterCancellation@_Task_impl_base@details@Concurrency@@QEAAXV?$weak_ptr@U_Task_impl_base@details@Concurrency@@@std@@@Z@@details@Concurrency@@8 0000000140045988     test.obj
 0002:000099a8       ??_R1A@?0A@EA@?$_CancellationTokenCallback@V<lambda_1>@?1??_RegisterCancellation@_Task_impl_base@details@Concurrency@@QEAAXV?$weak_ptr@U_Task_impl_base@details@Concurrency@@@std@@@Z@@details@Concurrency@@8 00000001400459a8     test.obj
 0002:000099d0       ??_R3?$_Func_base@E$$V@std@@8 00000001400459d0     test.obj
 0002:000099e8       ??_R2?$_Func_base@E$$V@std@@8 00000001400459e8     test.obj
 0002:000099f8       ??_R1A@?0A@EA@?$_Func_base@E$$V@std@@8 00000001400459f8     test.obj
 0002:00009a20       ??_R4?$_Task_impl@E@details@Concurrency@@6B@ 0000000140045a20     test.obj
 0002:00009a48       ??_R3?$_Task_impl@E@details@Concurrency@@8 0000000140045a48     test.obj
 0002:00009a60       ??_R2?$_Task_impl@E@details@Concurrency@@8 0000000140045a60     test.obj
 0002:00009a78       ??_R1A@?0A@EA@?$_Task_impl@E@details@Concurrency@@8 0000000140045a78     test.obj
 0002:00009aa0       ??_R4future_error@std@@6B@ 0000000140045aa0     test.obj
 0002:00009ac8       ??_R3future_error@std@@8   0000000140045ac8     test.obj
 0002:00009ae0       ??_R2future_error@std@@8   0000000140045ae0     test.obj
 0002:00009b00       ??_R1A@?0A@EA@future_error@std@@8 0000000140045b00     test.obj
 0002:00009b28       ??_R4_Future_error_category2@std@@6B@ 0000000140045b28     test.obj
 0002:00009b50       ??_R3_Future_error_category2@std@@8 0000000140045b50     test.obj
 0002:00009b68       ??_R2_Future_error_category2@std@@8 0000000140045b68     test.obj
 0002:00009b80       ??_R1A@?0A@EA@_Future_error_category2@std@@8 0000000140045b80     test.obj
 0002:00009ba8       ??_R4?$_Associated_state@H@std@@6B@ 0000000140045ba8     test.obj
 0002:00009bd0       ??_R3?$_Associated_state@H@std@@8 0000000140045bd0     test.obj
 0002:00009be8       ??_R2?$_Associated_state@H@std@@8 0000000140045be8     test.obj
 0002:00009bf8       ??_R1A@?0A@EA@?$_Associated_state@H@std@@8 0000000140045bf8     test.obj
 0002:00009c20       ??_R4?$_Ref_count_obj2@U_ExceptionHolder@details@Concurrency@@@std@@6B@ 0000000140045c20     test.obj
 0002:00009c48       ??_R3?$_Ref_count_obj2@U_ExceptionHolder@details@Concurrency@@@std@@8 0000000140045c48     test.obj
 0002:00009c60       ??_R2?$_Ref_count_obj2@U_ExceptionHolder@details@Concurrency@@@std@@8 0000000140045c60     test.obj
 0002:00009c78       ??_R1A@?0A@EA@?$_Ref_count_obj2@U_ExceptionHolder@details@Concurrency@@@std@@8 0000000140045c78     test.obj
 0002:00009ca0       ??_R4?$_Ref_count_obj2@U?$_Task_impl@E@details@Concurrency@@@std@@6B@ 0000000140045ca0     test.obj
 0002:00009cc8       ??_R3?$_Ref_count_obj2@U?$_Task_impl@E@details@Concurrency@@@std@@8 0000000140045cc8     test.obj
 0002:00009ce0       ??_R2?$_Ref_count_obj2@U?$_Task_impl@E@details@Concurrency@@@std@@8 0000000140045ce0     test.obj
 0002:00009cf8       ??_R1A@?0A@EA@?$_Ref_count_obj2@U?$_Task_impl@E@details@Concurrency@@@std@@8 0000000140045cf8     test.obj
 0002:00009d20       ??_R4?$_Func_impl_no_alloc@V<lambda_1>@?7???R1?4??_ScheduleContinuationTask@_Task_impl_base@details@Concurrency@@QEAAXPEAU_ContinuationTaskHandleBase@45@@Z@QEBA@XZ@X$$V@std@@6B@ 0000000140045d20     test.obj
 0002:00009d48       ??_R3?$_Func_impl_no_alloc@V<lambda_1>@?7???R1?4??_ScheduleContinuationTask@_Task_impl_base@details@Concurrency@@QEAAXPEAU_ContinuationTaskHandleBase@45@@Z@QEBA@XZ@X$$V@std@@8 0000000140045d48     test.obj
 0002:00009d60       ??_R2?$_Func_impl_no_alloc@V<lambda_1>@?7???R1?4??_ScheduleContinuationTask@_Task_impl_base@details@Concurrency@@QEAAXPEAU_ContinuationTaskHandleBase@45@@Z@QEBA@XZ@X$$V@std@@8 0000000140045d60     test.obj
 0002:00009d78       ??_R1A@?0A@EA@?$_Func_impl_no_alloc@V<lambda_1>@?7???R1?4??_ScheduleContinuationTask@_Task_impl_base@details@Concurrency@@QEAAXPEAU_ContinuationTaskHandleBase@45@@Z@QEBA@XZ@X$$V@std@@8 0000000140045d78     test.obj
 0002:00009da0       ??_R4?$_Func_impl_no_alloc@V<lambda_1>@?4??_ScheduleContinuationTask@_Task_impl_base@details@Concurrency@@QEAAXPEAU_ContinuationTaskHandleBase@45@@Z@X$$V@std@@6B@ 0000000140045da0     test.obj
 0002:00009dc8       ??_R3?$_Func_impl_no_alloc@V<lambda_1>@?4??_ScheduleContinuationTask@_Task_impl_base@details@Concurrency@@QEAAXPEAU_ContinuationTaskHandleBase@45@@Z@X$$V@std@@8 0000000140045dc8     test.obj
 0002:00009de0       ??_R2?$_Func_impl_no_alloc@V<lambda_1>@?4??_ScheduleContinuationTask@_Task_impl_base@details@Concurrency@@QEAAXPEAU_ContinuationTaskHandleBase@45@@Z@X$$V@std@@8 0000000140045de0     test.obj
 0002:00009df8       ??_R1A@?0A@EA@?$_Func_impl_no_alloc@V<lambda_1>@?4??_ScheduleContinuationTask@_Task_impl_base@details@Concurrency@@QEAAXPEAU_ContinuationTaskHandleBase@45@@Z@X$$V@std@@8 0000000140045df8     test.obj
 0002:00009e20       ??_R4?$_Func_impl_no_alloc@V<lambda_1>@?1??_MakeVoidToUnitFunc@details@Concurrency@@YA?AV?$function@$$A6AEXZ@std@@AEBV?$function@$$A6AXXZ@6@@Z@E$$V@std@@6B@ 0000000140045e20     test.obj
 0002:00009e48       ??_R3?$_Func_impl_no_alloc@V<lambda_1>@?1??_MakeVoidToUnitFunc@details@Concurrency@@YA?AV?$function@$$A6AEXZ@std@@AEBV?$function@$$A6AXXZ@6@@Z@E$$V@std@@8 0000000140045e48     test.obj
 0002:00009e60       ??_R2?$_Func_impl_no_alloc@V<lambda_1>@?1??_MakeVoidToUnitFunc@details@Concurrency@@YA?AV?$function@$$A6AEXZ@std@@AEBV?$function@$$A6AXXZ@6@@Z@E$$V@std@@8 0000000140045e60     test.obj
 0002:00009e78       ??_R1A@?0A@EA@?$_Func_impl_no_alloc@V<lambda_1>@?1??_MakeVoidToUnitFunc@details@Concurrency@@YA?AV?$function@$$A6AEXZ@std@@AEBV?$function@$$A6AXXZ@6@@Z@E$$V@std@@8 0000000140045e78     test.obj
 0002:00009ea0       ??_R4?$_Func_impl_no_alloc@V<lambda_1>@?CC@??_CancelAndRunContinuations@?$_Task_impl@E@details@Concurrency@@UEAA_N_N00AEBV?$shared_ptr@U_ExceptionHolder@details@Concurrency@@@std@@@Z@X$$V@std@@6B@ 0000000140045ea0     test.obj
 0002:00009ec8       ??_R3?$_Func_impl_no_alloc@V<lambda_1>@?CC@??_CancelAndRunContinuations@?$_Task_impl@E@details@Concurrency@@UEAA_N_N00AEBV?$shared_ptr@U_ExceptionHolder@details@Concurrency@@@std@@@Z@X$$V@std@@8 0000000140045ec8     test.obj
 0002:00009ee0       ??_R2?$_Func_impl_no_alloc@V<lambda_1>@?CC@??_CancelAndRunContinuations@?$_Task_impl@E@details@Concurrency@@UEAA_N_N00AEBV?$shared_ptr@U_ExceptionHolder@details@Concurrency@@@std@@@Z@X$$V@std@@8 0000000140045ee0     test.obj
 0002:00009ef8       ??_R1A@?0A@EA@?$_Func_impl_no_alloc@V<lambda_1>@?CC@??_CancelAndRunContinuations@?$_Task_impl@E@details@Concurrency@@UEAA_N_N00AEBV?$shared_ptr@U_ExceptionHolder@details@Concurrency@@@std@@@Z@X$$V@std@@8 0000000140045ef8     test.obj
 0002:00009f20       ??_R4?$_Deferred_async_state@H@std@@6B@ 0000000140045f20     test.obj
 0002:00009f48       ??_R3?$_Deferred_async_state@H@std@@8 0000000140045f48     test.obj
 0002:00009f60       ??_R2?$_Deferred_async_state@H@std@@8 0000000140045f60     test.obj
 0002:00009f80       ??_R1A@?0A@EA@?$_Deferred_async_state@H@std@@8 0000000140045f80     test.obj
 0002:00009fa8       ??_R1A@?0A@EA@?$_Packaged_state@$$A6AHXZ@std@@8 0000000140045fa8     test.obj
 0002:00009fd0       ??_R3?$_Packaged_state@$$A6AHXZ@std@@8 0000000140045fd0     test.obj
 0002:00009fe8       ??_R2?$_Packaged_state@$$A6AHXZ@std@@8 0000000140045fe8     test.obj
 0002:0000a000       ??_R4?$_Packaged_state@$$A6AHXZ@std@@6B@ 0000000140046000     test.obj
 0002:0000a028       ??_R3?$_Func_base@H$$V@std@@8 0000000140046028     test.obj
 0002:0000a040       ??_R2?$_Func_base@H$$V@std@@8 0000000140046040     test.obj
 0002:0000a050       ??_R1A@?0A@EA@?$_Func_base@H$$V@std@@8 0000000140046050     test.obj
 0002:0000a078       ??_R4?$_Task_async_state@H@std@@6B@ 0000000140046078     test.obj
 0002:0000a0a0       ??_R3?$_Task_async_state@H@std@@8 00000001400460a0     test.obj
 0002:0000a0b8       ??_R2?$_Task_async_state@H@std@@8 00000001400460b8     test.obj
 0002:0000a0d8       ??_R1A@?0A@EA@?$_Task_async_state@H@std@@8 00000001400460d8     test.obj
 0002:0000a100       ??_R4?$_Func_impl_no_alloc@V?$_Fake_no_copy_callable_adapter@AEAP6AHPEAXI0@ZAEAPEAXW4IspSoftAeProcessType@@PEAUIspSoftAeInImage@@@std@@H$$V@std@@6B@ 0000000140046100     test.obj
 0002:0000a128       ??_R3?$_Func_impl_no_alloc@V?$_Fake_no_copy_callable_adapter@AEAP6AHPEAXI0@ZAEAPEAXW4IspSoftAeProcessType@@PEAUIspSoftAeInImage@@@std@@H$$V@std@@8 0000000140046128     test.obj
 0002:0000a140       ??_R2?$_Func_impl_no_alloc@V?$_Fake_no_copy_callable_adapter@AEAP6AHPEAXI0@ZAEAPEAXW4IspSoftAeProcessType@@PEAUIspSoftAeInImage@@@std@@H$$V@std@@8 0000000140046140     test.obj
 0002:0000a158       ??_R1A@?0A@EA@?$_Func_impl_no_alloc@V?$_Fake_no_copy_callable_adapter@AEAP6AHPEAXI0@ZAEAPEAXW4IspSoftAeProcessType@@PEAUIspSoftAeInImage@@@std@@H$$V@std@@8 0000000140046158     test.obj
 0002:0000a180       ??_R4?$_InitialTaskHandle@XV<lambda_1>@?1???$?0V?$_Fake_no_copy_callable_adapter@AEAP6AHPEAXI0@ZAEAPEAXW4IspSoftAeProcessType@@PEAUIspSoftAeInImage@@@std@@@?$_Task_async_state@H@std@@QEAA@$$QEAV?$_Fake_no_copy_callable_adapter@AEAP6AHPEAXI0@ZAEAPEAXW4IspSoftAeProcessType@@PEAUIspSoftAeInImage@@@3@@Z@U_TypeSelectorNoAsync@details@Concurrency@@@?$task@E@Concurrency@@6B@ 0000000140046180     test.obj
 0002:0000a1a8       ??_R3?$_InitialTaskHandle@XV<lambda_1>@?1???$?0V?$_Fake_no_copy_callable_adapter@AEAP6AHPEAXI0@ZAEAPEAXW4IspSoftAeProcessType@@PEAUIspSoftAeInImage@@@std@@@?$_Task_async_state@H@std@@QEAA@$$QEAV?$_Fake_no_copy_callable_adapter@AEAP6AHPEAXI0@ZAEAPEAXW4IspSoftAeProcessType@@PEAUIspSoftAeInImage@@@3@@Z@U_TypeSelectorNoAsync@details@Concurrency@@@?$task@E@Concurrency@@8 00000001400461a8     test.obj
 0002:0000a1c0       ??_R2?$_InitialTaskHandle@XV<lambda_1>@?1???$?0V?$_Fake_no_copy_callable_adapter@AEAP6AHPEAXI0@ZAEAPEAXW4IspSoftAeProcessType@@PEAUIspSoftAeInImage@@@std@@@?$_Task_async_state@H@std@@QEAA@$$QEAV?$_Fake_no_copy_callable_adapter@AEAP6AHPEAXI0@ZAEAPEAXW4IspSoftAeProcessType@@PEAUIspSoftAeInImage@@@3@@Z@U_TypeSelectorNoAsync@details@Concurrency@@@?$task@E@Concurrency@@8 00000001400461c0     test.obj
 0002:0000a1e0       ??_R1A@?0A@EA@?$_InitialTaskHandle@XV<lambda_1>@?1???$?0V?$_Fake_no_copy_callable_adapter@AEAP6AHPEAXI0@ZAEAPEAXW4IspSoftAeProcessType@@PEAUIspSoftAeInImage@@@std@@@?$_Task_async_state@H@std@@QEAA@$$QEAV?$_Fake_no_copy_callable_adapter@AEAP6AHPEAXI0@ZAEAPEAXW4IspSoftAeProcessType@@PEAUIspSoftAeInImage@@@3@@Z@U_TypeSelectorNoAsync@details@Concurrency@@@?$task@E@Concurrency@@8 00000001400461e0     test.obj
 0002:0000a208       ??_R1A@?0A@EA@?$_PPLTaskHandle@EU?$_InitialTaskHandle@XV<lambda_1>@?1???$?0V?$_Fake_no_copy_callable_adapter@AEAP6AHPEAXI0@ZAEAPEAXW4IspSoftAeProcessType@@PEAUIspSoftAeInImage@@@std@@@?$_Task_async_state@H@std@@QEAA@$$QEAV?$_Fake_no_copy_callable_adapter@AEAP6AHPEAXI0@ZAEAPEAXW4IspSoftAeProcessType@@PEAUIspSoftAeInImage@@@3@@Z@U_TypeSelectorNoAsync@details@Concurrency@@@?$task@E@Concurrency@@U_TaskProcHandle@details@3@@details@Concurrency@@8 0000000140046208     test.obj
 0002:0000a230       ??_R3?$_PPLTaskHandle@EU?$_InitialTaskHandle@XV<lambda_1>@?1???$?0V?$_Fake_no_copy_callable_adapter@AEAP6AHPEAXI0@ZAEAPEAXW4IspSoftAeProcessType@@PEAUIspSoftAeInImage@@@std@@@?$_Task_async_state@H@std@@QEAA@$$QEAV?$_Fake_no_copy_callable_adapter@AEAP6AHPEAXI0@ZAEAPEAXW4IspSoftAeProcessType@@PEAUIspSoftAeInImage@@@3@@Z@U_TypeSelectorNoAsync@details@Concurrency@@@?$task@E@Concurrency@@U_TaskProcHandle@details@3@@details@Concurrency@@8 0000000140046230     test.obj
 0002:0000a248       ??_R2?$_PPLTaskHandle@EU?$_InitialTaskHandle@XV<lambda_1>@?1???$?0V?$_Fake_no_copy_callable_adapter@AEAP6AHPEAXI0@ZAEAPEAXW4IspSoftAeProcessType@@PEAUIspSoftAeInImage@@@std@@@?$_Task_async_state@H@std@@QEAA@$$QEAV?$_Fake_no_copy_callable_adapter@AEAP6AHPEAXI0@ZAEAPEAXW4IspSoftAeProcessType@@PEAUIspSoftAeInImage@@@3@@Z@U_TypeSelectorNoAsync@details@Concurrency@@@?$task@E@Concurrency@@U_TaskProcHandle@details@3@@details@Concurrency@@8 0000000140046248     test.obj
 0002:0000a260       ??_R4?$_PPLTaskHandle@EU?$_InitialTaskHandle@XV<lambda_1>@?1???$?0V?$_Fake_no_copy_callable_adapter@AEAP6AHPEAXI0@ZAEAPEAXW4IspSoftAeProcessType@@PEAUIspSoftAeInImage@@@std@@@?$_Task_async_state@H@std@@QEAA@$$QEAV?$_Fake_no_copy_callable_adapter@AEAP6AHPEAXI0@ZAEAPEAXW4IspSoftAeProcessType@@PEAUIspSoftAeInImage@@@3@@Z@U_TypeSelectorNoAsync@details@Concurrency@@@?$task@E@Concurrency@@U_TaskProcHandle@details@3@@details@Concurrency@@6B@ 0000000140046260     test.obj
 0002:0000a288       ??_R4?$_Func_impl_no_alloc@V<lambda_1>@?1???$?0V?$_Fake_no_copy_callable_adapter@AEAP6AHPEAXI0@ZAEAPEAXW4IspSoftAeProcessType@@PEAUIspSoftAeInImage@@@std@@@?$_Task_async_state@H@std@@QEAA@$$QEAV?$_Fake_no_copy_callable_adapter@AEAP6AHPEAXI0@ZAEAPEAXW4IspSoftAeProcessType@@PEAUIspSoftAeInImage@@@3@@Z@X$$V@std@@6B@ 0000000140046288     test.obj
 0002:0000a2b0       ??_R3?$_Func_impl_no_alloc@V<lambda_1>@?1???$?0V?$_Fake_no_copy_callable_adapter@AEAP6AHPEAXI0@ZAEAPEAXW4IspSoftAeProcessType@@PEAUIspSoftAeInImage@@@std@@@?$_Task_async_state@H@std@@QEAA@$$QEAV?$_Fake_no_copy_callable_adapter@AEAP6AHPEAXI0@ZAEAPEAXW4IspSoftAeProcessType@@PEAUIspSoftAeInImage@@@3@@Z@X$$V@std@@8 00000001400462b0     test.obj
 0002:0000a2c8       ??_R2?$_Func_impl_no_alloc@V<lambda_1>@?1???$?0V?$_Fake_no_copy_callable_adapter@AEAP6AHPEAXI0@ZAEAPEAXW4IspSoftAeProcessType@@PEAUIspSoftAeInImage@@@std@@@?$_Task_async_state@H@std@@QEAA@$$QEAV?$_Fake_no_copy_callable_adapter@AEAP6AHPEAXI0@ZAEAPEAXW4IspSoftAeProcessType@@PEAUIspSoftAeInImage@@@3@@Z@X$$V@std@@8 00000001400462c8     test.obj
 0002:0000a2e0       ??_R1A@?0A@EA@?$_Func_impl_no_alloc@V<lambda_1>@?1???$?0V?$_Fake_no_copy_callable_adapter@AEAP6AHPEAXI0@ZAEAPEAXW4IspSoftAeProcessType@@PEAUIspSoftAeInImage@@@std@@@?$_Task_async_state@H@std@@QEAA@$$QEAV?$_Fake_no_copy_callable_adapter@AEAP6AHPEAXI0@ZAEAPEAXW4IspSoftAeProcessType@@PEAUIspSoftAeInImage@@@3@@Z@X$$V@std@@8 00000001400462e0     test.obj
 0002:0000a308       ??_R4type_info@@6B@        0000000140046308     MSVCRTD:std_type_info_static.obj
 0002:0000a330       ??_R3type_info@@8          0000000140046330     MSVCRTD:std_type_info_static.obj
 0002:0000a348       ??_R2type_info@@8          0000000140046348     MSVCRTD:std_type_info_static.obj
 0002:0000a358       ??_R1A@?0A@EA@type_info@@8 0000000140046358     MSVCRTD:std_type_info_static.obj
 0002:0000a37c       __volatile_metadata        000000014004637c     <linker-defined>
 0002:0000b040       __rtc_iaa                  0000000140047040     MSVCRTD:initsect.obj
 0002:0000b070       __rtc_izz                  0000000140047070     MSVCRTD:initsect.obj
 0002:0000b078       __rtc_taa                  0000000140047078     MSVCRTD:initsect.obj
 0002:0000b0a8       __rtc_tzz                  00000001400470a8     MSVCRTD:initsect.obj
 0002:0000b0b0       _tls_start                 00000001400470b0     MSVCRTD:tlssup.obj
 0002:0000b0b4       _Init_thread_epoch         00000001400470b4     MSVCRTD:thread_safe_statics.obj
 0002:0000b0b8       _tls_end                   00000001400470b8     MSVCRTD:tlssup.obj
 0002:00011898       _CT??_R0?AVexception@std@@@8??0exception@std@@QEAA@AEBV01@@Z24 000000014004d898     alAELibCore.obj
 0002:000118c0       _TI3?AVbad_array_new_length@std@@ 000000014004d8c0     alAELibCore.obj
 0002:000118e0       _CTA3?AVbad_array_new_length@std@@ 000000014004d8e0     alAELibCore.obj
 0002:00011900       _CT??_R0?AVbad_array_new_length@std@@@8??0bad_array_new_length@std@@QEAA@AEBV01@@Z24 000000014004d900     alAELibCore.obj
 0002:00011928       _CT??_R0?AVbad_alloc@std@@@8??0bad_alloc@std@@QEAA@AEBV01@@Z24 000000014004d928     alAELibCore.obj
 0002:00011950       _TI2?AVbad_cast@std@@      000000014004d950     IspSoftAeApi.obj
 0002:00011970       _CTA2?AVbad_cast@std@@     000000014004d970     IspSoftAeApi.obj
 0002:00011988       _CT??_R0?AVbad_cast@std@@@8??0bad_cast@std@@QEAA@AEBV01@@Z24 000000014004d988     IspSoftAeApi.obj
 0002:000119b0       _CT??_R0?AVruntime_error@std@@@8??0runtime_error@std@@QEAA@AEBV01@@Z24 000000014004d9b0     test.obj
 0002:000119d8       _TI4?AVsystem_error@std@@  000000014004d9d8     test.obj
 0002:000119f8       _CTA4?AVsystem_error@std@@ 000000014004d9f8     test.obj
 0002:00011a20       _CT??_R0?AVsystem_error@std@@@8??0system_error@std@@QEAA@AEBV01@@Z40 000000014004da20     test.obj
 0002:00011a48       _CT??_R0?AV_System_error@std@@@8??0_System_error@std@@QEAA@AEBV01@@Z40 000000014004da48     test.obj
 0002:00011a70       _TI2?AVruntime_error@std@@ 000000014004da70     test.obj
 0002:00011a90       _CTA2?AVruntime_error@std@@ 000000014004da90     test.obj
 0002:00011aa8       _TI2?AVinvalid_operation@Concurrency@@ 000000014004daa8     test.obj
 0002:00011ac8       _CTA2?AVinvalid_operation@Concurrency@@ 000000014004dac8     test.obj
 0002:00011ae0       _CT??_R0?AVinvalid_operation@Concurrency@@@8??0invalid_operation@Concurrency@@QEAA@AEBV01@@Z24 000000014004dae0     test.obj
 0002:00011b08       _TI3?AVfuture_error@std@@  000000014004db08     test.obj
 0002:00011b28       _CTA3?AVfuture_error@std@@ 000000014004db28     test.obj
 0002:00011b48       _CT??_R0?AVfuture_error@std@@@8??0future_error@std@@QEAA@AEBV01@@Z40 000000014004db48     test.obj
 0002:00011b70       _CT??_R0?AVlogic_error@std@@@8??0logic_error@std@@QEAA@AEBV01@@Z24 000000014004db70     test.obj
 0002:00011b98       _TI2?AVbad_alloc@std@@     000000014004db98     MSVCRTD:throw_bad_alloc.obj
 0002:00011bb8       _CTA2?AVbad_alloc@std@@    000000014004dbb8     MSVCRTD:throw_bad_alloc.obj
 0002:00011c1c       __IMPORT_DESCRIPTOR_KERNEL32 000000014004dc1c     kernel32:KERNEL32.dll
 0002:00011c30       __IMPORT_DESCRIPTOR_MSVCP140D 000000014004dc30     msvcprtd:MSVCP140D.dll
 0002:00011c44       __IMPORT_DESCRIPTOR_VCRUNTIME140D 000000014004dc44     vcruntimed:VCRUNTIME140D.dll
 0002:00011c58       __IMPORT_DESCRIPTOR_VCRUNTIME140_1D 000000014004dc58     vcruntimed:VCRUNTIME140_1D.dll
 0002:00011c6c       __IMPORT_DESCRIPTOR_ucrtbased 000000014004dc6c     ucrtd:ucrtbased.dll
 0002:00011c80       __NULL_IMPORT_DESCRIPTOR   000000014004dc80     kernel32:KERNEL32.dll
 0003:00000000       ?AELib_Log2_Table@@3PAGA   0000000140050000     alAELibCore.obj
 0003:00000800       ?__LINE__Var@?0??_Adjust_manually_vector_aligned@std@@YAXAEAPEAXAEA_K@Z@4JA 0000000140050800     alAELibCore.obj
 0003:00000804       ?__LINE__Var@?0??set_log_level@@YAXH@Z@4JA 0000000140050804     alAELibCore.obj
 0003:00000808       ?__LINE__Var@?0??allib_ae_set_debug_log_flag@@9@4JA 0000000140050808     alAELibCore.obj
 0003:0000080c       ?__LINE__Var@?0??allib_ae_loadfunc@@9@4JA 000000014005080c     alAELibCore.obj
 0003:00000810       ?__LINE__Var@?0??alAE_set_param@@YAIPEAUae_set_param_t@@PEAUae_output_data_t@@PEAX@Z@4JA 0000000140050810     alAELibCore.obj
 0003:00000814       ?__LINE__Var@?0??alAE_get_param@@YAIPEAUae_get_param_t@@PEAX@Z@4JA 0000000140050814     alAELibCore.obj
 0003:00000818       ?__LINE__Var@?0??alAE_process@@YAIPEAX0Ualhw3a_ae_proc_data_t@@0PEAUae_output_data_t@@@Z@4JA 0000000140050818     alAELibCore.obj
 0003:0000081c       ?__LINE__Var@?0??alAE_estimation@@9@4JA 000000014005081c     alAELibCore.obj
 0003:00000820       ?__LINE__Var@?0??alAE_Simple_AE_Metering@@YAXPEAUae_corelib_obj_t@@PEAUae_output_data_t@@PEAUal3awrapper_stats_ae_t@@@Z@4JA 0000000140050820     alAELibCore.obj
 0003:00000824       ?__LINE__Var@?0??alAELib_GetExposureParameter@@9@4JA 0000000140050824     alAELibCore.obj
 0003:00000828       ?__LINE__Var@?0??al3awrapper_dispatchhw3a_aestats@@9@4JA 0000000140050828     alAELibCore.obj
 0003:0000082c       ?__LINE__Var@?0??alAELib_CalculateProgressiveAE@@9@4JA 000000014005082c     alAELibCore.obj
 0003:00000830       ?__LINE__Var@?0??alAELib_Core_estimateSlave@@9@4JA 0000000140050830     alAELibCore.obj
 0003:00000834       ?__LINE__Var@?0??alAELib_Core_mixExposure@@9@4JA 0000000140050834     alAELibCore.obj
 0003:00000838       ?__LINE__Var@?0??alAELib_Core_calMeteringRatio@@9@4JA 0000000140050838     alAELibCore.obj
 0003:0000083c       ?__LINE__Var@?0??Calculate_DTC_GAIN@@YAXPEAUiAE_input@@PEAG11HPEAX@Z@4JA 000000014005083c     alAELib_iAE.obj
 0003:00000878       ?__LINE__Var@?0??isDynamicScene@@YAXPEAX@Z@4JA 0000000140050878     table.obj
 0003:0000087c       ?__LINE__Var@?0??updateTarget@@YAIPEAXH@Z@4JA 000000014005087c     table.obj
 0003:00000880       ?__LINE__Var@?0??matchExpoTable@@YAIPEAX0FH@Z@4JA 0000000140050880     table.obj
 0003:00000884       ?g_log_terminal@@3HA       0000000140050884     IspSoftAeApi.obj
 0003:00000888       ?__LINE__Var@?0??GetCurrMoudle@@YA?AV?$basic_string@DU?$char_traits@D@std@@V?$allocator@D@2@@std@@XZ@4JA 0000000140050888     IspSoftAeApi.obj
 0003:0000088c       ?__LINE__Var@?0??AeInit@@YAPEAXPEAXP6AH0I0@Z0@Z@4JA 000000014005088c     IspSoftAeApi.obj
 0003:00000890       ?__LINE__Var@?0??AeLoadTuningBin@@YAHPEAX0@Z@4JA 0000000140050890     IspSoftAeApi.obj
 0003:00000894       ?__LINE__Var@?0??AeLoadDebugSetting@@YAHPEAX0@Z@4JA 0000000140050894     IspSoftAeApi.obj
 0003:00000898       ?__LINE__Var@?0??AeRun@@YAHPEAXPEAUIspSoftAeInImage@@@Z@4JA 0000000140050898     IspSoftAeApi.obj
 0003:0000089c       ?__LINE__Var@?0??_Check_memory_order@@9@4JA 000000014005089c     test.obj
 0003:000008a0       ?__LINE__Var@?0??post_message@@YAHPEAXI0@Z@4JA 00000001400508a0     test.obj
 0003:000008b0       ?_Static@?1???$_Immortalize_memcpy_image@V_Generic_error_category@std@@@std@@YAAEBV_Generic_error_category@1@XZ@4U?$_Constexpr_immortalize_impl@V_Generic_error_category@std@@@1@A 00000001400508b0     test.obj
 0003:000008c0       ?_Static@?1???$_Immortalize_memcpy_image@V_Future_error_category2@std@@@std@@YAAEBV_Future_error_category2@1@XZ@4U?$_Constexpr_immortalize_impl@V_Future_error_category2@std@@@1@A 00000001400508c0     test.obj
 0003:000008d0       __scrt_native_dllmain_reason 00000001400508d0     MSVCRTD:utility.obj
 0003:000008d8       ?_RTC_ErrorLevels@@3PAHA   00000001400508d8     MSVCRTD:error.obj
 0003:00000900       __security_cookie          0000000140050900     MSVCRTD:gs_cookie.obj
 0003:00000940       __security_cookie_complement 0000000140050940     MSVCRTD:gs_cookie.obj
 0003:00000948       _fltused                   0000000140050948     MSVCRTD:fltused.obj
 0003:0000094c       _Init_global_epoch         000000014005094c     MSVCRTD:thread_safe_statics.obj
 0003:00000950       __isa_available            0000000140050950     MSVCRTD:cpu_disp.obj
 0003:00000954       __isa_enabled              0000000140050954     MSVCRTD:cpu_disp.obj
 0003:00000958       __memset_fast_string_threshold 0000000140050958     MSVCRTD:cpu_disp.obj
 0003:00000960       __memset_nt_threshold      0000000140050960     MSVCRTD:cpu_disp.obj
 0003:00000968       __scrt_default_matherr     0000000140050968     MSVCRTD:matherr.obj
 0003:00000970       __scrt_ucrt_dll_is_in_use  0000000140050970     MSVCRTD:ucrt_stubs.obj
 0003:00000980       ??_R0?AVexception@std@@@8  0000000140050980     alAELibCore.obj
 0003:000009a8       ??_R0?AVbad_array_new_length@std@@@8 00000001400509a8     alAELibCore.obj
 0003:000009d8       ??_R0?AVbad_alloc@std@@@8  00000001400509d8     alAELibCore.obj
 0003:00000a00       ??_R0?AVbad_cast@std@@@8   0000000140050a00     IspSoftAeApi.obj
 0003:00000a28       ??_R0?AVruntime_error@std@@@8 0000000140050a28     test.obj
 0003:00000a50       ??_R0?AVsystem_error@std@@@8 0000000140050a50     test.obj
 0003:00000a78       ??_R0?AV_System_error@std@@@8 0000000140050a78     test.obj
 0003:00000aa0       ??_R0?AVtask_canceled@Concurrency@@@8 0000000140050aa0     test.obj
 0003:00000ad0       ??_R0?AVinvalid_operation@Concurrency@@@8 0000000140050ad0     test.obj
 0003:00000b10       ??_R0?AV_Interruption_exception@details@Concurrency@@@8 0000000140050b10     test.obj
 0003:00000b58       ??_R0?AVfuture_error@std@@@8 0000000140050b58     test.obj
 0003:00000b80       ??_R0?AVlogic_error@std@@@8 0000000140050b80     test.obj
 0003:00000bb0       ??_R0?AV<lambda_1>@?CC@??_CancelAndRunContinuations@?$_Task_impl@E@details@Concurrency@@UEAA_N_N00AEBV?$shared_ptr@U_ExceptionHolder@details@Concurrency@@@std@@@Z@@8 0000000140050bb0     test.obj
 0003:00000c60       ??_R0?AV<lambda_1>@?1??_MakeVoidToUnitFunc@details@Concurrency@@YA?AV?$function@$$A6AEXZ@std@@AEBV?$function@$$A6AXXZ@5@@Z@@8 0000000140050c60     test.obj
 0003:00000cf0       ??_R0?AV<lambda_1>@?4??_ScheduleContinuationTask@_Task_impl_base@details@Concurrency@@QEAAXPEAU_ContinuationTaskHandleBase@34@@Z@@8 0000000140050cf0     test.obj
 0003:00000d80       ??_R0?AV<lambda_1>@?7???R0?4??_ScheduleContinuationTask@_Task_impl_base@details@Concurrency@@QEAAXPEAU_ContinuationTaskHandleBase@34@@Z@QEBA@XZ@@8 0000000140050d80     test.obj
 0003:00000e20       ??_R0?AV?$_Fake_no_copy_callable_adapter@AEAP6AHPEAXI0@ZAEAPEAXW4IspSoftAeProcessType@@PEAUIspSoftAeInImage@@@std@@@8 0000000140050e20     test.obj
 0003:00000ea0       ??_R0?AV<lambda_1>@?1???$?0V?$_Fake_no_copy_callable_adapter@AEAP6AHPEAXI0@ZAEAPEAXW4IspSoftAeProcessType@@PEAUIspSoftAeInImage@@@std@@@?$_Task_async_state@H@std@@QEAA@$$QEAV?$_Fake_no_copy_callable_adapter@AEAP6AHPEAXI0@ZAEAPEAXW4IspSoftAeProcessType@@PEAUIspSoftAeInImage@@@2@@Z@@8 0000000140050ea0     test.obj
 0003:00000fd0       ??_R0?AV?$basic_filebuf@DU?$char_traits@D@std@@@std@@@8 0000000140050fd0     IspSoftAeApi.obj
 0003:00001020       ??_R0?AV?$basic_streambuf@DU?$char_traits@D@std@@@std@@@8 0000000140051020     IspSoftAeApi.obj
 0003:00001070       ??_R0?AV?$basic_fstream@DU?$char_traits@D@std@@@std@@@8 0000000140051070     IspSoftAeApi.obj
 0003:000010c0       ??_R0?AV?$basic_iostream@DU?$char_traits@D@std@@@std@@@8 00000001400510c0     IspSoftAeApi.obj
 0003:00001110       ??_R0?AV?$basic_istream@DU?$char_traits@D@std@@@std@@@8 0000000140051110     IspSoftAeApi.obj
 0003:00001158       ??_R0?AV?$basic_ios@DU?$char_traits@D@std@@@std@@@8 0000000140051158     IspSoftAeApi.obj
 0003:00001198       ??_R0?AVios_base@std@@@8   0000000140051198     IspSoftAeApi.obj
 0003:000011c0       ??_R0?AV?$_Iosb@H@std@@@8  00000001400511c0     IspSoftAeApi.obj
 0003:000011f0       ??_R0?AV?$basic_ostream@DU?$char_traits@D@std@@@std@@@8 00000001400511f0     IspSoftAeApi.obj
 0003:00001240       ??_R0?AV?$basic_ifstream@DU?$char_traits@D@std@@@std@@@8 0000000140051240     test.obj
 0003:00001288       ??_R0?AV_Ref_count_base@std@@@8 0000000140051288     test.obj
 0003:000012b8       ??_R0?AVerror_category@std@@@8 00000001400512b8     test.obj
 0003:000012e8       ??_R0?AV_Generic_error_category@std@@@8 00000001400512e8     test.obj
 0003:00001320       ??_R0?AUscheduler_interface@Concurrency@@@8 0000000140051320     test.obj
 0003:00001360       ??_R0?AV_DefaultPPLTaskScheduler@details@Concurrency@@@8 0000000140051360     test.obj
 0003:000013a8       ??_R0?AV_RefCounter@details@Concurrency@@@8 00000001400513a8     test.obj
 0003:000013e0       ??_R0?AV_CancellationTokenRegistration@details@Concurrency@@@8 00000001400513e0     test.obj
 0003:00001430       ??_R0?AU_TaskProcHandle@details@Concurrency@@@8 0000000140051430     test.obj
 0003:00001470       ??_R0?AV?$_Func_base@X$$V@std@@@8 0000000140051470     test.obj
 0003:000014a0       ??_R0?AU_Task_impl_base@details@Concurrency@@@8 00000001400514a0     test.obj
 0003:000014e0       ??_R0?AV?$_CancellationTokenCallback@V<lambda_1>@?1??_RegisterCancellation@_Task_impl_base@details@Concurrency@@QEAAXV?$weak_ptr@U_Task_impl_base@details@Concurrency@@@std@@@Z@@details@Concurrency@@@8 00000001400514e0     test.obj
 0003:000015b8       ??_R0?AV?$_Func_base@E$$V@std@@@8 00000001400515b8     test.obj
 0003:000015e8       ??_R0?AU?$_Task_impl@E@details@Concurrency@@@8 00000001400515e8     test.obj
 0003:00001628       ??_R0?AV_Future_error_category2@std@@@8 0000000140051628     test.obj
 0003:00001660       ??_R0?AV?$_Associated_state@H@std@@@8 0000000140051660     test.obj
 0003:00001690       ??_R0?AV?$_Ref_count_obj2@U_ExceptionHolder@details@Concurrency@@@std@@@8 0000000140051690     test.obj
 0003:000016f0       ??_R0?AV?$_Ref_count_obj2@U?$_Task_impl@E@details@Concurrency@@@std@@@8 00000001400516f0     test.obj
 0003:00001750       ??_R0?AV?$_Func_impl_no_alloc@V<lambda_1>@?7???R1?4??_ScheduleContinuationTask@_Task_impl_base@details@Concurrency@@QEAAXPEAU_ContinuationTaskHandleBase@45@@Z@QEBA@XZ@X$$V@std@@@8 0000000140051750     test.obj
 0003:00001810       ??_R0?AV?$_Func_impl_no_alloc@V<lambda_1>@?4??_ScheduleContinuationTask@_Task_impl_base@details@Concurrency@@QEAAXPEAU_ContinuationTaskHandleBase@45@@Z@X$$V@std@@@8 0000000140051810     test.obj
 0003:000018c0       ??_R0?AV?$_Func_impl_no_alloc@V<lambda_1>@?1??_MakeVoidToUnitFunc@details@Concurrency@@YA?AV?$function@$$A6AEXZ@std@@AEBV?$function@$$A6AXXZ@6@@Z@E$$V@std@@@8 00000001400518c0     test.obj
 0003:00001970       ??_R0?AV?$_Func_impl_no_alloc@V<lambda_1>@?CC@??_CancelAndRunContinuations@?$_Task_impl@E@details@Concurrency@@UEAA_N_N00AEBV?$shared_ptr@U_ExceptionHolder@details@Concurrency@@@std@@@Z@X$$V@std@@@8 0000000140051970     test.obj
 0003:00001a48       ??_R0?AV?$_Deferred_async_state@H@std@@@8 0000000140051a48     test.obj
 0003:00001a80       ??_R0?AV?$_Packaged_state@$$A6AHXZ@std@@@8 0000000140051a80     test.obj
 0003:00001ab8       ??_R0?AV?$_Func_base@H$$V@std@@@8 0000000140051ab8     test.obj
 0003:00001ae8       ??_R0?AV?$_Task_async_state@H@std@@@8 0000000140051ae8     test.obj
 0003:00001b20       ??_R0?AV?$_Func_impl_no_alloc@V?$_Fake_no_copy_callable_adapter@AEAP6AHPEAXI0@ZAEAPEAXW4IspSoftAeProcessType@@PEAUIspSoftAeInImage@@@std@@H$$V@std@@@8 0000000140051b20     test.obj
 0003:00001bd0       ??_R0?AU?$_InitialTaskHandle@XV<lambda_1>@?1???$?0V?$_Fake_no_copy_callable_adapter@AEAP6AHPEAXI0@ZAEAPEAXW4IspSoftAeProcessType@@PEAUIspSoftAeInImage@@@std@@@?$_Task_async_state@H@std@@QEAA@$$QEAV?$_Fake_no_copy_callable_adapter@AEAP6AHPEAXI0@ZAEAPEAXW4IspSoftAeProcessType@@PEAUIspSoftAeInImage@@@3@@Z@U_TypeSelectorNoAsync@details@Concurrency@@@?$task@E@Concurrency@@@8 0000000140051bd0     test.obj
 0003:00001d50       ??_R0?AU?$_PPLTaskHandle@EU?$_InitialTaskHandle@XV<lambda_1>@?1???$?0V?$_Fake_no_copy_callable_adapter@AEAP6AHPEAXI0@ZAEAPEAXW4IspSoftAeProcessType@@PEAUIspSoftAeInImage@@@std@@@?$_Task_async_state@H@std@@QEAA@$$QEAV?$_Fake_no_copy_callable_adapter@AEAP6AHPEAXI0@ZAEAPEAXW4IspSoftAeProcessType@@PEAUIspSoftAeInImage@@@3@@Z@U_TypeSelectorNoAsync@details@Concurrency@@@?$task@E@Concurrency@@U_TaskProcHandle@details@3@@details@Concurrency@@@8 0000000140051d50     test.obj
 0003:00001f20       ??_R0?AV?$_Func_impl_no_alloc@V<lambda_1>@?1???$?0V?$_Fake_no_copy_callable_adapter@AEAP6AHPEAXI0@ZAEAPEAXW4IspSoftAeProcessType@@PEAUIspSoftAeInImage@@@std@@@?$_Task_async_state@H@std@@QEAA@$$QEAV?$_Fake_no_copy_callable_adapter@AEAP6AHPEAXI0@ZAEAPEAXW4IspSoftAeProcessType@@PEAUIspSoftAeInImage@@@3@@Z@X$$V@std@@@8 0000000140051f20     test.obj
 0003:00002068       ??_R0?AVtype_info@@@8      0000000140052068     MSVCRTD:std_type_info_static.obj
 0003:00002090       ?ae_corelib_array@@3PEAUae_corelib_obj_t@@EA 0000000140052090     alAELibCore.obj
 0003:00002098       ?convBVCnt@@3HA            0000000140052098     alAELibCore.obj
 0003:0000209c       ?prevYmeanBV@@3HA          000000014005209c     alAELibCore.obj
 0003:000020a0       ?preWdrFlag@@3_NA          00000001400520a0     alAELibCore.obj
 0003:0001c3f8       ?_OptionsStorage@?1??__local_stdio_printf_options@@9@4_KA 000000014006c3f8     alAELibCore.obj
 0003:0001c8b0       ?w_emCurLogLevel@@3HA      000000014006c8b0     IspSoftAeApi.obj
 0003:0001c8b4       ?g_log_to_file@@3HA        000000014006c8b4     IspSoftAeApi.obj
 0003:0001c8b8       ?logbuffer@@3PEADEA        000000014006c8b8     IspSoftAeApi.obj
 0003:0001c910       ?_Stinit@?1??_Init@?$basic_filebuf@DU?$char_traits@D@std@@@std@@IEAAXPEAU_iobuf@@W4_Initfl@23@@Z@4U_Mbstatet@@A 000000014006c910     IspSoftAeApi.obj
 0003:0001c918       ?_Psave@?$_Facetptr@V?$codecvt@DDU_Mbstatet@@@std@@@std@@2PEBVfacet@locale@2@EB 000000014006c918     IspSoftAeApi.obj
 0003:0001c920       ?_S_scheduler@?1??_GetStaticAmbientSchedulerStorage@details@Concurrency@@YAPEAV?$shared_ptr@Uscheduler_interface@Concurrency@@@std@@XZ@4V45@A 000000014006c920     test.obj
 0003:0001c930       ?$TSS0@?1??_GetStaticAmbientSchedulerStorage@details@Concurrency@@YAPEAV?$shared_ptr@Uscheduler_interface@Concurrency@@@std@@XZ@4HA 000000014006c930     test.obj
 0003:0001c938       ?_Flag@?1??_GetStaticAmbientSchedulerRef@details@Concurrency@@YAAEAV?$shared_ptr@Uscheduler_interface@Concurrency@@@std@@XZ@4Uonce_flag@5@A 000000014006c938     test.obj
 0003:0001c940       ?_S_scheduler_address@?1??_GetStaticAmbientSchedulerRef@details@Concurrency@@YAAEAV?$shared_ptr@Uscheduler_interface@Concurrency@@@std@@XZ@4PEAV45@EA 000000014006c940     test.obj
 0003:0001c950       ?AwbInEnquene@@3V?$queue@UIspFrameData@@V?$deque@UIspFrameData@@V?$allocator@UIspFrameData@@@std@@@std@@@std@@A 000000014006c950     test.obj
 0003:0001c978       ?AwbOutEnquene@@3V?$queue@UIspFrameData@@V?$deque@UIspFrameData@@V?$allocator@UIspFrameData@@@std@@@std@@@std@@A 000000014006c978     test.obj
 0003:0001c9a0       ?AeOutEnquene@@3V?$queue@UIspFrameData@@V?$deque@UIspFrameData@@V?$allocator@UIspFrameData@@@std@@@std@@@std@@A 000000014006c9a0     test.obj
 0003:0001c9c8       ?AeInEnquene@@3V?$queue@UIspFrameData@@V?$deque@UIspFrameData@@V?$allocator@UIspFrameData@@@std@@@std@@@std@@A 000000014006c9c8     test.obj
 0003:0001c9f0       ?AtfOutEnquene@@3V?$queue@UIspFrameData@@V?$deque@UIspFrameData@@V?$allocator@UIspFrameData@@@std@@@std@@@std@@A 000000014006c9f0     test.obj
 0003:0001ca18       ?AtfInEnquene@@3V?$queue@UIspFrameData@@V?$deque@UIspFrameData@@V?$allocator@UIspFrameData@@@std@@@std@@@std@@A 000000014006ca18     test.obj
 0003:007bdc60       __scrt_current_native_startup_state 000000014080dc60     MSVCRTD:utility.obj
 0003:007bdc68       __scrt_native_startup_lock 000000014080dc68     MSVCRTD:utility.obj
 0003:007be230       _tls_index                 000000014080e230     MSVCRTD:tlssup.obj
 0003:007be238       __castguard_check_failure_user_handled_fptr 000000014080e238     MSVCRTD:guard_support.obj
 0003:007be240       __favor                    000000014080e240     MSVCRTD:cpu_disp.obj
 0003:007be244       __scrt_debugger_hook_flag  000000014080e244     MSVCRTD:utility_desktop.obj
 0003:007be270       ?__type_info_root_node@@3U__type_info_node@@A 000000014080e270     MSVCRTD:tncleanup.obj
 0003:007be280       ?_OptionsStorage@?1??__local_stdio_scanf_options@@9@4_KA 000000014080e280     MSVCRTD:default_local_stdio_options.obj
 0003:007be288       __dyn_tls_dtor_callback    000000014080e288     <common>
 0003:007be290       __dyn_tls_init_callback    000000014080e290     <common>
 0003:007be298       __DebuggerCurrentSteppingThreadId 000000014080e298     <common>

 entry point at        0001:00036750

 Static symbols

 0002:fffc4000       $cppxdata$??$_Construct@$00PEBD@?$basic_string@DU?$char_traits@D@std@@V?$allocator@D@2@@std@@AEAAXQEBD_K@Z 0000000140000000     IspSoftAeApi.obj
 0002:fffc4000       $cppxdata$??$_Deallocate@$0BA@$0A@@std@@YAXPEAX_K@Z 0000000140000000     IspSoftAeApi.obj
 0002:fffc4000       $cppxdata$??$_Deallocate_plain@V?$allocator@U_Container_proxy@std@@@std@@@std@@YAXAEAV?$allocator@U_Container_proxy@std@@@0@QEAU_Container_proxy@0@@Z 0000000140000000     IspSoftAeApi.obj
 0002:fffc4000       $cppxdata$??0?$basic_string@DU?$char_traits@D@std@@V?$allocator@D@2@@std@@QEAA@$$QEAV01@@Z 0000000140000000     IspSoftAeApi.obj
 0002:fffc4000       $cppxdata$??0?$basic_string@DU?$char_traits@D@std@@V?$allocator@D@2@@std@@QEAA@QEBD@Z 0000000140000000     IspSoftAeApi.obj
 0002:fffc4000       $cppxdata$?_Deallocate_for_capacity@?$basic_string@DU?$char_traits@D@std@@V?$allocator@D@2@@std@@CAXAEAV?$allocator@D@2@QEAD_K@Z 0000000140000000     IspSoftAeApi.obj
 0002:fffc4000       $ip2state$??$_Construct@$00PEBD@?$basic_string@DU?$char_traits@D@std@@V?$allocator@D@2@@std@@AEAAXQEBD_K@Z 0000000140000000     IspSoftAeApi.obj
 0002:fffc4000       $ip2state$??$_Deallocate@$0BA@$0A@@std@@YAXPEAX_K@Z 0000000140000000     IspSoftAeApi.obj
 0002:fffc4000       $ip2state$??$_Deallocate_plain@V?$allocator@U_Container_proxy@std@@@std@@@std@@YAXAEAV?$allocator@U_Container_proxy@std@@@0@QEAU_Container_proxy@0@@Z 0000000140000000     IspSoftAeApi.obj
 0002:fffc4000       $ip2state$??0?$basic_string@DU?$char_traits@D@std@@V?$allocator@D@2@@std@@QEAA@$$QEAV01@@Z 0000000140000000     IspSoftAeApi.obj
 0002:fffc4000       $ip2state$??0?$basic_string@DU?$char_traits@D@std@@V?$allocator@D@2@@std@@QEAA@QEBD@Z 0000000140000000     IspSoftAeApi.obj
 0002:fffc4000       $ip2state$?_Deallocate_for_capacity@?$basic_string@DU?$char_traits@D@std@@V?$allocator@D@2@@std@@CAXAEAV?$allocator@D@2@QEAD_K@Z 0000000140000000     IspSoftAeApi.obj
 0002:fffc4000       $stateUnwindMap$??$_Construct@$00PEBD@?$basic_string@DU?$char_traits@D@std@@V?$allocator@D@2@@std@@AEAAXQEBD_K@Z 0000000140000000     IspSoftAeApi.obj
 0002:fffc4000       $stateUnwindMap$??0?$basic_string@DU?$char_traits@D@std@@V?$allocator@D@2@@std@@QEAA@QEBD@Z 0000000140000000     IspSoftAeApi.obj
 0002:fffc4000       $unwind$??$?0$$V@?$_Compressed_pair@V?$allocator@D@std@@V?$_String_val@U?$_Simple_types@D@std@@@2@$00@std@@QEAA@U_Zero_then_variadic_args_t@1@@Z 0000000140000000     IspSoftAeApi.obj
 0002:fffc4000       $unwind$??$?0D@?$allocator@U_Container_proxy@std@@@std@@QEAA@AEBV?$allocator@D@1@@Z 0000000140000000     IspSoftAeApi.obj
 0002:fffc4000       $unwind$??$?0V?$allocator@D@std@@$$V@?$_Compressed_pair@V?$allocator@D@std@@V?$_String_val@U?$_Simple_types@D@std@@@2@$00@std@@QEAA@U_One_then_variadic_args_t@1@$$QEAV?$allocator@D@1@@Z 0000000140000000     IspSoftAeApi.obj
 0002:fffc4000       $unwind$??$_Alloc_proxy@V?$allocator@U_Container_proxy@std@@@std@@@_Container_base12@std@@QEAAX$$QEAV?$allocator@U_Container_proxy@std@@@1@@Z 0000000140000000     IspSoftAeApi.obj
 0002:fffc4000       $unwind$??$_Allocate@$0BA@U_Default_allocate_traits@std@@$0A@@std@@YAPEAX_K@Z 0000000140000000     IspSoftAeApi.obj
 0002:fffc4000       $unwind$??$_Allocate_at_least_helper@V?$allocator@D@std@@@std@@YAPEADAEAV?$allocator@D@0@AEA_K@Z 0000000140000000     IspSoftAeApi.obj
 0002:fffc4000       $unwind$??$_Allocate_for_capacity@$0A@@?$basic_string@DU?$char_traits@D@std@@V?$allocator@D@2@@std@@CAPEADAEAV?$allocator@D@1@AEA_K@Z 0000000140000000     IspSoftAeApi.obj
 0002:fffc4000       $unwind$??$_Allocate_manually_vector_aligned@U_Default_allocate_traits@std@@@std@@YAPEAX_K@Z 0000000140000000     IspSoftAeApi.obj
 0002:fffc4000       $unwind$??$_Construct@$00PEBD@?$basic_string@DU?$char_traits@D@std@@V?$allocator@D@2@@std@@AEAAXQEBD_K@Z 0000000140000000     IspSoftAeApi.obj
 0002:fffc4000       $unwind$??$_Construct_in_place@PEADAEAPEAD@std@@YAXAEAPEAD0@Z 0000000140000000     IspSoftAeApi.obj
 0002:fffc4000       $unwind$??$_Construct_in_place@PEADAEBQEAD@std@@YAXAEAPEADAEBQEAD@Z 0000000140000000     IspSoftAeApi.obj
 0002:fffc4000       $unwind$??$_Construct_in_place@U_Container_proxy@std@@PEAU_Container_base12@2@@std@@YAXAEAU_Container_proxy@0@$$QEAPEAU_Container_base12@0@@Z 0000000140000000     IspSoftAeApi.obj
 0002:fffc4000       $unwind$??$_Convert_size@_K_K@std@@YA_K_K@Z 0000000140000000     IspSoftAeApi.obj
 0002:fffc4000       $unwind$??$_Deallocate@$0BA@$0A@@std@@YAXPEAX_K@Z 0000000140000000     IspSoftAeApi.obj
 0002:fffc4000       $unwind$??$_Deallocate_plain@V?$allocator@U_Container_proxy@std@@@std@@@std@@YAXAEAV?$allocator@U_Container_proxy@std@@@0@QEAU_Container_proxy@0@@Z 0000000140000000     IspSoftAeApi.obj
 0002:fffc4000       $unwind$??$_Delete_plain_internal@V?$allocator@U_Container_proxy@std@@@std@@@std@@YAXAEAV?$allocator@U_Container_proxy@std@@@0@QEAU_Container_proxy@0@@Z 0000000140000000     IspSoftAeApi.obj
 0002:fffc4000       $unwind$??$_Destroy_in_place@PEAD@std@@YAXAEAPEAD@Z 0000000140000000     IspSoftAeApi.obj
 0002:fffc4000       $unwind$??$_Get_size_of_n@$00@std@@YA_K_K@Z 0000000140000000     IspSoftAeApi.obj
 0002:fffc4000       $unwind$??$_Get_size_of_n@$0BA@@std@@YA_K_K@Z 0000000140000000     IspSoftAeApi.obj
 0002:fffc4000       $unwind$??$_Unfancy@D@std@@YAPEADPEAD@Z 0000000140000000     IspSoftAeApi.obj
 0002:fffc4000       $unwind$??$_Unfancy@U_Container_proxy@std@@@std@@YAPEAU_Container_proxy@0@PEAU10@@Z 0000000140000000     IspSoftAeApi.obj
 0002:fffc4000       $unwind$??$addressof@PEAD@std@@YAPEAPEADAEAPEAD@Z 0000000140000000     IspSoftAeApi.obj
 0002:fffc4000       $unwind$??$addressof@U_Container_base12@std@@@std@@YAPEAU_Container_base12@0@AEAU10@@Z 0000000140000000     IspSoftAeApi.obj
 0002:fffc4000       $unwind$??$addressof@U_Container_proxy@std@@@std@@YAPEAU_Container_proxy@0@AEAU10@@Z 0000000140000000     IspSoftAeApi.obj
 0002:fffc4000       $unwind$??$addressof@V?$_String_val@U?$_Simple_types@D@std@@@std@@@std@@YAPEAV?$_String_val@U?$_Simple_types@D@std@@@0@AEAV10@@Z 0000000140000000     IspSoftAeApi.obj
 0002:fffc4000       $unwind$??$exchange@PEAU_Iterator_base12@std@@$$T@std@@YAPEAU_Iterator_base12@0@AEAPEAU10@$$QEA$$T@Z 0000000140000000     IspSoftAeApi.obj
 0002:fffc4000       $unwind$??$max@_K@std@@YAAEB_KAEB_K0@Z 0000000140000000     IspSoftAeApi.obj
 0002:fffc4000       $unwind$??$min@_K@std@@YAAEB_KAEB_K0@Z 0000000140000000     IspSoftAeApi.obj
 0002:fffc4000       $unwind$??0?$_Container_proxy_ptr12@V?$allocator@U_Container_proxy@std@@@std@@@std@@QEAA@AEAV?$allocator@U_Container_proxy@std@@@1@AEAU_Container_base12@1@@Z 0000000140000000     IspSoftAeApi.obj
 0002:fffc4000       $unwind$??0?$_String_val@U?$_Simple_types@D@std@@@std@@QEAA@XZ 0000000140000000     IspSoftAeApi.obj
 0002:fffc4000       $unwind$??0?$allocator@D@std@@QEAA@XZ 0000000140000000     IspSoftAeApi.obj
 0002:fffc4000       $unwind$??0?$basic_string@DU?$char_traits@D@std@@V?$allocator@D@2@@std@@QEAA@$$QEAV01@@Z 0000000140000000     IspSoftAeApi.obj
 0002:fffc4000       $unwind$??0?$basic_string@DU?$char_traits@D@std@@V?$allocator@D@2@@std@@QEAA@QEBD@Z 0000000140000000     IspSoftAeApi.obj
 0002:fffc4000       $unwind$??0_Basic_container_proxy_ptr12@std@@IEAA@XZ 0000000140000000     IspSoftAeApi.obj
 0002:fffc4000       $unwind$??0_Bxty@?$_String_val@U?$_Simple_types@D@std@@@std@@QEAA@XZ 0000000140000000     IspSoftAeApi.obj
 0002:fffc4000       $unwind$??0_Container_base12@std@@QEAA@XZ 0000000140000000     IspSoftAeApi.obj
 0002:fffc4000       $unwind$??0_Container_proxy@std@@QEAA@PEAU_Container_base12@1@@Z 0000000140000000     IspSoftAeApi.obj
 0002:fffc4000       $unwind$??0bad_alloc@std@@AEAA@QEBD@Z 0000000140000000     IspSoftAeApi.obj
 0002:fffc4000       $unwind$??0bad_alloc@std@@QEAA@AEBV01@@Z 0000000140000000     IspSoftAeApi.obj
 0002:fffc4000       $unwind$??0bad_array_new_length@std@@QEAA@AEBV01@@Z 0000000140000000     IspSoftAeApi.obj
 0002:fffc4000       $unwind$??0bad_array_new_length@std@@QEAA@XZ 0000000140000000     IspSoftAeApi.obj
 0002:fffc4000       $unwind$??0exception@std@@QEAA@AEBV01@@Z 0000000140000000     IspSoftAeApi.obj
 0002:fffc4000       $unwind$??0exception@std@@QEAA@QEBDH@Z 0000000140000000     IspSoftAeApi.obj
 0002:fffc4000       $unwind$??1?$_Compressed_pair@V?$allocator@D@std@@V?$_String_val@U?$_Simple_types@D@std@@@2@$00@std@@QEAA@XZ 0000000140000000     IspSoftAeApi.obj
 0002:fffc4000       $unwind$??1?$_Container_proxy_ptr12@V?$allocator@U_Container_proxy@std@@@std@@@std@@QEAA@XZ 0000000140000000     IspSoftAeApi.obj
 0002:fffc4000       $unwind$??1?$_String_val@U?$_Simple_types@D@std@@@std@@QEAA@XZ 0000000140000000     IspSoftAeApi.obj
 0002:fffc4000       $unwind$??1?$basic_string@DU?$char_traits@D@std@@V?$allocator@D@2@@std@@QEAA@XZ 0000000140000000     IspSoftAeApi.obj
 0002:fffc4000       $unwind$??1_Bxty@?$_String_val@U?$_Simple_types@D@std@@@std@@QEAA@XZ 0000000140000000     IspSoftAeApi.obj
 0002:fffc4000       $unwind$??1bad_alloc@std@@UEAA@XZ 0000000140000000     IspSoftAeApi.obj
 0002:fffc4000       $unwind$??1bad_array_new_length@std@@UEAA@XZ 0000000140000000     IspSoftAeApi.obj
 0002:fffc4000       $unwind$??1exception@std@@UEAA@XZ 0000000140000000     IspSoftAeApi.obj
 0002:fffc4000       $unwind$??2@YAPEAX_KPEAX@Z 0000000140000000     IspSoftAeApi.obj
 0002:fffc4000       $unwind$??_Gbad_alloc@std@@UEAAPEAXI@Z 0000000140000000     IspSoftAeApi.obj
 0002:fffc4000       $unwind$??_Gbad_array_new_length@std@@UEAAPEAXI@Z 0000000140000000     IspSoftAeApi.obj
 0002:fffc4000       $unwind$??_Gexception@std@@UEAAPEAXI@Z 0000000140000000     IspSoftAeApi.obj
 0002:fffc4000       $unwind$?_Activate_SSO_buffer@?$_String_val@U?$_Simple_types@D@std@@@std@@QEAAXXZ 0000000140000000     IspSoftAeApi.obj
 0002:fffc4000       $unwind$?_Adjust_manually_vector_aligned@std@@YAXAEAPEAXAEA_K@Z 0000000140000000     IspSoftAeApi.obj
 0002:fffc4000       $unwind$?_Allocate@_Default_allocate_traits@std@@SAPEAX_K@Z 0000000140000000     IspSoftAeApi.obj
 0002:fffc4000       $unwind$?_Calculate_growth@?$basic_string@DU?$char_traits@D@std@@V?$allocator@D@2@@std@@CA_K_K00@Z 0000000140000000     IspSoftAeApi.obj
 0002:fffc4000       $unwind$?_Deallocate_for_capacity@?$basic_string@DU?$char_traits@D@std@@V?$allocator@D@2@@std@@CAXAEAV?$allocator@D@2@QEAD_K@Z 0000000140000000     IspSoftAeApi.obj
 0002:fffc4000       $unwind$?_Get_first@?$_Compressed_pair@V?$allocator@D@std@@V?$_String_val@U?$_Simple_types@D@std@@@2@$00@std@@QEAAAEAV?$allocator@D@2@XZ 0000000140000000     IspSoftAeApi.obj
 0002:fffc4000       $unwind$?_Get_first@?$_Compressed_pair@V?$allocator@D@std@@V?$_String_val@U?$_Simple_types@D@std@@@2@$00@std@@QEBAAEBV?$allocator@D@2@XZ 0000000140000000     IspSoftAeApi.obj
 0002:fffc4000       $unwind$?_Getal@?$basic_string@DU?$char_traits@D@std@@V?$allocator@D@2@@std@@AEAAAEAV?$allocator@D@2@XZ 0000000140000000     IspSoftAeApi.obj
 0002:fffc4000       $unwind$?_Getal@?$basic_string@DU?$char_traits@D@std@@V?$allocator@D@2@@std@@AEBAAEBV?$allocator@D@2@XZ 0000000140000000     IspSoftAeApi.obj
 0002:fffc4000       $unwind$?_Large_mode_engaged@?$_String_val@U?$_Simple_types@D@std@@@std@@QEBA_NXZ 0000000140000000     IspSoftAeApi.obj
 0002:fffc4000       $unwind$?_Orphan_all@_Container_base12@std@@QEAAXXZ 0000000140000000     IspSoftAeApi.obj
 0002:fffc4000       $unwind$?_Orphan_all_locked_v3@_Container_base12@std@@AEAAXXZ 0000000140000000     IspSoftAeApi.obj
 0002:fffc4000       $unwind$?_Orphan_all_unlocked_v3@_Container_base12@std@@AEAAXXZ 0000000140000000     IspSoftAeApi.obj
 0002:fffc4000       $unwind$?_Release@_Basic_container_proxy_ptr12@std@@QEAAXXZ 0000000140000000     IspSoftAeApi.obj
 0002:fffc4000       $unwind$?_Swap_proxy_and_iterators@?$basic_string@DU?$char_traits@D@std@@V?$allocator@D@2@@std@@AEAAXAEAV12@@Z 0000000140000000     IspSoftAeApi.obj
 0002:fffc4000       $unwind$?_Swap_proxy_and_iterators@_Container_base12@std@@QEAAXAEAU12@@Z 0000000140000000     IspSoftAeApi.obj
 0002:fffc4000       $unwind$?_Swap_proxy_and_iterators_locked@_Container_base12@std@@AEAAXAEAU12@@Z 0000000140000000     IspSoftAeApi.obj
 0002:fffc4000       $unwind$?_Swap_proxy_and_iterators_unlocked@_Container_base12@std@@AEAAXAEAU12@@Z 0000000140000000     IspSoftAeApi.obj
 0002:fffc4000       $unwind$?_Switch_to_buf@_Bxty@?$_String_val@U?$_Simple_types@D@std@@@std@@QEAAXXZ 0000000140000000     IspSoftAeApi.obj
 0002:fffc4000       $unwind$?_Take_contents@?$basic_string@DU?$char_traits@D@std@@V?$allocator@D@2@@std@@AEAAXAEAV12@@Z 0000000140000000     IspSoftAeApi.obj
 0002:fffc4000       $unwind$?_Throw_bad_array_new_length@std@@YAXXZ 0000000140000000     IspSoftAeApi.obj
 0002:fffc4000       $unwind$?_Tidy_deallocate@?$basic_string@DU?$char_traits@D@std@@V?$allocator@D@2@@std@@AEAAXXZ 0000000140000000     IspSoftAeApi.obj
 0002:fffc4000       $unwind$?_Xlen_string@std@@YAXXZ 0000000140000000     IspSoftAeApi.obj
 0002:fffc4000       $unwind$?__empty_global_delete@@YAXPEAX@Z 0000000140000000     IspSoftAeApi.obj
 0002:fffc4000       $unwind$?__empty_global_delete@@YAXPEAX_K@Z 0000000140000000     IspSoftAeApi.obj
 0002:fffc4000       $unwind$?allocate@?$allocator@D@std@@QEAAPEAD_K@Z 0000000140000000     IspSoftAeApi.obj
 0002:fffc4000       $unwind$?allocate@?$allocator@U_Container_proxy@std@@@std@@QEAAPEAU_Container_proxy@2@_K@Z 0000000140000000     IspSoftAeApi.obj
 0002:fffc4000       $unwind$?assign@?$_Narrow_char_traits@DH@std@@SAXAEADAEBD@Z 0000000140000000     IspSoftAeApi.obj
 0002:fffc4000       $unwind$?copy@?$_Char_traits@DH@std@@SAPEADQEADQEBD_K@Z 0000000140000000     IspSoftAeApi.obj
 0002:fffc4000       $unwind$?deallocate@?$_Default_allocator_traits@V?$allocator@U_Container_proxy@std@@@std@@@std@@SAXAEAV?$allocator@U_Container_proxy@std@@@2@QEAU_Container_proxy@2@_K@Z 0000000140000000     IspSoftAeApi.obj
 0002:fffc4000       $unwind$?deallocate@?$allocator@D@std@@QEAAXQEAD_K@Z 0000000140000000     IspSoftAeApi.obj
 0002:fffc4000       $unwind$?dtor$0@?0???$_Construct@$00PEBD@?$basic_string@DU?$char_traits@D@std@@V?$allocator@D@2@@std@@AEAAXQEBD_K@Z@4HA 0000000140000000     IspSoftAeApi.obj
 0002:fffc4000       $unwind$?dtor$0@?0???0?$basic_string@DU?$char_traits@D@std@@V?$allocator@D@2@@std@@QEAA@QEBD@Z@4HA 0000000140000000     IspSoftAeApi.obj
 0002:fffc4000       $unwind$?length@?$_Narrow_char_traits@DH@std@@SA_KQEBD@Z 0000000140000000     IspSoftAeApi.obj
 0002:fffc4000       $unwind$?max@?$numeric_limits@_J@std@@SA_JXZ 0000000140000000     IspSoftAeApi.obj
 0002:fffc4000       $unwind$?max_size@?$_Default_allocator_traits@V?$allocator@D@std@@@std@@SA_KAEBV?$allocator@D@2@@Z 0000000140000000     IspSoftAeApi.obj
 0002:fffc4000       $unwind$?max_size@?$basic_string@DU?$char_traits@D@std@@V?$allocator@D@2@@std@@QEBA_KXZ 0000000140000000     IspSoftAeApi.obj
 0002:fffc4000       $unwind$?what@exception@std@@UEBAPEBDXZ 0000000140000000     IspSoftAeApi.obj
 0002:fffc4000       $unwind$__local_stdio_printf_options 0000000140000000     IspSoftAeApi.obj
 0002:fffc4000       $unwind$_vfprintf_l        0000000140000000     IspSoftAeApi.obj
 0002:fffc4000       $unwind$_vsnprintf_l       0000000140000000     IspSoftAeApi.obj
 0002:fffc4000       $unwind$_vsprintf_l        0000000140000000     IspSoftAeApi.obj
 0002:fffc4000       $unwind$fprintf            0000000140000000     IspSoftAeApi.obj
 0002:fffc4000       $unwind$printf             0000000140000000     IspSoftAeApi.obj
 0002:fffc4000       $unwind$sprintf            0000000140000000     IspSoftAeApi.obj
 0002:fffc4000       $unwind$vsprintf           0000000140000000     IspSoftAeApi.obj
 0002:fffc4000       ??$_Construct@$00PEBD@?$basic_string@DU?$char_traits@D@std@@V?$allocator@D@2@@std@@AEAAXQEBD_K@Z$rtcName$0 0000000140000000     IspSoftAeApi.obj
 0002:fffc4000       ??1?$basic_string@DU?$char_traits@D@std@@V?$allocator@D@2@@std@@QEAA@XZ$rtcName$0 0000000140000000     IspSoftAeApi.obj
 0002:fffc4000       ?_Calculate_growth@?$basic_string@DU?$char_traits@D@std@@V?$allocator@D@2@@std@@CA_K_K00@Z$rtcName$0 0000000140000000     IspSoftAeApi.obj
 0002:fffc4000       ?_Orphan_all_locked_v3@_Container_base12@std@@AEAAXXZ$rtcName$0 0000000140000000     IspSoftAeApi.obj
 0002:fffc4000       ?_Swap_proxy_and_iterators_locked@_Container_base12@std@@AEAAXAEAU12@@Z$rtcName$0 0000000140000000     IspSoftAeApi.obj
 0001:fffff000       ?dtor$0@?0???$_Construct@$00PEBD@?$basic_string@DU?$char_traits@D@std@@V?$allocator@D@2@@std@@AEAAXQEBD_K@Z@4HA 0000000140000000 f   IspSoftAeApi.obj
 0001:fffff000       ?dtor$0@?0???0?$basic_string@DU?$char_traits@D@std@@V?$allocator@D@2@@std@@QEAA@QEBD@Z@4HA 0000000140000000 f   IspSoftAeApi.obj
 0002:fffc4000       ?max_size@?$basic_string@DU?$char_traits@D@std@@V?$allocator@D@2@@std@@QEBA_KXZ$rtcName$0 0000000140000000     IspSoftAeApi.obj
 0000:00000000       _volmd                     0000000140000000     IspSoftAeApi.obj
 0000:00000000       _volmd                     0000000140000000     IspSoftAeApi.obj
 0000:00000000       _volmd                     0000000140000000     IspSoftAeApi.obj
 0000:00000000       _volmd                     0000000140000000     IspSoftAeApi.obj
 0000:00000000       _volmd                     0000000140000000     IspSoftAeApi.obj
 0000:00000000       _volmd                     0000000140000000     IspSoftAeApi.obj
 0000:00000000       _volmd                     0000000140000000     IspSoftAeApi.obj
 0000:00000000       _volmd                     0000000140000000     IspSoftAeApi.obj
 0000:00000000       _volmd                     0000000140000000     IspSoftAeApi.obj
 0000:00000000       _volmd                     0000000140000000     IspSoftAeApi.obj
 0000:00000000       _volmd                     0000000140000000     IspSoftAeApi.obj
 0000:00000000       _volmd                     0000000140000000     IspSoftAeApi.obj
 0000:00000000       _volmd                     0000000140000000     IspSoftAeApi.obj
 0000:00000000       _volmd                     0000000140000000     IspSoftAeApi.obj
 0000:00000000       _volmd                     0000000140000000     IspSoftAeApi.obj
 0000:00000000       _volmd                     0000000140000000     IspSoftAeApi.obj
 0000:00000000       _volmd                     0000000140000000     IspSoftAeApi.obj
 0000:00000000       _volmd                     0000000140000000     IspSoftAeApi.obj
 0000:00000000       _volmd                     0000000140000000     IspSoftAeApi.obj
 0000:00000000       _volmd                     0000000140000000     IspSoftAeApi.obj
 0000:00000000       _volmd                     0000000140000000     IspSoftAeApi.obj
 0000:00000000       _volmd                     0000000140000000     IspSoftAeApi.obj
 0000:00000000       _volmd                     0000000140000000     IspSoftAeApi.obj
 0000:00000000       _volmd                     0000000140000000     IspSoftAeApi.obj
 0000:00000000       _volmd                     0000000140000000     IspSoftAeApi.obj
 0000:00000000       _volmd                     0000000140000000     IspSoftAeApi.obj
 0000:00000000       _volmd                     0000000140000000     IspSoftAeApi.obj
 0000:00000000       _volmd                     0000000140000000     IspSoftAeApi.obj
 0000:00000000       _volmd                     0000000140000000     IspSoftAeApi.obj
 0000:00000000       _volmd                     0000000140000000     IspSoftAeApi.obj
 0000:00000000       _volmd                     0000000140000000     IspSoftAeApi.obj
 0000:00000000       _volmd                     0000000140000000     IspSoftAeApi.obj
 0000:00000000       _volmd                     0000000140000000     IspSoftAeApi.obj
 0000:00000000       _volmd                     0000000140000000     IspSoftAeApi.obj
 0000:00000000       _volmd                     0000000140000000     IspSoftAeApi.obj
 0000:00000000       _volmd                     0000000140000000     IspSoftAeApi.obj
 0000:00000000       _volmd                     0000000140000000     IspSoftAeApi.obj
 0000:00000000       _volmd                     0000000140000000     IspSoftAeApi.obj
 0000:00000000       _volmd                     0000000140000000     IspSoftAeApi.obj
 0000:00000000       _volmd                     0000000140000000     IspSoftAeApi.obj
 0000:00000000       _volmd                     0000000140000000     IspSoftAeApi.obj
 0000:00000000       _volmd                     0000000140000000     IspSoftAeApi.obj
 0000:00000000       _volmd                     0000000140000000     IspSoftAeApi.obj
 0000:00000000       _volmd                     0000000140000000     IspSoftAeApi.obj
 0000:00000000       _volmd                     0000000140000000     IspSoftAeApi.obj
 0000:00000000       _volmd                     0000000140000000     IspSoftAeApi.obj
 0000:00000000       _volmd                     0000000140000000     IspSoftAeApi.obj
 0002:fffc4000       fprintf$rtcName$0          0000000140000000     IspSoftAeApi.obj
 0002:fffc4000       printf$rtcName$0           0000000140000000     IspSoftAeApi.obj
 0002:fffc4000       sprintf$rtcName$0          0000000140000000     IspSoftAeApi.obj
 0000:00000000       _volmd                     0000000140000000     alAELibCore.obj
 0000:00000000       _volmd                     0000000140000000     alAELibCore.obj
 0000:00000000       _volmd                     0000000140000000     alAELibCore.obj
 0000:00000000       _volmd                     0000000140000000     alAELibCore.obj
 0000:00000000       _volmd                     0000000140000000     alAELibCore.obj
 0000:00000000       _volmd                     0000000140000000     alAELibCore.obj
 0000:00000000       _volmd                     0000000140000000     alAELibCore.obj
 0000:00000000       _volmd                     0000000140000000     alAELibCore.obj
 0000:00000000       _volmd                     0000000140000000     alAELibCore.obj
 0000:00000000       _volmd                     0000000140000000     alAELibCore.obj
 0000:00000000       _volmd                     0000000140000000     alAELibCore.obj
 0000:00000000       _volmd                     0000000140000000     alAELibCore.obj
 0000:00000000       _volmd                     0000000140000000     alAELibCore.obj
 0000:00000000       _volmd                     0000000140000000     alAELibCore.obj
 0000:00000000       _volmd                     0000000140000000     alAELibCore.obj
 0000:00000000       _volmd                     0000000140000000     alAELibCore.obj
 0000:00000000       _volmd                     0000000140000000     alAELibCore.obj
 0000:00000000       _volmd                     0000000140000000     alAELibCore.obj
 0000:00000000       _volmd                     0000000140000000     alAELibCore.obj
 0000:00000000       _volmd                     0000000140000000     alAELibCore.obj
 0000:00000000       _volmd                     0000000140000000     alAELibCore.obj
 0000:00000000       _volmd                     0000000140000000     alAELibCore.obj
 0000:00000000       _volmd                     0000000140000000     alAELibCore.obj
 0000:00000000       _volmd                     0000000140000000     alAELibCore.obj
 0000:00000000       _volmd                     0000000140000000     alAELibCore.obj
 0000:00000000       _volmd                     0000000140000000     alAELibCore.obj
 0000:00000000       _volmd                     0000000140000000     alAELibCore.obj
 0002:fffc4000       $unwind$__local_stdio_printf_options 0000000140000000     alAELib_iAE.obj
 0002:fffc4000       $unwind$_vfprintf_l        0000000140000000     alAELib_iAE.obj
 0002:fffc4000       $unwind$_vsnprintf_l       0000000140000000     alAELib_iAE.obj
 0002:fffc4000       $unwind$_vsprintf_l        0000000140000000     alAELib_iAE.obj
 0002:fffc4000       $unwind$fprintf            0000000140000000     alAELib_iAE.obj
 0002:fffc4000       $unwind$sprintf            0000000140000000     alAELib_iAE.obj
 0002:fffc4000       $unwind$vsprintf           0000000140000000     alAELib_iAE.obj
 0000:00000000       _volmd                     0000000140000000     alAELib_iAE.obj
 0000:00000000       _volmd                     0000000140000000     alAELib_iAE.obj
 0000:00000000       _volmd                     0000000140000000     alAELib_iAE.obj
 0000:00000000       _volmd                     0000000140000000     alAELib_iAE.obj
 0002:fffc4000       fprintf$rtcName$0          0000000140000000     alAELib_iAE.obj
 0002:fffc4000       sprintf$rtcName$0          0000000140000000     alAELib_iAE.obj
 0002:fffc4000       $unwind$__local_stdio_printf_options 0000000140000000     table.obj
 0002:fffc4000       $unwind$_vfprintf_l        0000000140000000     table.obj
 0002:fffc4000       $unwind$_vsnprintf_l       0000000140000000     table.obj
 0002:fffc4000       $unwind$_vsprintf_l        0000000140000000     table.obj
 0002:fffc4000       $unwind$fprintf            0000000140000000     table.obj
 0002:fffc4000       $unwind$sprintf            0000000140000000     table.obj
 0002:fffc4000       $unwind$vsprintf           0000000140000000     table.obj
 0000:00000000       _volmd                     0000000140000000     table.obj
 0000:00000000       _volmd                     0000000140000000     table.obj
 0000:00000000       _volmd                     0000000140000000     table.obj
 0000:00000000       _volmd                     0000000140000000     table.obj
 0002:fffc4000       fprintf$rtcName$0          0000000140000000     table.obj
 0002:fffc4000       sprintf$rtcName$0          0000000140000000     table.obj
 0002:fffc4000       $cppxdata$??$_Construct@$00PEBD@?$basic_string@DU?$char_traits@D@std@@V?$allocator@D@2@@std@@AEAAXQEBD_K@Z 0000000140000000     test.obj
 0002:fffc4000       $cppxdata$??$_Deallocate@$0BA@$0A@@std@@YAXPEAX_K@Z 0000000140000000     test.obj
 0002:fffc4000       $cppxdata$??$_Deallocate_plain@V?$allocator@U_Container_proxy@std@@@std@@@std@@YAXAEAV?$allocator@U_Container_proxy@std@@@0@QEAU_Container_proxy@0@@Z 0000000140000000     test.obj
 0002:fffc4000       $cppxdata$??$use_facet@V?$codecvt@DDU_Mbstatet@@@std@@@std@@YAAEBV?$codecvt@DDU_Mbstatet@@@0@AEBVlocale@0@@Z 0000000140000000     test.obj
 0002:fffc4000       $cppxdata$??0?$basic_string@DU?$char_traits@D@std@@V?$allocator@D@2@@std@@QEAA@QEBD@Z 0000000140000000     test.obj
 0002:fffc4000       $cppxdata$??0?$basic_string@DU?$char_traits@D@std@@V?$allocator@D@2@@std@@QEAA@XZ 0000000140000000     test.obj
 0002:fffc4000       $cppxdata$??1?$basic_filebuf@DU?$char_traits@D@std@@@std@@UEAA@XZ 0000000140000000     test.obj
 0002:fffc4000       $cppxdata$?_Deallocate_for_capacity@?$basic_string@DU?$char_traits@D@std@@V?$allocator@D@2@@std@@CAXAEAV?$allocator@D@2@QEAD_K@Z 0000000140000000     test.obj
 0002:fffc4000       $cppxdata$?open@?$basic_filebuf@DU?$char_traits@D@std@@@std@@QEAAPEAV12@PEBDHH@Z 0000000140000000     test.obj
 0002:fffc4000       $cppxdata$?uflow@?$basic_filebuf@DU?$char_traits@D@std@@@std@@MEAAHXZ 0000000140000000     test.obj
 0002:fffc4000       $ip2state$??$_Construct@$00PEBD@?$basic_string@DU?$char_traits@D@std@@V?$allocator@D@2@@std@@AEAAXQEBD_K@Z 0000000140000000     test.obj
 0002:fffc4000       $ip2state$??$_Deallocate@$0BA@$0A@@std@@YAXPEAX_K@Z 0000000140000000     test.obj
 0002:fffc4000       $ip2state$??$_Deallocate_plain@V?$allocator@U_Container_proxy@std@@@std@@@std@@YAXAEAV?$allocator@U_Container_proxy@std@@@0@QEAU_Container_proxy@0@@Z 0000000140000000     test.obj
 0002:fffc4000       $ip2state$??$use_facet@V?$codecvt@DDU_Mbstatet@@@std@@@std@@YAAEBV?$codecvt@DDU_Mbstatet@@@0@AEBVlocale@0@@Z 0000000140000000     test.obj
 0002:fffc4000       $ip2state$??0?$basic_string@DU?$char_traits@D@std@@V?$allocator@D@2@@std@@QEAA@QEBD@Z 0000000140000000     test.obj
 0002:fffc4000       $ip2state$??0?$basic_string@DU?$char_traits@D@std@@V?$allocator@D@2@@std@@QEAA@XZ 0000000140000000     test.obj
 0002:fffc4000       $ip2state$??1?$basic_filebuf@DU?$char_traits@D@std@@@std@@UEAA@XZ 0000000140000000     test.obj
 0002:fffc4000       $ip2state$?_Deallocate_for_capacity@?$basic_string@DU?$char_traits@D@std@@V?$allocator@D@2@@std@@CAXAEAV?$allocator@D@2@QEAD_K@Z 0000000140000000     test.obj
 0002:fffc4000       $ip2state$?open@?$basic_filebuf@DU?$char_traits@D@std@@@std@@QEAAPEAV12@PEBDHH@Z 0000000140000000     test.obj
 0002:fffc4000       $ip2state$?uflow@?$basic_filebuf@DU?$char_traits@D@std@@@std@@MEAAHXZ 0000000140000000     test.obj
 0002:fffc4000       $stateUnwindMap$??$_Construct@$00PEBD@?$basic_string@DU?$char_traits@D@std@@V?$allocator@D@2@@std@@AEAAXQEBD_K@Z 0000000140000000     test.obj
 0002:fffc4000       $stateUnwindMap$??$use_facet@V?$codecvt@DDU_Mbstatet@@@std@@@std@@YAAEBV?$codecvt@DDU_Mbstatet@@@0@AEBVlocale@0@@Z 0000000140000000     test.obj
 0002:fffc4000       $stateUnwindMap$??0?$basic_string@DU?$char_traits@D@std@@V?$allocator@D@2@@std@@QEAA@QEBD@Z 0000000140000000     test.obj
 0002:fffc4000       $stateUnwindMap$?open@?$basic_filebuf@DU?$char_traits@D@std@@@std@@QEAAPEAV12@PEBDHH@Z 0000000140000000     test.obj
 0002:fffc4000       $stateUnwindMap$?uflow@?$basic_filebuf@DU?$char_traits@D@std@@@std@@MEAAHXZ 0000000140000000     test.obj
 0002:fffc4000       $unwind$??$?0$$V@?$_Compressed_pair@V?$allocator@D@std@@V?$_String_val@U?$_Simple_types@D@std@@@2@$00@std@@QEAA@U_Zero_then_variadic_args_t@1@@Z 0000000140000000     test.obj
 0002:fffc4000       $unwind$??$?0AEAPEAV_Facet_base@std@@@?$_Compressed_pair@U?$default_delete@V_Facet_base@std@@@std@@PEAV_Facet_base@2@$00@std@@QEAA@U_Zero_then_variadic_args_t@1@AEAPEAV_Facet_base@1@@Z 0000000140000000     test.obj
 0002:fffc4000       $unwind$??$?0D@?$allocator@U_Container_proxy@std@@@std@@QEAA@AEBV?$allocator@D@1@@Z 0000000140000000     test.obj
 0002:fffc4000       $unwind$??$?0U?$default_delete@V_Facet_base@std@@@std@@$0A@@?$unique_ptr@V_Facet_base@std@@U?$default_delete@V_Facet_base@std@@@2@@std@@QEAA@PEAV_Facet_base@1@@Z 0000000140000000     test.obj
 0002:fffc4000       $unwind$??$_Alloc_proxy@V?$allocator@U_Container_proxy@std@@@std@@@_Container_base12@std@@QEAAX$$QEAV?$allocator@U_Container_proxy@std@@@1@@Z 0000000140000000     test.obj
 0002:fffc4000       $unwind$??$_Allocate@$0BA@U_Default_allocate_traits@std@@$0A@@std@@YAPEAX_K@Z 0000000140000000     test.obj
 0002:fffc4000       $unwind$??$_Allocate_at_least_helper@V?$allocator@D@std@@@std@@YAPEADAEAV?$allocator@D@0@AEA_K@Z 0000000140000000     test.obj
 0002:fffc4000       $unwind$??$_Allocate_for_capacity@$0A@@?$basic_string@DU?$char_traits@D@std@@V?$allocator@D@2@@std@@CAPEADAEAV?$allocator@D@1@AEA_K@Z 0000000140000000     test.obj
 0002:fffc4000       $unwind$??$_Allocate_manually_vector_aligned@U_Default_allocate_traits@std@@@std@@YAPEAX_K@Z 0000000140000000     test.obj
 0002:fffc4000       $unwind$??$_Construct@$00PEBD@?$basic_string@DU?$char_traits@D@std@@V?$allocator@D@2@@std@@AEAAXQEBD_K@Z 0000000140000000     test.obj
 0002:fffc4000       $unwind$??$_Construct_in_place@PEADAEBQEAD@std@@YAXAEAPEADAEBQEAD@Z 0000000140000000     test.obj
 0002:fffc4000       $unwind$??$_Construct_in_place@U_Container_proxy@std@@PEAU_Container_base12@2@@std@@YAXAEAU_Container_proxy@0@$$QEAPEAU_Container_base12@0@@Z 0000000140000000     test.obj
 0002:fffc4000       $unwind$??$_Convert_size@_K_K@std@@YA_K_K@Z 0000000140000000     test.obj
 0002:fffc4000       $unwind$??$_Deallocate@$0BA@$0A@@std@@YAXPEAX_K@Z 0000000140000000     test.obj
 0002:fffc4000       $unwind$??$_Deallocate_plain@V?$allocator@U_Container_proxy@std@@@std@@@std@@YAXAEAV?$allocator@U_Container_proxy@std@@@0@QEAU_Container_proxy@0@@Z 0000000140000000     test.obj
 0002:fffc4000       $unwind$??$_Delete_plain_internal@V?$allocator@U_Container_proxy@std@@@std@@@std@@YAXAEAV?$allocator@U_Container_proxy@std@@@0@QEAU_Container_proxy@0@@Z 0000000140000000     test.obj
 0002:fffc4000       $unwind$??$_Destroy_in_place@PEAD@std@@YAXAEAPEAD@Z 0000000140000000     test.obj
 0002:fffc4000       $unwind$??$_Fgetc@D@std@@YA_NAEADPEAU_iobuf@@@Z 0000000140000000     test.obj
 0002:fffc4000       $unwind$??$_Fputc@D@std@@YA_NDPEAU_iobuf@@@Z 0000000140000000     test.obj
 0002:fffc4000       $unwind$??$_Get_size_of_n@$00@std@@YA_K_K@Z 0000000140000000     test.obj
 0002:fffc4000       $unwind$??$_Get_size_of_n@$07@std@@YA_K_K@Z 0000000140000000     test.obj
 0002:fffc4000       $unwind$??$_Get_size_of_n@$0BA@@std@@YA_K_K@Z 0000000140000000     test.obj
 0002:fffc4000       $unwind$??$_Reallocate_grow_by@V<lambda_1>@?1??push_back@?$basic_string@DU?$char_traits@D@std@@V?$allocator@D@2@@std@@QEAAXD@Z@D@?$basic_string@DU?$char_traits@D@std@@V?$allocator@D@2@@std@@AEAAAEAV01@_KV<lambda_1>@?1??push_back@01@QEAAXD@Z@D@Z 0000000140000000     test.obj
 0002:fffc4000       $unwind$??$_Unfancy@D@std@@YAPEADPEAD@Z 0000000140000000     test.obj
 0002:fffc4000       $unwind$??$_Unfancy@U_Container_proxy@std@@@std@@YAPEAU_Container_proxy@0@PEAU10@@Z 0000000140000000     test.obj
 0002:fffc4000       $unwind$??$_Ungetc@D@std@@YA_NAEBDPEAU_iobuf@@@Z 0000000140000000     test.obj
 0002:fffc4000       $unwind$??$addressof@$$CBV?$codecvt@DDU_Mbstatet@@@std@@@std@@YAPEBV?$codecvt@DDU_Mbstatet@@@0@AEBV10@@Z 0000000140000000     test.obj
 0002:fffc4000       $unwind$??$addressof@PEAD@std@@YAPEAPEADAEAPEAD@Z 0000000140000000     test.obj
 0002:fffc4000       $unwind$??$addressof@U_Container_base12@std@@@std@@YAPEAU_Container_base12@0@AEAU10@@Z 0000000140000000     test.obj
 0002:fffc4000       $unwind$??$addressof@U_Container_proxy@std@@@std@@YAPEAU_Container_proxy@0@AEAU10@@Z 0000000140000000     test.obj
 0002:fffc4000       $unwind$??$addressof@V?$basic_filebuf@DU?$char_traits@D@std@@@std@@@std@@YAPEAV?$basic_filebuf@DU?$char_traits@D@std@@@0@AEAV10@@Z 0000000140000000     test.obj
 0002:fffc4000       $unwind$??$exchange@PEAU_Container_proxy@std@@$$T@std@@YAPEAU_Container_proxy@0@AEAPEAU10@$$QEA$$T@Z 0000000140000000     test.obj
 0002:fffc4000       $unwind$??$exchange@PEAU_Iterator_base12@std@@$$T@std@@YAPEAU_Iterator_base12@0@AEAPEAU10@$$QEA$$T@Z 0000000140000000     test.obj
 0002:fffc4000       $unwind$??$exchange@PEAV_Facet_base@std@@$$T@std@@YAPEAV_Facet_base@0@AEAPEAV10@$$QEA$$T@Z 0000000140000000     test.obj
 0002:fffc4000       $unwind$??$max@_K@std@@YAAEB_KAEB_K0@Z 0000000140000000     test.obj
 0002:fffc4000       $unwind$??$min@_K@std@@YAAEB_KAEB_K0@Z 0000000140000000     test.obj
 0002:fffc4000       $unwind$??$use_facet@V?$codecvt@DDU_Mbstatet@@@std@@@std@@YAAEBV?$codecvt@DDU_Mbstatet@@@0@AEBVlocale@0@@Z 0000000140000000     test.obj
 0002:fffc4000       $unwind$??0?$_Container_proxy_ptr12@V?$allocator@U_Container_proxy@std@@@std@@@std@@QEAA@AEAV?$allocator@U_Container_proxy@std@@@1@AEAU_Container_base12@1@@Z 0000000140000000     test.obj
 0002:fffc4000       $unwind$??0?$_String_val@U?$_Simple_types@D@std@@@std@@QEAA@XZ 0000000140000000     test.obj
 0002:fffc4000       $unwind$??0?$allocator@D@std@@QEAA@XZ 0000000140000000     test.obj
 0002:fffc4000       $unwind$??0?$basic_filebuf@DU?$char_traits@D@std@@@std@@QEAA@XZ 0000000140000000     test.obj
 0002:fffc4000       $unwind$??0?$basic_string@DU?$char_traits@D@std@@V?$allocator@D@2@@std@@QEAA@QEBD@Z 0000000140000000     test.obj
 0002:fffc4000       $unwind$??0?$basic_string@DU?$char_traits@D@std@@V?$allocator@D@2@@std@@QEAA@XZ 0000000140000000     test.obj
 0002:fffc4000       $unwind$??0?$fpos@U_Mbstatet@@@std@@QEAA@U_Mbstatet@@_J@Z 0000000140000000     test.obj
 0002:fffc4000       $unwind$??0?$fpos@U_Mbstatet@@@std@@QEAA@_J@Z 0000000140000000     test.obj
 0002:fffc4000       $unwind$??0_Basic_container_proxy_ptr12@std@@IEAA@XZ 0000000140000000     test.obj
 0002:fffc4000       $unwind$??0_Bxty@?$_String_val@U?$_Simple_types@D@std@@@std@@QEAA@XZ 0000000140000000     test.obj
 0002:fffc4000       $unwind$??0_Container_base12@std@@QEAA@XZ 0000000140000000     test.obj
 0002:fffc4000       $unwind$??0_Container_proxy@std@@QEAA@PEAU_Container_base12@1@@Z 0000000140000000     test.obj
 0002:fffc4000       $unwind$??0bad_alloc@std@@AEAA@QEBD@Z 0000000140000000     test.obj
 0002:fffc4000       $unwind$??0bad_alloc@std@@QEAA@AEBV01@@Z 0000000140000000     test.obj
 0002:fffc4000       $unwind$??0bad_array_new_length@std@@QEAA@AEBV01@@Z 0000000140000000     test.obj
 0002:fffc4000       $unwind$??0bad_array_new_length@std@@QEAA@XZ 0000000140000000     test.obj
 0002:fffc4000       $unwind$??0bad_cast@std@@QEAA@AEBV01@@Z 0000000140000000     test.obj
 0002:fffc4000       $unwind$??0bad_cast@std@@QEAA@XZ 0000000140000000     test.obj
 0002:fffc4000       $unwind$??0exception@std@@QEAA@AEBV01@@Z 0000000140000000     test.obj
 0002:fffc4000       $unwind$??0exception@std@@QEAA@QEBDH@Z 0000000140000000     test.obj
 0002:fffc4000       $unwind$??1?$_Compressed_pair@V?$allocator@D@std@@V?$_String_val@U?$_Simple_types@D@std@@@2@$00@std@@QEAA@XZ 0000000140000000     test.obj
 0002:fffc4000       $unwind$??1?$_Container_proxy_ptr12@V?$allocator@U_Container_proxy@std@@@std@@@std@@QEAA@XZ 0000000140000000     test.obj
 0002:fffc4000       $unwind$??1?$_String_val@U?$_Simple_types@D@std@@@std@@QEAA@XZ 0000000140000000     test.obj
 0002:fffc4000       $unwind$??1?$basic_filebuf@DU?$char_traits@D@std@@@std@@UEAA@XZ 0000000140000000     test.obj
 0002:fffc4000       $unwind$??1?$basic_string@DU?$char_traits@D@std@@V?$allocator@D@2@@std@@QEAA@XZ 0000000140000000     test.obj
 0002:fffc4000       $unwind$??1?$unique_ptr@V_Facet_base@std@@U?$default_delete@V_Facet_base@std@@@2@@std@@QEAA@XZ 0000000140000000     test.obj
 0002:fffc4000       $unwind$??1_Bxty@?$_String_val@U?$_Simple_types@D@std@@@std@@QEAA@XZ 0000000140000000     test.obj
 0002:fffc4000       $unwind$??1bad_alloc@std@@UEAA@XZ 0000000140000000     test.obj
 0002:fffc4000       $unwind$??1bad_array_new_length@std@@UEAA@XZ 0000000140000000     test.obj
 0002:fffc4000       $unwind$??1bad_cast@std@@UEAA@XZ 0000000140000000     test.obj
 0002:fffc4000       $unwind$??1exception@std@@UEAA@XZ 0000000140000000     test.obj
 0002:fffc4000       $unwind$??1locale@std@@QEAA@XZ 0000000140000000     test.obj
 0002:fffc4000       $unwind$??2@YAPEAX_KPEAX@Z 0000000140000000     test.obj
 0002:fffc4000       $unwind$??B?$fpos@U_Mbstatet@@@std@@QEBA_JXZ 0000000140000000     test.obj
 0002:fffc4000       $unwind$??R<lambda_1>@?1??push_back@?$basic_string@DU?$char_traits@D@std@@V?$allocator@D@2@@std@@QEAAXD@Z@QEBA@QEADQEBD_KD@Z 0000000140000000     test.obj
 0002:fffc4000       $unwind$??R?$default_delete@V_Facet_base@std@@@std@@QEBAXPEAV_Facet_base@1@@Z 0000000140000000     test.obj
 0002:fffc4000       $unwind$??_G?$basic_filebuf@DU?$char_traits@D@std@@@std@@UEAAPEAXI@Z 0000000140000000     test.obj
 0002:fffc4000       $unwind$??_Gbad_alloc@std@@UEAAPEAXI@Z 0000000140000000     test.obj
 0002:fffc4000       $unwind$??_Gbad_array_new_length@std@@UEAAPEAXI@Z 0000000140000000     test.obj
 0002:fffc4000       $unwind$??_Gbad_cast@std@@UEAAPEAXI@Z 0000000140000000     test.obj
 0002:fffc4000       $unwind$??_Gexception@std@@UEAAPEAXI@Z 0000000140000000     test.obj
 0002:fffc4000       $unwind$?_Activate_SSO_buffer@?$_String_val@U?$_Simple_types@D@std@@@std@@QEAAXXZ 0000000140000000     test.obj
 0002:fffc4000       $unwind$?_Adjust_manually_vector_aligned@std@@YAXAEAPEAXAEA_K@Z 0000000140000000     test.obj
 0002:fffc4000       $unwind$?_Allocate@_Default_allocate_traits@std@@SAPEAX_K@Z 0000000140000000     test.obj
 0002:fffc4000       $unwind$?_Calculate_growth@?$basic_string@DU?$char_traits@D@std@@V?$allocator@D@2@@std@@AEBA_K_K@Z 0000000140000000     test.obj
 0002:fffc4000       $unwind$?_Calculate_growth@?$basic_string@DU?$char_traits@D@std@@V?$allocator@D@2@@std@@CA_K_K00@Z 0000000140000000     test.obj
 0002:fffc4000       $unwind$?_Check_offset@?$_String_val@U?$_Simple_types@D@std@@@std@@QEBAX_K@Z 0000000140000000     test.obj
 0002:fffc4000       $unwind$?_Clamp_suffix_size@?$_String_val@U?$_Simple_types@D@std@@@std@@QEBA_K_K0@Z 0000000140000000     test.obj
 0002:fffc4000       $unwind$?_Construct_empty@?$basic_string@DU?$char_traits@D@std@@V?$allocator@D@2@@std@@AEAAXXZ 0000000140000000     test.obj
 0002:fffc4000       $unwind$?_Deallocate_for_capacity@?$basic_string@DU?$char_traits@D@std@@V?$allocator@D@2@@std@@CAXAEAV?$allocator@D@2@QEAD_K@Z 0000000140000000     test.obj
 0002:fffc4000       $unwind$?_Endwrite@?$basic_filebuf@DU?$char_traits@D@std@@@std@@IEAA_NXZ 0000000140000000     test.obj
 0002:fffc4000       $unwind$?_Erase_noexcept@?$basic_string@DU?$char_traits@D@std@@V?$allocator@D@2@@std@@AEAAAEAV12@_K_K@Z 0000000140000000     test.obj
 0002:fffc4000       $unwind$?_Get_first@?$_Compressed_pair@U?$default_delete@V_Facet_base@std@@@std@@PEAV_Facet_base@2@$00@std@@QEAAAEAU?$default_delete@V_Facet_base@std@@@2@XZ 0000000140000000     test.obj
 0002:fffc4000       $unwind$?_Get_first@?$_Compressed_pair@V?$allocator@D@std@@V?$_String_val@U?$_Simple_types@D@std@@@2@$00@std@@QEAAAEAV?$allocator@D@2@XZ 0000000140000000     test.obj
 0002:fffc4000       $unwind$?_Get_first@?$_Compressed_pair@V?$allocator@D@std@@V?$_String_val@U?$_Simple_types@D@std@@@2@$00@std@@QEBAAEBV?$allocator@D@2@XZ 0000000140000000     test.obj
 0002:fffc4000       $unwind$?_Getal@?$basic_string@DU?$char_traits@D@std@@V?$allocator@D@2@@std@@AEAAAEAV?$allocator@D@2@XZ 0000000140000000     test.obj
 0002:fffc4000       $unwind$?_Getal@?$basic_string@DU?$char_traits@D@std@@V?$allocator@D@2@@std@@AEBAAEBV?$allocator@D@2@XZ 0000000140000000     test.obj
 0002:fffc4000       $unwind$?_Getfacet@locale@std@@QEBAPEBVfacet@12@_K@Z 0000000140000000     test.obj
 0002:fffc4000       $unwind$?_Init@?$basic_filebuf@DU?$char_traits@D@std@@@std@@IEAAXPEAU_iobuf@@W4_Initfl@12@@Z 0000000140000000     test.obj
 0002:fffc4000       $unwind$?_Initcvt@?$basic_filebuf@DU?$char_traits@D@std@@@std@@IEAAXAEBV?$codecvt@DDU_Mbstatet@@@2@@Z 0000000140000000     test.obj
 0002:fffc4000       $unwind$?_Large_mode_engaged@?$_String_val@U?$_Simple_types@D@std@@@std@@QEBA_NXZ 0000000140000000     test.obj
 0002:fffc4000       $unwind$?_Lock@?$basic_filebuf@DU?$char_traits@D@std@@@std@@UEAAXXZ 0000000140000000     test.obj
 0002:fffc4000       $unwind$?_Myptr@?$_String_val@U?$_Simple_types@D@std@@@std@@QEAAPEADXZ 0000000140000000     test.obj
 0002:fffc4000       $unwind$?_Myptr@?$_String_val@U?$_Simple_types@D@std@@@std@@QEBAPEBDXZ 0000000140000000     test.obj
 0002:fffc4000       $unwind$?_Orphan_all@_Container_base12@std@@QEAAXXZ 0000000140000000     test.obj
 0002:fffc4000       $unwind$?_Orphan_all_locked_v3@_Container_base12@std@@AEAAXXZ 0000000140000000     test.obj
 0002:fffc4000       $unwind$?_Orphan_all_unlocked_v3@_Container_base12@std@@AEAAXXZ 0000000140000000     test.obj
 0002:fffc4000       $unwind$?_Release@_Basic_container_proxy_ptr12@std@@QEAAXXZ 0000000140000000     test.obj
 0002:fffc4000       $unwind$?_Reset_back@?$basic_filebuf@DU?$char_traits@D@std@@@std@@AEAAXXZ 0000000140000000     test.obj
 0002:fffc4000       $unwind$?_Set_back@?$basic_filebuf@DU?$char_traits@D@std@@@std@@AEAAXXZ 0000000140000000     test.obj
 0002:fffc4000       $unwind$?_Switch_to_buf@_Bxty@?$_String_val@U?$_Simple_types@D@std@@@std@@QEAAXXZ 0000000140000000     test.obj
 0002:fffc4000       $unwind$?_Throw_bad_array_new_length@std@@YAXXZ 0000000140000000     test.obj
 0002:fffc4000       $unwind$?_Throw_bad_cast@std@@YAXXZ 0000000140000000     test.obj
 0002:fffc4000       $unwind$?_Tidy_deallocate@?$basic_string@DU?$char_traits@D@std@@V?$allocator@D@2@@std@@AEAAXXZ 0000000140000000     test.obj
 0002:fffc4000       $unwind$?_Unlock@?$basic_filebuf@DU?$char_traits@D@std@@@std@@UEAAXXZ 0000000140000000     test.obj
 0002:fffc4000       $unwind$?_Xlen_string@std@@YAXXZ 0000000140000000     test.obj
 0002:fffc4000       $unwind$?_Xran@?$_String_val@U?$_Simple_types@D@std@@@std@@SAXXZ 0000000140000000     test.obj
 0002:fffc4000       $unwind$?__autoclassinit2@?$unique_ptr@V_Facet_base@std@@U?$default_delete@V_Facet_base@std@@@2@@std@@QEAAX_K@Z 0000000140000000     test.obj
 0002:fffc4000       $unwind$?__empty_global_delete@@YAXPEAX@Z 0000000140000000     test.obj
 0002:fffc4000       $unwind$?__empty_global_delete@@YAXPEAX_K@Z 0000000140000000     test.obj
 0002:fffc4000       $unwind$?allocate@?$allocator@D@std@@QEAAPEAD_K@Z 0000000140000000     test.obj
 0002:fffc4000       $unwind$?allocate@?$allocator@U_Container_proxy@std@@@std@@QEAAPEAU_Container_proxy@2@_K@Z 0000000140000000     test.obj
 0002:fffc4000       $unwind$?assign@?$_Narrow_char_traits@DH@std@@SAXAEADAEBD@Z 0000000140000000     test.obj
 0002:fffc4000       $unwind$?c_str@?$basic_string@DU?$char_traits@D@std@@V?$allocator@D@2@@std@@QEBAPEBDXZ 0000000140000000     test.obj
 0002:fffc4000       $unwind$?close@?$basic_filebuf@DU?$char_traits@D@std@@@std@@QEAAPEAV12@XZ 0000000140000000     test.obj
 0002:fffc4000       $unwind$?copy@?$_Char_traits@DH@std@@SAPEADQEADQEBD_K@Z 0000000140000000     test.obj
 0002:fffc4000       $unwind$?data@?$basic_string@DU?$char_traits@D@std@@V?$allocator@D@2@@std@@QEBAPEBDXZ 0000000140000000     test.obj
 0002:fffc4000       $unwind$?deallocate@?$_Default_allocator_traits@V?$allocator@U_Container_proxy@std@@@std@@@std@@SAXAEAV?$allocator@U_Container_proxy@std@@@2@QEAU_Container_proxy@2@_K@Z 0000000140000000     test.obj
 0002:fffc4000       $unwind$?deallocate@?$allocator@D@std@@QEAAXQEAD_K@Z 0000000140000000     test.obj
 0002:fffc4000       $unwind$?dtor$0@?0???$_Construct@$00PEBD@?$basic_string@DU?$char_traits@D@std@@V?$allocator@D@2@@std@@AEAAXQEBD_K@Z@4HA 0000000140000000     test.obj
 0002:fffc4000       $unwind$?dtor$0@?0???$use_facet@V?$codecvt@DDU_Mbstatet@@@std@@@std@@YAAEBV?$codecvt@DDU_Mbstatet@@@0@AEBVlocale@0@@Z@4HA 0000000140000000     test.obj
 0002:fffc4000       $unwind$?dtor$0@?0???0?$basic_string@DU?$char_traits@D@std@@V?$allocator@D@2@@std@@QEAA@QEBD@Z@4HA 0000000140000000     test.obj
 0002:fffc4000       $unwind$?dtor$0@?0??open@?$basic_filebuf@DU?$char_traits@D@std@@@std@@QEAAPEAV12@PEBDHH@Z@4HA 0000000140000000     test.obj
 0002:fffc4000       $unwind$?dtor$0@?0??uflow@?$basic_filebuf@DU?$char_traits@D@std@@@std@@MEAAHXZ@4HA 0000000140000000     test.obj
 0002:fffc4000       $unwind$?dtor$1@?0???$use_facet@V?$codecvt@DDU_Mbstatet@@@std@@@std@@YAAEBV?$codecvt@DDU_Mbstatet@@@0@AEBVlocale@0@@Z@4HA 0000000140000000     test.obj
 0002:fffc4000       $unwind$?eof@?$_Narrow_char_traits@DH@std@@SAHXZ 0000000140000000     test.obj
 0002:fffc4000       $unwind$?eq_int_type@?$_Narrow_char_traits@DH@std@@SA_NHH@Z 0000000140000000     test.obj
 0002:fffc4000       $unwind$?erase@?$basic_string@DU?$char_traits@D@std@@V?$allocator@D@2@@std@@QEAAAEAV12@_K0@Z 0000000140000000     test.obj
 0002:fffc4000       $unwind$?front@?$basic_string@DU?$char_traits@D@std@@V?$allocator@D@2@@std@@QEAAAEADXZ 0000000140000000     test.obj
 0002:fffc4000       $unwind$?imbue@?$basic_filebuf@DU?$char_traits@D@std@@@std@@MEAAXAEBVlocale@2@@Z 0000000140000000     test.obj
 0002:fffc4000       $unwind$?length@?$_Narrow_char_traits@DH@std@@SA_KQEBD@Z 0000000140000000     test.obj
 0002:fffc4000       $unwind$?max@?$numeric_limits@_J@std@@SA_JXZ 0000000140000000     test.obj
 0002:fffc4000       $unwind$?max_size@?$_Default_allocator_traits@V?$allocator@D@std@@@std@@SA_KAEBV?$allocator@D@2@@Z 0000000140000000     test.obj
 0002:fffc4000       $unwind$?max_size@?$basic_string@DU?$char_traits@D@std@@V?$allocator@D@2@@std@@QEBA_KXZ 0000000140000000     test.obj
 0002:fffc4000       $unwind$?move@?$_Char_traits@DH@std@@SAPEADQEADQEBD_K@Z 0000000140000000     test.obj
 0002:fffc4000       $unwind$?not_eof@?$_Narrow_char_traits@DH@std@@SAHH@Z 0000000140000000     test.obj
 0002:fffc4000       $unwind$?open@?$basic_filebuf@DU?$char_traits@D@std@@@std@@QEAAPEAV12@PEBDHH@Z 0000000140000000     test.obj
 0002:fffc4000       $unwind$?overflow@?$basic_filebuf@DU?$char_traits@D@std@@@std@@MEAAHH@Z 0000000140000000     test.obj
 0002:fffc4000       $unwind$?pbackfail@?$basic_filebuf@DU?$char_traits@D@std@@@std@@MEAAHH@Z 0000000140000000     test.obj
 0002:fffc4000       $unwind$?push_back@?$basic_string@DU?$char_traits@D@std@@V?$allocator@D@2@@std@@QEAAXD@Z 0000000140000000     test.obj
 0002:fffc4000       $unwind$?release@?$unique_ptr@V_Facet_base@std@@U?$default_delete@V_Facet_base@std@@@2@@std@@QEAAPEAV_Facet_base@2@XZ 0000000140000000     test.obj
 0002:fffc4000       $unwind$?seekoff@?$basic_filebuf@DU?$char_traits@D@std@@@std@@MEAA?AV?$fpos@U_Mbstatet@@@2@_JHH@Z 0000000140000000     test.obj
 0002:fffc4000       $unwind$?seekpos@?$basic_filebuf@DU?$char_traits@D@std@@@std@@MEAA?AV?$fpos@U_Mbstatet@@@2@V32@H@Z 0000000140000000     test.obj
 0002:fffc4000       $unwind$?setbuf@?$basic_filebuf@DU?$char_traits@D@std@@@std@@MEAAPEAV?$basic_streambuf@DU?$char_traits@D@std@@@2@PEAD_J@Z 0000000140000000     test.obj
 0002:fffc4000       $unwind$?size@?$basic_string@DU?$char_traits@D@std@@V?$allocator@D@2@@std@@QEBA_KXZ 0000000140000000     test.obj
 0002:fffc4000       $unwind$?state@?$fpos@U_Mbstatet@@@std@@QEBA?AU_Mbstatet@@XZ 0000000140000000     test.obj
 0002:fffc4000       $unwind$?sync@?$basic_filebuf@DU?$char_traits@D@std@@@std@@MEAAHXZ 0000000140000000     test.obj
 0002:fffc4000       $unwind$?to_char_type@?$_Narrow_char_traits@DH@std@@SADH@Z 0000000140000000     test.obj
 0002:fffc4000       $unwind$?to_int_type@?$_Narrow_char_traits@DH@std@@SAHD@Z 0000000140000000     test.obj
 0002:fffc4000       $unwind$?uflow@?$basic_filebuf@DU?$char_traits@D@std@@@std@@MEAAHXZ 0000000140000000     test.obj
 0002:fffc4000       $unwind$?underflow@?$basic_filebuf@DU?$char_traits@D@std@@@std@@MEAAHXZ 0000000140000000     test.obj
 0002:fffc4000       $unwind$?what@exception@std@@UEBAPEBDXZ 0000000140000000     test.obj
 0002:fffc4000       $unwind$?xsgetn@?$basic_filebuf@DU?$char_traits@D@std@@@std@@MEAA_JPEAD_J@Z 0000000140000000     test.obj
 0002:fffc4000       $unwind$?xsputn@?$basic_filebuf@DU?$char_traits@D@std@@@std@@MEAA_JPEBD_J@Z 0000000140000000     test.obj
 0002:fffc4000       $unwind$__local_stdio_printf_options 0000000140000000     test.obj
 0002:fffc4000       $unwind$_vfprintf_l        0000000140000000     test.obj
 0002:fffc4000       $unwind$printf             0000000140000000     test.obj
 0002:fffc4000       ??$_Construct@$00PEBD@?$basic_string@DU?$char_traits@D@std@@V?$allocator@D@2@@std@@AEAAXQEBD_K@Z$rtcName$0 0000000140000000     test.obj
 0002:fffc4000       ??$_Reallocate_grow_by@V<lambda_1>@?1??push_back@?$basic_string@DU?$char_traits@D@std@@V?$allocator@D@2@@std@@QEAAXD@Z@D@?$basic_string@DU?$char_traits@D@std@@V?$allocator@D@2@@std@@AEAAAEAV01@_KV<lambda_1>@?1??push_back@01@QEAAXD@Z@D@Z$rtcName$0 0000000140000000     test.obj
 0002:fffc4000       ??$use_facet@V?$codecvt@DDU_Mbstatet@@@std@@@std@@YAAEBV?$codecvt@DDU_Mbstatet@@@0@AEBVlocale@0@@Z$rtcName$0 0000000140000000     test.obj
 0002:fffc4000       ??1?$basic_string@DU?$char_traits@D@std@@V?$allocator@D@2@@std@@QEAA@XZ$rtcName$0 0000000140000000     test.obj
 0002:fffc4000       ?_Calculate_growth@?$basic_string@DU?$char_traits@D@std@@V?$allocator@D@2@@std@@CA_K_K00@Z$rtcName$0 0000000140000000     test.obj
 0002:fffc4000       ?_Endwrite@?$basic_filebuf@DU?$char_traits@D@std@@@std@@IEAA_NXZ$rtcName$0 0000000140000000     test.obj
 0002:fffc4000       ?_Init@?$basic_filebuf@DU?$char_traits@D@std@@@std@@IEAAXPEAU_iobuf@@W4_Initfl@12@@Z$rtcName$0 0000000140000000     test.obj
 0002:fffc4000       ?_Orphan_all_locked_v3@_Container_base12@std@@AEAAXXZ$rtcName$0 0000000140000000     test.obj
 0001:fffff000       ?dtor$0@?0???$_Construct@$00PEBD@?$basic_string@DU?$char_traits@D@std@@V?$allocator@D@2@@std@@AEAAXQEBD_K@Z@4HA 0000000140000000 f   test.obj
 0001:fffff000       ?dtor$0@?0???$use_facet@V?$codecvt@DDU_Mbstatet@@@std@@@std@@YAAEBV?$codecvt@DDU_Mbstatet@@@0@AEBVlocale@0@@Z@4HA 0000000140000000 f   test.obj
 0001:fffff000       ?dtor$0@?0???0?$basic_string@DU?$char_traits@D@std@@V?$allocator@D@2@@std@@QEAA@QEBD@Z@4HA 0000000140000000 f   test.obj
 0001:fffff000       ?dtor$0@?0??open@?$basic_filebuf@DU?$char_traits@D@std@@@std@@QEAAPEAV12@PEBDHH@Z@4HA 0000000140000000 f   test.obj
 0001:fffff000       ?dtor$0@?0??uflow@?$basic_filebuf@DU?$char_traits@D@std@@@std@@MEAAHXZ@4HA 0000000140000000 f   test.obj
 0001:fffff000       ?dtor$1@?0???$use_facet@V?$codecvt@DDU_Mbstatet@@@std@@@std@@YAAEBV?$codecvt@DDU_Mbstatet@@@0@AEBVlocale@0@@Z@4HA 0000000140000000 f   test.obj
 0002:fffc4000       ?max_size@?$basic_string@DU?$char_traits@D@std@@V?$allocator@D@2@@std@@QEBA_KXZ$rtcName$0 0000000140000000     test.obj
 0002:fffc4000       ?overflow@?$basic_filebuf@DU?$char_traits@D@std@@@std@@MEAAHH@Z$rtcName$0 0000000140000000     test.obj
 0002:fffc4000       ?seekoff@?$basic_filebuf@DU?$char_traits@D@std@@@std@@MEAA?AV?$fpos@U_Mbstatet@@@2@_JHH@Z$rtcName$0 0000000140000000     test.obj
 0002:fffc4000       ?seekpos@?$basic_filebuf@DU?$char_traits@D@std@@@std@@MEAA?AV?$fpos@U_Mbstatet@@@2@V32@H@Z$rtcName$0 0000000140000000     test.obj
 0002:fffc4000       ?uflow@?$basic_filebuf@DU?$char_traits@D@std@@@std@@MEAAHXZ$rtcName$0 0000000140000000     test.obj
 0002:fffc4000       ?xsgetn@?$basic_filebuf@DU?$char_traits@D@std@@@std@@MEAA_JPEAD_J@Z$rtcName$0 0000000140000000     test.obj
 0000:00000000       _volmd                     0000000140000000     test.obj
 0000:00000000       _volmd                     0000000140000000     test.obj
 0000:00000000       _volmd                     0000000140000000     test.obj
 0000:00000000       _volmd                     0000000140000000     test.obj
 0000:00000000       _volmd                     0000000140000000     test.obj
 0000:00000000       _volmd                     0000000140000000     test.obj
 0000:00000000       _volmd                     0000000140000000     test.obj
 0000:00000000       _volmd                     0000000140000000     test.obj
 0000:00000000       _volmd                     0000000140000000     test.obj
 0000:00000000       _volmd                     0000000140000000     test.obj
 0000:00000000       _volmd                     0000000140000000     test.obj
 0000:00000000       _volmd                     0000000140000000     test.obj
 0000:00000000       _volmd                     0000000140000000     test.obj
 0000:00000000       _volmd                     0000000140000000     test.obj
 0000:00000000       _volmd                     0000000140000000     test.obj
 0000:00000000       _volmd                     0000000140000000     test.obj
 0000:00000000       _volmd                     0000000140000000     test.obj
 0000:00000000       _volmd                     0000000140000000     test.obj
 0000:00000000       _volmd                     0000000140000000     test.obj
 0000:00000000       _volmd                     0000000140000000     test.obj
 0000:00000000       _volmd                     0000000140000000     test.obj
 0000:00000000       _volmd                     0000000140000000     test.obj
 0000:00000000       _volmd                     0000000140000000     test.obj
 0000:00000000       _volmd                     0000000140000000     test.obj
 0000:00000000       _volmd                     0000000140000000     test.obj
 0000:00000000       _volmd                     0000000140000000     test.obj
 0000:00000000       _volmd                     0000000140000000     test.obj
 0000:00000000       _volmd                     0000000140000000     test.obj
 0000:00000000       _volmd                     0000000140000000     test.obj
 0000:00000000       _volmd                     0000000140000000     test.obj
 0000:00000000       _volmd                     0000000140000000     test.obj
 0000:00000000       _volmd                     0000000140000000     test.obj
 0000:00000000       _volmd                     0000000140000000     test.obj
 0000:00000000       _volmd                     0000000140000000     test.obj
 0000:00000000       _volmd                     0000000140000000     test.obj
 0000:00000000       _volmd                     0000000140000000     test.obj
 0000:00000000       _volmd                     0000000140000000     test.obj
 0000:00000000       _volmd                     0000000140000000     test.obj
 0000:00000000       _volmd                     0000000140000000     test.obj
 0000:00000000       _volmd                     0000000140000000     test.obj
 0000:00000000       _volmd                     0000000140000000     test.obj
 0000:00000000       _volmd                     0000000140000000     test.obj
 0000:00000000       _volmd                     0000000140000000     test.obj
 0000:00000000       _volmd                     0000000140000000     test.obj
 0000:00000000       _volmd                     0000000140000000     test.obj
 0000:00000000       _volmd                     0000000140000000     test.obj
 0000:00000000       _volmd                     0000000140000000     test.obj
 0000:00000000       _volmd                     0000000140000000     test.obj
 0000:00000000       _volmd                     0000000140000000     test.obj
 0000:00000000       _volmd                     0000000140000000     test.obj
 0000:00000000       _volmd                     0000000140000000     test.obj
 0000:00000000       _volmd                     0000000140000000     test.obj
 0000:00000000       _volmd                     0000000140000000     test.obj
 0000:00000000       _volmd                     0000000140000000     test.obj
 0000:00000000       _volmd                     0000000140000000     test.obj
 0000:00000000       _volmd                     0000000140000000     test.obj
 0000:00000000       _volmd                     0000000140000000     test.obj
 0000:00000000       _volmd                     0000000140000000     test.obj
 0000:00000000       _volmd                     0000000140000000     test.obj
 0000:00000000       _volmd                     0000000140000000     test.obj
 0000:00000000       _volmd                     0000000140000000     test.obj
 0000:00000000       _volmd                     0000000140000000     test.obj
 0000:00000000       _volmd                     0000000140000000     test.obj
 0000:00000000       _volmd                     0000000140000000     test.obj
 0000:00000000       _volmd                     0000000140000000     test.obj
 0000:00000000       _volmd                     0000000140000000     test.obj
 0000:00000000       _volmd                     0000000140000000     test.obj
 0000:00000000       _volmd                     0000000140000000     test.obj
 0000:00000000       _volmd                     0000000140000000     test.obj
 0000:00000000       _volmd                     0000000140000000     test.obj
 0000:00000000       _volmd                     0000000140000000     test.obj
 0000:00000000       _volmd                     0000000140000000     test.obj
 0000:00000000       _volmd                     0000000140000000     test.obj
 0000:00000000       _volmd                     0000000140000000     test.obj
 0000:00000000       _volmd                     0000000140000000     test.obj
 0000:00000000       _volmd                     0000000140000000     test.obj
 0000:00000000       _volmd                     0000000140000000     test.obj
 0000:00000000       _volmd                     0000000140000000     test.obj
 0000:00000000       _volmd                     0000000140000000     test.obj
 0000:00000000       _volmd                     0000000140000000     test.obj
 0000:00000000       _volmd                     0000000140000000     test.obj
 0000:00000000       _volmd                     0000000140000000     test.obj
 0000:00000000       _volmd                     0000000140000000     test.obj
 0000:00000000       _volmd                     0000000140000000     test.obj
 0000:00000000       _volmd                     0000000140000000     test.obj
 0000:00000000       _volmd                     0000000140000000     test.obj
 0000:00000000       _volmd                     0000000140000000     test.obj
 0000:00000000       _volmd                     0000000140000000     test.obj
 0000:00000000       _volmd                     0000000140000000     test.obj
 0000:00000000       _volmd                     0000000140000000     test.obj
 0000:00000000       _volmd                     0000000140000000     test.obj
 0000:00000000       _volmd                     0000000140000000     test.obj
 0000:00000000       _volmd                     0000000140000000     test.obj
 0000:00000000       _volmd                     0000000140000000     test.obj
 0000:00000000       _volmd                     0000000140000000     test.obj
 0000:00000000       _volmd                     0000000140000000     test.obj
 0000:00000000       _volmd                     0000000140000000     test.obj
 0000:00000000       _volmd                     0000000140000000     test.obj
 0000:00000000       _volmd                     0000000140000000     test.obj
 0000:00000000       _volmd                     0000000140000000     test.obj
 0000:00000000       _volmd                     0000000140000000     test.obj
 0000:00000000       _volmd                     0000000140000000     test.obj
 0000:00000000       _volmd                     0000000140000000     test.obj
 0000:00000000       _volmd                     0000000140000000     test.obj
 0000:00000000       _volmd                     0000000140000000     test.obj
 0000:00000000       _volmd                     0000000140000000     test.obj
 0000:00000000       _volmd                     0000000140000000     test.obj
 0000:00000000       _volmd                     0000000140000000     test.obj
 0000:00000000       _volmd                     0000000140000000     test.obj
 0000:00000000       _volmd                     0000000140000000     test.obj
 0000:00000000       _volmd                     0000000140000000     test.obj
 0000:00000000       _volmd                     0000000140000000     test.obj
 0000:00000000       _volmd                     0000000140000000     test.obj
 0000:00000000       _volmd                     0000000140000000     test.obj
 0000:00000000       _volmd                     0000000140000000     test.obj
 0000:00000000       _volmd                     0000000140000000     test.obj
 0000:00000000       _volmd                     0000000140000000     test.obj
 0000:00000000       _volmd                     0000000140000000     test.obj
 0000:00000000       _volmd                     0000000140000000     test.obj
 0000:00000000       _volmd                     0000000140000000     test.obj
 0000:00000000       _volmd                     0000000140000000     test.obj
 0000:00000000       _volmd                     0000000140000000     test.obj
 0000:00000000       _volmd                     0000000140000000     test.obj
 0000:00000000       _volmd                     0000000140000000     test.obj
 0000:00000000       _volmd                     0000000140000000     test.obj
 0000:00000000       _volmd                     0000000140000000     test.obj
 0000:00000000       _volmd                     0000000140000000     test.obj
 0000:00000000       _volmd                     0000000140000000     test.obj
 0000:00000000       _volmd                     0000000140000000     test.obj
 0000:00000000       _volmd                     0000000140000000     test.obj
 0000:00000000       _volmd                     0000000140000000     test.obj
 0000:00000000       _volmd                     0000000140000000     test.obj
 0000:00000000       _volmd                     0000000140000000     test.obj
 0000:00000000       _volmd                     0000000140000000     test.obj
 0000:00000000       _volmd                     0000000140000000     test.obj
 0000:00000000       _volmd                     0000000140000000     test.obj
 0000:00000000       _volmd                     0000000140000000     test.obj
 0000:00000000       _volmd                     0000000140000000     test.obj
 0000:00000000       _volmd                     0000000140000000     test.obj
 0000:00000000       _volmd                     0000000140000000     test.obj
 0000:00000000       _volmd                     0000000140000000     test.obj
 0000:00000000       _volmd                     0000000140000000     test.obj
 0000:00000000       _volmd                     0000000140000000     test.obj
 0000:00000000       _volmd                     0000000140000000     test.obj
 0000:00000000       _volmd                     0000000140000000     test.obj
 0000:00000000       _volmd                     0000000140000000     test.obj
 0000:00000000       _volmd                     0000000140000000     test.obj
 0000:00000000       _volmd                     0000000140000000     test.obj
 0000:00000000       _volmd                     0000000140000000     test.obj
 0000:00000000       _volmd                     0000000140000000     test.obj
 0000:00000000       _volmd                     0000000140000000     test.obj
 0000:00000000       _volmd                     0000000140000000     test.obj
 0000:00000000       _volmd                     0000000140000000     test.obj
 0000:00000000       _volmd                     0000000140000000     test.obj
 0000:00000000       _volmd                     0000000140000000     test.obj
 0000:00000000       _volmd                     0000000140000000     test.obj
 0000:00000000       _volmd                     0000000140000000     test.obj
 0000:00000000       _volmd                     0000000140000000     test.obj
 0000:00000000       _volmd                     0000000140000000     test.obj
 0000:00000000       _volmd                     0000000140000000     test.obj
 0000:00000000       _volmd                     0000000140000000     test.obj
 0000:00000000       _volmd                     0000000140000000     test.obj
 0000:00000000       _volmd                     0000000140000000     test.obj
 0000:00000000       _volmd                     0000000140000000     test.obj
 0000:00000000       _volmd                     0000000140000000     test.obj
 0000:00000000       _volmd                     0000000140000000     test.obj
 0000:00000000       _volmd                     0000000140000000     test.obj
 0000:00000000       _volmd                     0000000140000000     test.obj
 0000:00000000       _volmd                     0000000140000000     test.obj
 0000:00000000       _volmd                     0000000140000000     test.obj
 0000:00000000       _volmd                     0000000140000000     test.obj
 0000:00000000       _volmd                     0000000140000000     test.obj
 0000:00000000       _volmd                     0000000140000000     test.obj
 0000:00000000       _volmd                     0000000140000000     test.obj
 0000:00000000       _volmd                     0000000140000000     test.obj
 0000:00000000       _volmd                     0000000140000000     test.obj
 0000:00000000       _volmd                     0000000140000000     test.obj
 0000:00000000       _volmd                     0000000140000000     test.obj
 0000:00000000       _volmd                     0000000140000000     test.obj
 0000:00000000       _volmd                     0000000140000000     test.obj
 0000:00000000       _volmd                     0000000140000000     test.obj
 0000:00000000       _volmd                     0000000140000000     test.obj
 0000:00000000       _volmd                     0000000140000000     test.obj
 0000:00000000       _volmd                     0000000140000000     test.obj
 0000:00000000       _volmd                     0000000140000000     test.obj
 0000:00000000       _volmd                     0000000140000000     test.obj
 0000:00000000       _volmd                     0000000140000000     test.obj
 0000:00000000       _volmd                     0000000140000000     test.obj
 0000:00000000       _volmd                     0000000140000000     test.obj
 0000:00000000       _volmd                     0000000140000000     test.obj
 0000:00000000       _volmd                     0000000140000000     test.obj
 0000:00000000       _volmd                     0000000140000000     test.obj
 0000:00000000       _volmd                     0000000140000000     test.obj
 0000:00000000       _volmd                     0000000140000000     test.obj
 0000:00000000       _volmd                     0000000140000000     test.obj
 0000:00000000       _volmd                     0000000140000000     test.obj
 0000:00000000       _volmd                     0000000140000000     test.obj
 0000:00000000       _volmd                     0000000140000000     test.obj
 0000:00000000       _volmd                     0000000140000000     test.obj
 0000:00000000       _volmd                     0000000140000000     test.obj
 0000:00000000       _volmd                     0000000140000000     test.obj
 0000:00000000       _volmd                     0000000140000000     test.obj
 0000:00000000       _volmd                     0000000140000000     test.obj
 0002:fffc4000       printf$rtcName$0           0000000140000000     test.obj
 0000:ff7e8000       .debug$S                   0000000140000000     AL_AE.exp
 0000:ff7e8000       .debug$S                   0000000140000000     ucrtd:ucrtbased.dll
 0000:ff7e8000       .debug$S                   0000000140000000     ucrtd:ucrtbased.dll
 0000:ff7e8000       .debug$S                   0000000140000000     ucrtd:ucrtbased.dll
 0000:ff7e8000       .debug$S                   0000000140000000     ucrtd:ucrtbased.dll
 0000:ff7e8000       .debug$S                   0000000140000000     ucrtd:ucrtbased.dll
 0000:ff7e8000       .debug$S                   0000000140000000     ucrtd:ucrtbased.dll
 0000:ff7e8000       .debug$S                   0000000140000000     ucrtd:ucrtbased.dll
 0000:ff7e8000       .debug$S                   0000000140000000     ucrtd:ucrtbased.dll
 0000:ff7e8000       .debug$S                   0000000140000000     ucrtd:ucrtbased.dll
 0000:ff7e8000       .debug$S                   0000000140000000     ucrtd:ucrtbased.dll
 0000:ff7e8000       .debug$S                   0000000140000000     ucrtd:ucrtbased.dll
 0000:ff7e8000       .debug$S                   0000000140000000     ucrtd:ucrtbased.dll
 0000:ff7e8000       .debug$S                   0000000140000000     ucrtd:ucrtbased.dll
 0000:ff7e8000       .debug$S                   0000000140000000     ucrtd:ucrtbased.dll
 0000:ff7e8000       .debug$S                   0000000140000000     ucrtd:ucrtbased.dll
 0000:ff7e8000       .debug$S                   0000000140000000     ucrtd:ucrtbased.dll
 0000:ff7e8000       .debug$S                   0000000140000000     ucrtd:ucrtbased.dll
 0000:ff7e8000       .debug$S                   0000000140000000     ucrtd:ucrtbased.dll
 0000:ff7e8000       .debug$S                   0000000140000000     ucrtd:ucrtbased.dll
 0000:ff7e8000       .debug$S                   0000000140000000     ucrtd:ucrtbased.dll
 0000:ff7e8000       .debug$S                   0000000140000000     ucrtd:ucrtbased.dll
 0000:ff7e8000       .debug$S                   0000000140000000     ucrtd:ucrtbased.dll
 0000:ff7e8000       .debug$S                   0000000140000000     ucrtd:ucrtbased.dll
 0000:ff7e8000       .debug$S                   0000000140000000     ucrtd:ucrtbased.dll
 0000:ff7e8000       .debug$S                   0000000140000000     ucrtd:ucrtbased.dll
 0000:ff7e8000       .debug$S                   0000000140000000     ucrtd:ucrtbased.dll
 0000:ff7e8000       .debug$S                   0000000140000000     ucrtd:ucrtbased.dll
 0000:ff7e8000       .debug$S                   0000000140000000     ucrtd:ucrtbased.dll
 0000:ff7e8000       .debug$S                   0000000140000000     ucrtd:ucrtbased.dll
 0000:ff7e8000       .debug$S                   0000000140000000     ucrtd:ucrtbased.dll
 0000:ff7e8000       .debug$S                   0000000140000000     ucrtd:ucrtbased.dll
 0000:ff7e8000       .debug$S                   0000000140000000     ucrtd:ucrtbased.dll
 0000:ff7e8000       .debug$S                   0000000140000000     ucrtd:ucrtbased.dll
 0000:ff7e8000       .debug$S                   0000000140000000     ucrtd:ucrtbased.dll
 0000:ff7e8000       .debug$S                   0000000140000000     ucrtd:ucrtbased.dll
 0000:ff7e8000       .debug$S                   0000000140000000     ucrtd:ucrtbased.dll
 0000:ff7e8000       .debug$S                   0000000140000000     ucrtd:ucrtbased.dll
 0000:ff7e8000       .debug$S                   0000000140000000     ucrtd:ucrtbased.dll
 0000:ff7e8000       .debug$S                   0000000140000000     ucrtd:ucrtbased.dll
 0000:ff7e8000       .debug$S                   0000000140000000     ucrtd:ucrtbased.dll
 0000:ff7e8000       .debug$S                   0000000140000000     ucrtd:ucrtbased.dll
 0000:ff7e8000       .debug$S                   0000000140000000     ucrtd:ucrtbased.dll
 0000:ff7e8000       .debug$S                   0000000140000000     ucrtd:ucrtbased.dll
 0000:ff7e8000       .debug$S                   0000000140000000     ucrtd:ucrtbased.dll
 0000:ff7e8000       .debug$S                   0000000140000000     ucrtd:ucrtbased.dll
 0000:ff7e8000       .debug$S                   0000000140000000     ucrtd:ucrtbased.dll
 0000:ff7e8000       .debug$S                   0000000140000000     ucrtd:ucrtbased.dll
 0000:ff7e8000       .debug$S                   0000000140000000     ucrtd:ucrtbased.dll
 0000:ff7e8000       .debug$S                   0000000140000000     ucrtd:ucrtbased.dll
 0000:ff7e8000       .debug$S                   0000000140000000     ucrtd:ucrtbased.dll
 0000:ff7e8000       .debug$S                   0000000140000000     ucrtd:ucrtbased.dll
 0000:ff7e8000       .debug$S                   0000000140000000     ucrtd:ucrtbased.dll
 0000:ff7e8000       .debug$S                   0000000140000000     ucrtd:ucrtbased.dll
 0000:ff7e8000       .debug$S                   0000000140000000     ucrtd:ucrtbased.dll
 0000:ff7e8000       .debug$S                   0000000140000000     ucrtd:ucrtbased.dll
 0000:ff7e8000       .debug$S                   0000000140000000     ucrtd:ucrtbased.dll
 0000:ff7e8000       .debug$S                   0000000140000000     ucrtd:ucrtbased.dll
 0000:ff7e8000       .debug$S                   0000000140000000     ucrtd:ucrtbased.dll
 0000:ff7e8000       .debug$S                   0000000140000000     ucrtd:ucrtbased.dll
 0000:ff7e8000       .debug$S                   0000000140000000     ucrtd:ucrtbased.dll
 0000:ff7e8000       .debug$S                   0000000140000000     ucrtd:ucrtbased.dll
 0000:ff7e8000       .debug$S                   0000000140000000     ucrtd:ucrtbased.dll
 0000:ff7e8000       .debug$S                   0000000140000000     ucrtd:ucrtbased.dll
 0000:ff7e8000       .debug$S                   0000000140000000     ucrtd:ucrtbased.dll
 0000:ff7e8000       .debug$S                   0000000140000000     ucrtd:ucrtbased.dll
 0000:ff7e8000       .debug$S                   0000000140000000     ucrtd:ucrtbased.dll
 0000:ff7e8000       .debug$S                   0000000140000000     ucrtd:ucrtbased.dll
 0000:ff7e8000       .debug$S                   0000000140000000     ucrtd:ucrtbased.dll
 0000:ff7e8000       .debug$S                   0000000140000000     ucrtd:ucrtbased.dll
 0000:ff7e8000       .debug$S                   0000000140000000     ucrtd:ucrtbased.dll
 0000:ff7e8000       .debug$S                   0000000140000000     ucrtd:ucrtbased.dll
 0000:ff7e8000       .debug$S                   0000000140000000     ucrtd:ucrtbased.dll
 0000:ff7e8000       .debug$S                   0000000140000000     ucrtd:ucrtbased.dll
 0000:ff7e8000       .debug$S                   0000000140000000     ucrtd:ucrtbased.dll
 0000:ff7e8000       .debug$S                   0000000140000000     kernel32:KERNEL32.dll
 0000:ff7e8000       .debug$S                   0000000140000000     kernel32:KERNEL32.dll
 0000:ff7e8000       .debug$S                   0000000140000000     kernel32:KERNEL32.dll
 0000:ff7e8000       .debug$S                   0000000140000000     kernel32:KERNEL32.dll
 0000:ff7e8000       .debug$S                   0000000140000000     kernel32:KERNEL32.dll
 0000:ff7e8000       .debug$S                   0000000140000000     kernel32:KERNEL32.dll
 0000:ff7e8000       .debug$S                   0000000140000000     kernel32:KERNEL32.dll
 0000:ff7e8000       .debug$S                   0000000140000000     kernel32:KERNEL32.dll
 0000:ff7e8000       .debug$S                   0000000140000000     kernel32:KERNEL32.dll
 0000:ff7e8000       .debug$S                   0000000140000000     kernel32:KERNEL32.dll
 0000:ff7e8000       .debug$S                   0000000140000000     kernel32:KERNEL32.dll
 0000:ff7e8000       .debug$S                   0000000140000000     kernel32:KERNEL32.dll
 0000:ff7e8000       .debug$S                   0000000140000000     kernel32:KERNEL32.dll
 0000:ff7e8000       .debug$S                   0000000140000000     kernel32:KERNEL32.dll
 0000:ff7e8000       .debug$S                   0000000140000000     kernel32:KERNEL32.dll
 0000:ff7e8000       .debug$S                   0000000140000000     kernel32:KERNEL32.dll
 0000:ff7e8000       .debug$S                   0000000140000000     kernel32:KERNEL32.dll
 0000:ff7e8000       .debug$S                   0000000140000000     kernel32:KERNEL32.dll
 0000:ff7e8000       .debug$S                   0000000140000000     kernel32:KERNEL32.dll
 0000:ff7e8000       .debug$S                   0000000140000000     kernel32:KERNEL32.dll
 0000:ff7e8000       .debug$S                   0000000140000000     kernel32:KERNEL32.dll
 0000:ff7e8000       .debug$S                   0000000140000000     kernel32:KERNEL32.dll
 0000:ff7e8000       .debug$S                   0000000140000000     kernel32:KERNEL32.dll
 0000:ff7e8000       .debug$S                   0000000140000000     kernel32:KERNEL32.dll
 0000:ff7e8000       .debug$S                   0000000140000000     kernel32:KERNEL32.dll
 0000:ff7e8000       .debug$S                   0000000140000000     kernel32:KERNEL32.dll
 0000:ff7e8000       .debug$S                   0000000140000000     kernel32:KERNEL32.dll
 0000:ff7e8000       .debug$S                   0000000140000000     kernel32:KERNEL32.dll
 0000:ff7e8000       .debug$S                   0000000140000000     kernel32:KERNEL32.dll
 0000:ff7e8000       .debug$S                   0000000140000000     kernel32:KERNEL32.dll
 0000:ff7e8000       .debug$S                   0000000140000000     kernel32:KERNEL32.dll
 0000:ff7e8000       .debug$S                   0000000140000000     kernel32:KERNEL32.dll
 0000:ff7e8000       .debug$S                   0000000140000000     kernel32:KERNEL32.dll
 0000:ff7e8000       .debug$S                   0000000140000000     kernel32:KERNEL32.dll
 0000:ff7e8000       .debug$S                   0000000140000000     kernel32:KERNEL32.dll
 0000:00000000       _volmd                     0000000140000000     MSVCRTD:cpu_disp.obj
 0002:fffc4000       __guard_ehcont_?__ArrayUnwind@@YAXPEAX_K1P6AX0@Z@Z 0000000140000000     MSVCRTD:ehvecdtr.obj
 0002:fffc4000       __guard_ehcont_?notify_debugger@@YAXAEBUtagEXCEPTION_VISUALCPP_DEBUG_INFO@@@Z 0000000140000000     MSVCRTD:error.obj
 0002:fffc4000       $unwind$?configure_argv@__scrt_narrow_argv_policy@@SAHXZ 0000000140000000     MSVCRTD:exe_main.obj
 0002:fffc4000       $unwind$?initialize_environment@__scrt_narrow_environment_policy@@SAHXZ 0000000140000000     MSVCRTD:exe_main.obj
 0002:fffc4000       __guard_ehcont_?__scrt_common_main_seh@@YAHXZ 0000000140000000     MSVCRTD:exe_main.obj
 0002:fffc4000       __guard_fids_?pre_c_initialization@@YAHXZ 0000000140000000     MSVCRTD:exe_main.obj
 0002:fffc4000       __guard_fids__             0000000140000000     MSVCRTD:exe_main.obj
 0000:00000000       _volmd                     0000000140000000     MSVCRTD:gs_report.obj
 0000:00000000       _volmd                     0000000140000000     MSVCRTD:gs_report.obj
 0000:00000000       _volmd                     0000000140000000     MSVCRTD:gs_report.obj
 0002:fffc4000       __guard_fids__             0000000140000000     MSVCRTD:guard_support.obj
 0002:fffc4000       __guard_fids__             0000000140000000     MSVCRTD:guard_support.obj
 0002:fffc4000       __guard_fids__guard_icall_checks_enforced 0000000140000000     MSVCRTD:guard_support.obj
 0000:00000000       _volmd                     0000000140000000     MSVCRTD:guard_support.obj
 0000:00000000       _volmd                     0000000140000000     MSVCRTD:guard_support.obj
 0002:fffc4000       __guard_fids__CRT_RTC_INIT 0000000140000000     MSVCRTD:init.obj
 0002:fffc4000       __guard_fids__CRT_RTC_INITW 0000000140000000     MSVCRTD:init.obj
 0002:fffc4000       __guard_fids__             0000000140000000     MSVCRTD:std_type_info_static.obj
 0002:fffc4000       $unwind$??0bad_alloc@std@@AEAA@QEBD@Z 0000000140000000     MSVCRTD:throw_bad_alloc.obj
 0002:fffc4000       $unwind$??0bad_alloc@std@@QEAA@AEBV01@@Z 0000000140000000     MSVCRTD:throw_bad_alloc.obj
 0002:fffc4000       $unwind$??0bad_array_new_length@std@@QEAA@AEBV01@@Z 0000000140000000     MSVCRTD:throw_bad_alloc.obj
 0002:fffc4000       $unwind$??0bad_array_new_length@std@@QEAA@XZ 0000000140000000     MSVCRTD:throw_bad_alloc.obj
 0002:fffc4000       $unwind$??0exception@std@@QEAA@AEBV01@@Z 0000000140000000     MSVCRTD:throw_bad_alloc.obj
 0002:fffc4000       $unwind$??0exception@std@@QEAA@QEBDH@Z 0000000140000000     MSVCRTD:throw_bad_alloc.obj
 0002:fffc4000       $unwind$??1bad_alloc@std@@UEAA@XZ 0000000140000000     MSVCRTD:throw_bad_alloc.obj
 0002:fffc4000       $unwind$??1bad_array_new_length@std@@UEAA@XZ 0000000140000000     MSVCRTD:throw_bad_alloc.obj
 0002:fffc4000       $unwind$??1exception@std@@UEAA@XZ 0000000140000000     MSVCRTD:throw_bad_alloc.obj
 0002:fffc4000       $unwind$??_Gbad_alloc@std@@UEAAPEAXI@Z 0000000140000000     MSVCRTD:throw_bad_alloc.obj
 0002:fffc4000       $unwind$??_Gbad_array_new_length@std@@UEAAPEAXI@Z 0000000140000000     MSVCRTD:throw_bad_alloc.obj
 0002:fffc4000       $unwind$??_Gexception@std@@UEAAPEAXI@Z 0000000140000000     MSVCRTD:throw_bad_alloc.obj
 0002:fffc4000       $unwind$?what@exception@std@@UEBAPEBDXZ 0000000140000000     MSVCRTD:throw_bad_alloc.obj
 0002:fffc4000       __guard_fids__             0000000140000000     MSVCRTD:throw_bad_alloc.obj
 0002:fffc4000       __guard_fids__             0000000140000000     MSVCRTD:throw_bad_alloc.obj
 0002:fffc4000       __guard_fids__             0000000140000000     MSVCRTD:throw_bad_alloc.obj
 0002:fffc4000       __guard_ehcont___scrt_is_nonwritable_in_current_image 0000000140000000     MSVCRTD:utility.obj
 0000:00000000       _volmd                     0000000140000000     MSVCRTD:utility.obj
 0000:00000000       _volmd                     0000000140000000     MSVCRTD:utility.obj
 0000:00000000       _volmd                     0000000140000000     MSVCRTD:utility.obj
 0002:fffc4000       __guard_fids___scrt_set_unhandled_exception_filter 0000000140000000     MSVCRTD:utility_desktop.obj
 0000:00000000       _volmd                     0000000140000000     MSVCRTD:utility_desktop.obj
 0002:fffc4000       __guard_fids_??__F_Fac_tidy_reg@std@@YAXXZ 0000000140000000     msvcprtd:locale0_implib.obj
 0002:fffc4000       __guard_fids__             0000000140000000     msvcprtd:locale0_implib.obj
 0000:ff7e8000       .debug$S                   0000000140000000     msvcprtd:MSVCP140D.dll
 0000:ff7e8000       .debug$S                   0000000140000000     msvcprtd:MSVCP140D.dll
 0000:ff7e8000       .debug$S                   0000000140000000     msvcprtd:MSVCP140D.dll
 0000:ff7e8000       .debug$S                   0000000140000000     msvcprtd:MSVCP140D.dll
 0000:ff7e8000       .debug$S                   0000000140000000     msvcprtd:MSVCP140D.dll
 0000:ff7e8000       .debug$S                   0000000140000000     msvcprtd:MSVCP140D.dll
 0000:ff7e8000       .debug$S                   0000000140000000     msvcprtd:MSVCP140D.dll
 0000:ff7e8000       .debug$S                   0000000140000000     msvcprtd:MSVCP140D.dll
 0000:ff7e8000       .debug$S                   0000000140000000     msvcprtd:MSVCP140D.dll
 0000:ff7e8000       .debug$S                   0000000140000000     msvcprtd:MSVCP140D.dll
 0000:ff7e8000       .debug$S                   0000000140000000     msvcprtd:MSVCP140D.dll
 0000:ff7e8000       .debug$S                   0000000140000000     msvcprtd:MSVCP140D.dll
 0000:ff7e8000       .debug$S                   0000000140000000     msvcprtd:MSVCP140D.dll
 0000:ff7e8000       .debug$S                   0000000140000000     msvcprtd:MSVCP140D.dll
 0000:ff7e8000       .debug$S                   0000000140000000     msvcprtd:MSVCP140D.dll
 0000:ff7e8000       .debug$S                   0000000140000000     msvcprtd:MSVCP140D.dll
 0000:ff7e8000       .debug$S                   0000000140000000     msvcprtd:MSVCP140D.dll
 0000:ff7e8000       .debug$S                   0000000140000000     msvcprtd:MSVCP140D.dll
 0000:ff7e8000       .debug$S                   0000000140000000     msvcprtd:MSVCP140D.dll
 0000:ff7e8000       .debug$S                   0000000140000000     msvcprtd:MSVCP140D.dll
 0000:ff7e8000       .debug$S                   0000000140000000     msvcprtd:MSVCP140D.dll
 0000:ff7e8000       .debug$S                   0000000140000000     msvcprtd:MSVCP140D.dll
 0000:ff7e8000       .debug$S                   0000000140000000     msvcprtd:MSVCP140D.dll
 0000:ff7e8000       .debug$S                   0000000140000000     msvcprtd:MSVCP140D.dll
 0000:ff7e8000       .debug$S                   0000000140000000     msvcprtd:MSVCP140D.dll
 0000:ff7e8000       .debug$S                   0000000140000000     msvcprtd:MSVCP140D.dll
 0000:ff7e8000       .debug$S                   0000000140000000     msvcprtd:MSVCP140D.dll
 0000:ff7e8000       .debug$S                   0000000140000000     msvcprtd:MSVCP140D.dll
 0000:ff7e8000       .debug$S                   0000000140000000     msvcprtd:MSVCP140D.dll
 0000:ff7e8000       .debug$S                   0000000140000000     msvcprtd:MSVCP140D.dll
 0000:ff7e8000       .debug$S                   0000000140000000     msvcprtd:MSVCP140D.dll
 0000:ff7e8000       .debug$S                   0000000140000000     msvcprtd:MSVCP140D.dll
 0000:ff7e8000       .debug$S                   0000000140000000     msvcprtd:MSVCP140D.dll
 0000:ff7e8000       .debug$S                   0000000140000000     msvcprtd:MSVCP140D.dll
 0000:ff7e8000       .debug$S                   0000000140000000     msvcprtd:MSVCP140D.dll
 0000:ff7e8000       .debug$S                   0000000140000000     msvcprtd:MSVCP140D.dll
 0000:ff7e8000       .debug$S                   0000000140000000     msvcprtd:MSVCP140D.dll
 0000:ff7e8000       .debug$S                   0000000140000000     msvcprtd:MSVCP140D.dll
 0000:ff7e8000       .debug$S                   0000000140000000     msvcprtd:MSVCP140D.dll
 0000:ff7e8000       .debug$S                   0000000140000000     msvcprtd:MSVCP140D.dll
 0000:ff7e8000       .debug$S                   0000000140000000     msvcprtd:MSVCP140D.dll
 0000:ff7e8000       .debug$S                   0000000140000000     msvcprtd:MSVCP140D.dll
 0000:ff7e8000       .debug$S                   0000000140000000     msvcprtd:MSVCP140D.dll
 0000:ff7e8000       .debug$S                   0000000140000000     msvcprtd:MSVCP140D.dll
 0000:ff7e8000       .debug$S                   0000000140000000     msvcprtd:MSVCP140D.dll
 0000:ff7e8000       .debug$S                   0000000140000000     msvcprtd:MSVCP140D.dll
 0000:ff7e8000       .debug$S                   0000000140000000     msvcprtd:MSVCP140D.dll
 0000:ff7e8000       .debug$S                   0000000140000000     msvcprtd:MSVCP140D.dll
 0000:ff7e8000       .debug$S                   0000000140000000     msvcprtd:MSVCP140D.dll
 0000:ff7e8000       .debug$S                   0000000140000000     msvcprtd:MSVCP140D.dll
 0000:ff7e8000       .debug$S                   0000000140000000     msvcprtd:MSVCP140D.dll
 0000:ff7e8000       .debug$S                   0000000140000000     msvcprtd:MSVCP140D.dll
 0000:ff7e8000       .debug$S                   0000000140000000     msvcprtd:MSVCP140D.dll
 0000:ff7e8000       .debug$S                   0000000140000000     msvcprtd:MSVCP140D.dll
 0000:ff7e8000       .debug$S                   0000000140000000     msvcprtd:MSVCP140D.dll
 0000:ff7e8000       .debug$S                   0000000140000000     msvcprtd:MSVCP140D.dll
 0000:ff7e8000       .debug$S                   0000000140000000     msvcprtd:MSVCP140D.dll
 0000:ff7e8000       .debug$S                   0000000140000000     msvcprtd:MSVCP140D.dll
 0000:ff7e8000       .debug$S                   0000000140000000     msvcprtd:MSVCP140D.dll
 0000:ff7e8000       .debug$S                   0000000140000000     msvcprtd:MSVCP140D.dll
 0000:ff7e8000       .debug$S                   0000000140000000     msvcprtd:MSVCP140D.dll
 0000:ff7e8000       .debug$S                   0000000140000000     msvcprtd:MSVCP140D.dll
 0000:ff7e8000       .debug$S                   0000000140000000     msvcprtd:MSVCP140D.dll
 0000:ff7e8000       .debug$S                   0000000140000000     msvcprtd:MSVCP140D.dll
 0000:ff7e8000       .debug$S                   0000000140000000     msvcprtd:MSVCP140D.dll
 0000:ff7e8000       .debug$S                   0000000140000000     msvcprtd:MSVCP140D.dll
 0000:ff7e8000       .debug$S                   0000000140000000     msvcprtd:MSVCP140D.dll
 0000:ff7e8000       .debug$S                   0000000140000000     msvcprtd:MSVCP140D.dll
 0000:ff7e8000       .debug$S                   0000000140000000     msvcprtd:MSVCP140D.dll
 0000:ff7e8000       .debug$S                   0000000140000000     msvcprtd:MSVCP140D.dll
 0000:ff7e8000       .debug$S                   0000000140000000     msvcprtd:MSVCP140D.dll
 0000:ff7e8000       .debug$S                   0000000140000000     msvcprtd:MSVCP140D.dll
 0000:ff7e8000       .debug$S                   0000000140000000     msvcprtd:MSVCP140D.dll
 0000:ff7e8000       .debug$S                   0000000140000000     msvcprtd:MSVCP140D.dll
 0000:ff7e8000       .debug$S                   0000000140000000     msvcprtd:MSVCP140D.dll
 0000:ff7e8000       .debug$S                   0000000140000000     msvcprtd:MSVCP140D.dll
 0000:ff7e8000       .debug$S                   0000000140000000     msvcprtd:MSVCP140D.dll
 0000:ff7e8000       .debug$S                   0000000140000000     msvcprtd:MSVCP140D.dll
 0000:ff7e8000       .debug$S                   0000000140000000     msvcprtd:MSVCP140D.dll
 0000:ff7e8000       .debug$S                   0000000140000000     msvcprtd:MSVCP140D.dll
 0000:ff7e8000       .debug$S                   0000000140000000     msvcprtd:MSVCP140D.dll
 0000:ff7e8000       .debug$S                   0000000140000000     msvcprtd:MSVCP140D.dll
 0002:fffc4000       __guard_fids__             0000000140000000     vcruntimed:softmemtag.obj
 0000:ff7e8000       .debug$S                   0000000140000000     vcruntimed:VCRUNTIME140D.dll
 0000:ff7e8000       .debug$S                   0000000140000000     vcruntimed:VCRUNTIME140D.dll
 0000:ff7e8000       .debug$S                   0000000140000000     vcruntimed:VCRUNTIME140D.dll
 0000:ff7e8000       .debug$S                   0000000140000000     vcruntimed:VCRUNTIME140D.dll
 0000:ff7e8000       .debug$S                   0000000140000000     vcruntimed:VCRUNTIME140D.dll
 0000:ff7e8000       .debug$S                   0000000140000000     vcruntimed:VCRUNTIME140D.dll
 0000:ff7e8000       .debug$S                   0000000140000000     vcruntimed:VCRUNTIME140D.dll
 0000:ff7e8000       .debug$S                   0000000140000000     vcruntimed:VCRUNTIME140D.dll
 0000:ff7e8000       .debug$S                   0000000140000000     vcruntimed:VCRUNTIME140D.dll
 0000:ff7e8000       .debug$S                   0000000140000000     vcruntimed:VCRUNTIME140D.dll
 0000:ff7e8000       .debug$S                   0000000140000000     vcruntimed:VCRUNTIME140D.dll
 0000:ff7e8000       .debug$S                   0000000140000000     vcruntimed:VCRUNTIME140D.dll
 0000:ff7e8000       .debug$S                   0000000140000000     vcruntimed:VCRUNTIME140D.dll
 0000:ff7e8000       .debug$S                   0000000140000000     vcruntimed:VCRUNTIME140D.dll
 0000:ff7e8000       .debug$S                   0000000140000000     vcruntimed:VCRUNTIME140D.dll
 0000:ff7e8000       .debug$S                   0000000140000000     vcruntimed:VCRUNTIME140D.dll
 0000:ff7e8000       .debug$S                   0000000140000000     vcruntimed:VCRUNTIME140_1D.dll
 0002:fffc4004       ??$_Construct@$00PEBD@?$basic_string@DU?$char_traits@D@std@@V?$allocator@D@2@@std@@AEAAXQEBD_K@Z$rtcName$1 0000000140000004     IspSoftAeApi.obj
 0002:fffc4004       ?_Init@?$basic_filebuf@DU?$char_traits@D@std@@@std@@IEAAXPEAU_iobuf@@W4_Initfl@12@@Z$rtcName$1 0000000140000004     test.obj
 0002:fffc4004       ?uflow@?$basic_filebuf@DU?$char_traits@D@std@@@std@@MEAAHXZ$rtcName$1 0000000140000004     test.obj
 0002:fffc4004       __guard_fids__             0000000140000004     MSVCRTD:exe_main.obj
 0002:fffc4008       ??$_Construct@$00PEBD@?$basic_string@DU?$char_traits@D@std@@V?$allocator@D@2@@std@@AEAAXQEBD_K@Z$rtcName$1 0000000140000008     test.obj
 0002:fffc4008       ??$use_facet@V?$codecvt@DDU_Mbstatet@@@std@@@std@@YAAEBV?$codecvt@DDU_Mbstatet@@@0@AEBVlocale@0@@Z$rtcName$1 0000000140000008     test.obj
 0002:fffc4008       ?_Endwrite@?$basic_filebuf@DU?$char_traits@D@std@@@std@@IEAA_NXZ$rtcName$1 0000000140000008     test.obj
 0002:fffc4008       ?_Init@?$basic_filebuf@DU?$char_traits@D@std@@@std@@IEAAXPEAU_iobuf@@W4_Initfl@12@@Z$rtcName$2 0000000140000008     test.obj
 0002:fffc4008       ?overflow@?$basic_filebuf@DU?$char_traits@D@std@@@std@@MEAAHH@Z$rtcName$1 0000000140000008     test.obj
 0002:fffc4008       __guard_fids__             0000000140000008     MSVCRTD:exe_main.obj
 0002:fffc400c       ?overflow@?$basic_filebuf@DU?$char_traits@D@std@@@std@@MEAAHH@Z$rtcName$2 000000014000000c     test.obj
 0002:fffc400c       ?uflow@?$basic_filebuf@DU?$char_traits@D@std@@@std@@MEAAHXZ$rtcName$2 000000014000000c     test.obj
 0002:fffc4010       ??$_Construct@$00PEBD@?$basic_string@DU?$char_traits@D@std@@V?$allocator@D@2@@std@@AEAAXQEBD_K@Z$rtcName$2 0000000140000010     IspSoftAeApi.obj
 0002:fffc4010       ??1?$basic_string@DU?$char_traits@D@std@@V?$allocator@D@2@@std@@QEAA@XZ$rtcVarDesc 0000000140000010     IspSoftAeApi.obj
 0002:fffc4010       ?_Calculate_growth@?$basic_string@DU?$char_traits@D@std@@V?$allocator@D@2@@std@@CA_K_K00@Z$rtcVarDesc 0000000140000010     IspSoftAeApi.obj
 0002:fffc4010       ?_Orphan_all_locked_v3@_Container_base12@std@@AEAAXXZ$rtcVarDesc 0000000140000010     IspSoftAeApi.obj
 0002:fffc4010       ?_Swap_proxy_and_iterators_locked@_Container_base12@std@@AEAAXAEAU12@@Z$rtcVarDesc 0000000140000010     IspSoftAeApi.obj
 0002:fffc4010       ?max_size@?$basic_string@DU?$char_traits@D@std@@V?$allocator@D@2@@std@@QEBA_KXZ$rtcVarDesc 0000000140000010     IspSoftAeApi.obj
 0002:fffc4010       fprintf$rtcVarDesc         0000000140000010     IspSoftAeApi.obj
 0002:fffc4010       printf$rtcVarDesc          0000000140000010     IspSoftAeApi.obj
 0002:fffc4010       sprintf$rtcVarDesc         0000000140000010     IspSoftAeApi.obj
 0002:fffc4010       fprintf$rtcVarDesc         0000000140000010     alAELib_iAE.obj
 0002:fffc4010       sprintf$rtcVarDesc         0000000140000010     alAELib_iAE.obj
 0002:fffc4010       fprintf$rtcVarDesc         0000000140000010     table.obj
 0002:fffc4010       sprintf$rtcVarDesc         0000000140000010     table.obj
 0002:fffc4010       ??$_Construct@$00PEBD@?$basic_string@DU?$char_traits@D@std@@V?$allocator@D@2@@std@@AEAAXQEBD_K@Z$rtcName$2 0000000140000010     test.obj
 0002:fffc4010       ??$_Reallocate_grow_by@V<lambda_1>@?1??push_back@?$basic_string@DU?$char_traits@D@std@@V?$allocator@D@2@@std@@QEAAXD@Z@D@?$basic_string@DU?$char_traits@D@std@@V?$allocator@D@2@@std@@AEAAAEAV01@_KV<lambda_1>@?1??push_back@01@QEAAXD@Z@D@Z$rtcName$1 0000000140000010     test.obj
 0002:fffc4010       ??$use_facet@V?$codecvt@DDU_Mbstatet@@@std@@@std@@YAAEBV?$codecvt@DDU_Mbstatet@@@0@AEBVlocale@0@@Z$rtcName$2 0000000140000010     test.obj
 0002:fffc4010       ??1?$basic_string@DU?$char_traits@D@std@@V?$allocator@D@2@@std@@QEAA@XZ$rtcVarDesc 0000000140000010     test.obj
 0002:fffc4010       ?_Calculate_growth@?$basic_string@DU?$char_traits@D@std@@V?$allocator@D@2@@std@@CA_K_K00@Z$rtcVarDesc 0000000140000010     test.obj
 0002:fffc4010       ?_Endwrite@?$basic_filebuf@DU?$char_traits@D@std@@@std@@IEAA_NXZ$rtcVarDesc 0000000140000010     test.obj
 0002:fffc4010       ?_Init@?$basic_filebuf@DU?$char_traits@D@std@@@std@@IEAAXPEAU_iobuf@@W4_Initfl@12@@Z$rtcVarDesc 0000000140000010     test.obj
 0002:fffc4010       ?_Orphan_all_locked_v3@_Container_base12@std@@AEAAXXZ$rtcVarDesc 0000000140000010     test.obj
 0002:fffc4010       ?max_size@?$basic_string@DU?$char_traits@D@std@@V?$allocator@D@2@@std@@QEBA_KXZ$rtcVarDesc 0000000140000010     test.obj
 0002:fffc4010       ?seekoff@?$basic_filebuf@DU?$char_traits@D@std@@@std@@MEAA?AV?$fpos@U_Mbstatet@@@2@_JHH@Z$rtcVarDesc 0000000140000010     test.obj
 0002:fffc4010       ?seekpos@?$basic_filebuf@DU?$char_traits@D@std@@@std@@MEAA?AV?$fpos@U_Mbstatet@@@2@V32@H@Z$rtcVarDesc 0000000140000010     test.obj
 0002:fffc4010       ?xsgetn@?$basic_filebuf@DU?$char_traits@D@std@@@std@@MEAA_JPEAD_J@Z$rtcName$1 0000000140000010     test.obj
 0002:fffc4010       printf$rtcVarDesc          0000000140000010     test.obj
 0002:fffc4014       ?overflow@?$basic_filebuf@DU?$char_traits@D@std@@@std@@MEAAHH@Z$rtcName$3 0000000140000014     test.obj
 0002:fffc4014       ?uflow@?$basic_filebuf@DU?$char_traits@D@std@@@std@@MEAAHXZ$rtcName$3 0000000140000014     test.obj
 0002:fffc4018       ?uflow@?$basic_filebuf@DU?$char_traits@D@std@@@std@@MEAAHXZ$rtcName$4 0000000140000018     test.obj
 0002:fffc4020       ??$_Construct@$00PEBD@?$basic_string@DU?$char_traits@D@std@@V?$allocator@D@2@@std@@AEAAXQEBD_K@Z$rtcName$3 0000000140000020     IspSoftAeApi.obj
 0002:fffc4020       ??$_Construct@$00PEBD@?$basic_string@DU?$char_traits@D@std@@V?$allocator@D@2@@std@@AEAAXQEBD_K@Z$rtcName$3 0000000140000020     test.obj
 0002:fffc4020       ??$_Reallocate_grow_by@V<lambda_1>@?1??push_back@?$basic_string@DU?$char_traits@D@std@@V?$allocator@D@2@@std@@QEAAXD@Z@D@?$basic_string@DU?$char_traits@D@std@@V?$allocator@D@2@@std@@AEAAAEAV01@_KV<lambda_1>@?1??push_back@01@QEAAXD@Z@D@Z$rtcVarDesc 0000000140000020     test.obj
 0002:fffc4020       ??$use_facet@V?$codecvt@DDU_Mbstatet@@@std@@@std@@YAAEBV?$codecvt@DDU_Mbstatet@@@0@AEBVlocale@0@@Z$rtcVarDesc 0000000140000020     test.obj
 0002:fffc4020       ?overflow@?$basic_filebuf@DU?$char_traits@D@std@@@std@@MEAAHH@Z$rtcVarDesc 0000000140000020     test.obj
 0002:fffc4020       ?uflow@?$basic_filebuf@DU?$char_traits@D@std@@@std@@MEAAHXZ$rtcVarDesc 0000000140000020     test.obj
 0002:fffc4020       ?xsgetn@?$basic_filebuf@DU?$char_traits@D@std@@@std@@MEAA_JPEAD_J@Z$rtcVarDesc 0000000140000020     test.obj
 0002:fffc4030       ??$_Construct@$00PEBD@?$basic_string@DU?$char_traits@D@std@@V?$allocator@D@2@@std@@AEAAXQEBD_K@Z$rtcVarDesc 0000000140000030     IspSoftAeApi.obj
 0002:fffc4030       ??$_Construct@$00PEBD@?$basic_string@DU?$char_traits@D@std@@V?$allocator@D@2@@std@@AEAAXQEBD_K@Z$rtcVarDesc 0000000140000030     test.obj
 0002:fffc4050       ??1?$basic_string@DU?$char_traits@D@std@@V?$allocator@D@2@@std@@QEAA@XZ$rtcFrameData 0000000140000050     IspSoftAeApi.obj
 0002:fffc4050       ?_Calculate_growth@?$basic_string@DU?$char_traits@D@std@@V?$allocator@D@2@@std@@CA_K_K00@Z$rtcFrameData 0000000140000050     IspSoftAeApi.obj
 0002:fffc4050       ?_Orphan_all_locked_v3@_Container_base12@std@@AEAAXXZ$rtcFrameData 0000000140000050     IspSoftAeApi.obj
 0002:fffc4050       ?_Swap_proxy_and_iterators_locked@_Container_base12@std@@AEAAXAEAU12@@Z$rtcFrameData 0000000140000050     IspSoftAeApi.obj
 0002:fffc4050       ?max_size@?$basic_string@DU?$char_traits@D@std@@V?$allocator@D@2@@std@@QEBA_KXZ$rtcFrameData 0000000140000050     IspSoftAeApi.obj
 0002:fffc4050       fprintf$rtcFrameData       0000000140000050     IspSoftAeApi.obj
 0002:fffc4050       printf$rtcFrameData        0000000140000050     IspSoftAeApi.obj
 0002:fffc4050       sprintf$rtcFrameData       0000000140000050     IspSoftAeApi.obj
 0002:fffc4050       fprintf$rtcFrameData       0000000140000050     alAELib_iAE.obj
 0002:fffc4050       sprintf$rtcFrameData       0000000140000050     alAELib_iAE.obj
 0002:fffc4050       fprintf$rtcFrameData       0000000140000050     table.obj
 0002:fffc4050       sprintf$rtcFrameData       0000000140000050     table.obj
 0002:fffc4050       ??1?$basic_string@DU?$char_traits@D@std@@V?$allocator@D@2@@std@@QEAA@XZ$rtcFrameData 0000000140000050     test.obj
 0002:fffc4050       ?_Calculate_growth@?$basic_string@DU?$char_traits@D@std@@V?$allocator@D@2@@std@@CA_K_K00@Z$rtcFrameData 0000000140000050     test.obj
 0002:fffc4050       ?_Orphan_all_locked_v3@_Container_base12@std@@AEAAXXZ$rtcFrameData 0000000140000050     test.obj
 0002:fffc4050       ?max_size@?$basic_string@DU?$char_traits@D@std@@V?$allocator@D@2@@std@@QEBA_KXZ$rtcFrameData 0000000140000050     test.obj
 0002:fffc4050       ?seekoff@?$basic_filebuf@DU?$char_traits@D@std@@@std@@MEAA?AV?$fpos@U_Mbstatet@@@2@_JHH@Z$rtcFrameData 0000000140000050     test.obj
 0002:fffc4050       ?seekpos@?$basic_filebuf@DU?$char_traits@D@std@@@std@@MEAA?AV?$fpos@U_Mbstatet@@@2@V32@H@Z$rtcFrameData 0000000140000050     test.obj
 0002:fffc4050       printf$rtcFrameData        0000000140000050     test.obj
 0002:fffc4090       ?_Endwrite@?$basic_filebuf@DU?$char_traits@D@std@@@std@@IEAA_NXZ$rtcFrameData 0000000140000090     test.obj
 0002:fffc40a0       ??$_Reallocate_grow_by@V<lambda_1>@?1??push_back@?$basic_string@DU?$char_traits@D@std@@V?$allocator@D@2@@std@@QEAAXD@Z@D@?$basic_string@DU?$char_traits@D@std@@V?$allocator@D@2@@std@@AEAAAEAV01@_KV<lambda_1>@?1??push_back@01@QEAAXD@Z@D@Z$rtcFrameData 00000001400000a0     test.obj
 0002:fffc40a0       ?xsgetn@?$basic_filebuf@DU?$char_traits@D@std@@@std@@MEAA_JPEAD_J@Z$rtcFrameData 00000001400000a0     test.obj
 0002:fffc40d0       ?_Init@?$basic_filebuf@DU?$char_traits@D@std@@@std@@IEAAXPEAU_iobuf@@W4_Initfl@12@@Z$rtcFrameData 00000001400000d0     test.obj
 0002:fffc40e0       ??$use_facet@V?$codecvt@DDU_Mbstatet@@@std@@@std@@YAAEBV?$codecvt@DDU_Mbstatet@@@0@AEBVlocale@0@@Z$rtcFrameData 00000001400000e0     test.obj
 0002:fffc4120       ?overflow@?$basic_filebuf@DU?$char_traits@D@std@@@std@@MEAAHH@Z$rtcFrameData 0000000140000120     test.obj
 0002:fffc4130       ??$_Construct@$00PEBD@?$basic_string@DU?$char_traits@D@std@@V?$allocator@D@2@@std@@AEAAXQEBD_K@Z$rtcFrameData 0000000140000130     IspSoftAeApi.obj
 0002:fffc4130       ??$_Construct@$00PEBD@?$basic_string@DU?$char_traits@D@std@@V?$allocator@D@2@@std@@AEAAXQEBD_K@Z$rtcFrameData 0000000140000130     test.obj
 0002:fffc4160       ?uflow@?$basic_filebuf@DU?$char_traits@D@std@@@std@@MEAAHXZ$rtcFrameData 0000000140000160     test.obj
 0001:00000000       ??__EexpousureList@@YAXXZ  0000000140001000 f   alAELibCore.obj
 0001:00000060       ??__EAeInEnquene@@YAXXZ    0000000140001060 f   test.obj
 0001:000000b0       ??__EAeOutEnquene@@YAXXZ   00000001400010b0 f   test.obj
 0001:00000100       ??__EAtfInEnquene@@YAXXZ   0000000140001100 f   test.obj
 0001:00000150       ??__EAtfOutEnquene@@YAXXZ  0000000140001150 f   test.obj
 0001:000001a0       ??__EAwbInEnquene@@YAXXZ   00000001400011a0 f   test.obj
 0001:000001f0       ??__EAwbOutEnquene@@YAXXZ  00000001400011f0 f   test.obj
 0001:00000240       ??__F_Fac_tidy_reg@std@@YAXXZ 0000000140001240 f   msvcprtd:locale0_implib.obj
 0001:00005d84       $LN16                      0000000140006d84     alAELibCore.obj
 0001:00008cd4       $LN47                      0000000140009cd4     alAELibCore.obj
 0001:0000b7cc       $LN123                     000000014000c7cc     alAELibCore.obj
 0001:0000c6c0       ?log_level_2_str@@YAPEADW4LogLevel_em@@@Z 000000014000d6c0 f   alAELibCore.obj
 0001:0000c77c       $LN14                      000000014000d77c     alAELibCore.obj
 0001:0000c79c       $LN13                      000000014000d79c     alAELibCore.obj
 0001:0000c7e0       ?log_shutdown_file@@YAXXZ  000000014000d7e0 f   alAELibCore.obj
 0001:0000c810       ?log_str_2_level@@YA?AW4LogLevel_em@@PEBD@Z 000000014000d810 f   alAELibCore.obj
 0001:0000c910       ?log_to_file@@YAXXZ        000000014000d910 f   alAELibCore.obj
 0001:0000cea0       ?printf_log@@YAXW4LogLevel_em@@PEBD1H1ZZ 000000014000dea0 f   alAELibCore.obj
 0001:0000d1d0       ?set_log_level@@YAXH@Z     000000014000e1d0 f   alAELibCore.obj
 0001:00012400       localtime                  0000000140013400 f   alAELibCore.obj
 0001:000125c0       time                       00000001400135c0 f   alAELibCore.obj
 0001:00014cc0       ?log_level_2_str@@YAPEADW4LogLevel_em@@@Z 0000000140015cc0 f   alAELib_iAE.obj
 0001:00014d7c       $LN14                      0000000140015d7c     alAELib_iAE.obj
 0001:00014d9c       $LN13                      0000000140015d9c     alAELib_iAE.obj
 0001:00014de0       ?log_str_2_level@@YA?AW4LogLevel_em@@PEBD@Z 0000000140015de0 f   alAELib_iAE.obj
 0001:00014ee0       ?printf_log@@YAXW4LogLevel_em@@PEBD1H1ZZ 0000000140015ee0 f   alAELib_iAE.obj
 0001:00015170       localtime                  0000000140016170 f   alAELib_iAE.obj
 0001:000151b0       time                       00000001400161b0 f   alAELib_iAE.obj
 0001:00015ba0       ?log_level_2_str@@YAPEADW4LogLevel_em@@@Z 0000000140016ba0 f   table.obj
 0001:00015c5c       $LN14                      0000000140016c5c     table.obj
 0001:00015c7c       $LN13                      0000000140016c7c     table.obj
 0001:00015cc0       ?log_str_2_level@@YA?AW4LogLevel_em@@PEBD@Z 0000000140016cc0 f   table.obj
 0001:000161f0       ?printf_log@@YAXW4LogLevel_em@@PEBD1H1ZZ 00000001400171f0 f   table.obj
 0001:00016630       localtime                  0000000140017630 f   table.obj
 0001:00016670       time                       0000000140017670 f   table.obj
 0001:00018140       ?AeDeinit@@YAHPEAX@Z       0000000140019140 f   IspSoftAeApi.obj
 0001:000181d0       ?AeInit@@YAPEAXPEAXP6AH0I0@Z0@Z 00000001400191d0 f   IspSoftAeApi.obj
 0001:000187c0       ?AeLoadDebugSetting@@YAHPEAX0@Z 00000001400197c0 f   IspSoftAeApi.obj
 0001:00018aa0       ?AeLoadTuningBin@@YAHPEAX0@Z 0000000140019aa0 f   IspSoftAeApi.obj
 0001:00018cf0       ?AeProcess@@YAHPEAXI0@Z    0000000140019cf0 f   IspSoftAeApi.obj
 0001:00018da0       ?AeRun@@YAHPEAXPEAUIspSoftAeInImage@@@Z 0000000140019da0 f   IspSoftAeApi.obj
 0001:0001bc40       ?log_level_2_str@@YAPEADW4LogLevel_em@@@Z 000000014001cc40 f   IspSoftAeApi.obj
 0001:0001bcfc       $LN14                      000000014001ccfc     IspSoftAeApi.obj
 0001:0001bd1c       $LN13                      000000014001cd1c     IspSoftAeApi.obj
 0001:0001bd60       ?log_str_2_level@@YA?AW4LogLevel_em@@PEBD@Z 000000014001cd60 f   IspSoftAeApi.obj
 0001:0001c600       ?printf_log@@YAXW4LogLevel_em@@PEBD1H1ZZ 000000014001d600 f   IspSoftAeApi.obj
 0001:0001c9d0       ?saveFileLog@@YAXXZ        000000014001d9d0 f   IspSoftAeApi.obj
 0001:0001d660       ?updateOutData@@YAXPEAUIspSoftAeOutReady@@PEAUae_output_data_t@@PEAUae_sensorExpoList@@PEAUIspSoftAeOut@@@Z 000000014001e660 f   IspSoftAeApi.obj
 0001:0001dc90       localtime                  000000014001ec90 f   IspSoftAeApi.obj
 0001:0001dcd0       time                       000000014001ecd0 f   IspSoftAeApi.obj
 0001:00034820       ?ArrayUnwindFilter@@YAHPEAU_EXCEPTION_POINTERS@@@Z 0000000140035820 f   MSVCRTD:ehvecdtr.obj
 0001:000349e0       ?find_pe_section@@YAPEAU_IMAGE_SECTION_HEADER@@QEAE_K@Z 00000001400359e0 f   MSVCRTD:utility.obj
 0001:00034ac0       ?is_potentially_valid_image_base@@YA_NQEAX@Z 0000000140035ac0 f   MSVCRTD:utility.obj
 0001:00035310       ?DebuggerProbe@@YA_NK@Z    0000000140036310 f   MSVCRTD:error.obj
 0001:00035350       ?DebuggerRuntime@@YA_NKHPEAXPEB_W@Z 0000000140036350 f   MSVCRTD:error.obj
 0001:00035620       ?_getMemBlockDataString@@YAXPEAD0PEBD_K@Z 0000000140036620 f   MSVCRTD:error.obj
 0001:000356e0       ?_strlen_priv@@YA_KPEBD@Z  00000001400366e0 f   MSVCRTD:error.obj
 0001:00035700       ?failwithmessage@@YAXPEAXHHPEBD@Z 0000000140036700 f   MSVCRTD:error.obj
 0001:00035960       ?notify_debugger@@YAXAEBUtagEXCEPTION_VISUALCPP_DEBUG_INFO@@@Z 0000000140036960 f   MSVCRTD:error.obj
 0001:00035d20       $$000000                   0000000140036d20     MSVCRTD:chkstk.obj
 0001:00035d80       $$000000                   0000000140036d80     MSVCRTD:amdsecgs.obj
 0001:00036100       capture_current_context    0000000140037100 f   MSVCRTD:gs_report.obj
 0001:000361a0       capture_previous_context   00000001400371a0 f   MSVCRTD:gs_report.obj
 0001:00036400       ?pre_c_initialization@@YAHXZ 0000000140037400 f   MSVCRTD:exe_main.obj
 0001:000364c0       ?post_pgo_initialization@@YAHXZ 00000001400374c0 f   MSVCRTD:exe_main.obj
 0001:000364d0       ?pre_cpp_initialization@@YAXXZ 00000001400374d0 f   MSVCRTD:exe_main.obj
 0001:000364f0       ?__scrt_common_main@@YAHXZ 00000001400374f0 f   MSVCRTD:exe_main.obj
 0001:00036510       ?__scrt_common_main_seh@@YAHXZ 0000000140037510 f   MSVCRTD:exe_main.obj
 0001:000366b0       ?invoke_main@@YAHXZ        00000001400376b0 f   MSVCRTD:exe_main.obj
 0001:00036850       __castguard_check_failure_os_handled_wrapper 0000000140037850 f   MSVCRTD:guard_support.obj
 0001:000368b0       __castguard_check_failure_user_handled_wrapper 00000001400378b0 f   MSVCRTD:guard_support.obj
 0001:00036900       __castguard_compat_check   0000000140037900 f   MSVCRTD:guard_support.obj
 0001:00036ae0       __castguard_slow_path_compat_check 0000000140037ae0 f   MSVCRTD:guard_support.obj
 0001:000374b0       ?GetPdbDll@@YAPEAUHINSTANCE__@@XZ 00000001400384b0 f   MSVCRTD:pdblkup.obj
 0001:00037610       ?GetPdbDllFromInstallPath@@YAPEAUHINSTANCE__@@XZ 0000000140038610 f   MSVCRTD:pdblkup.obj
 0001:000378c0       ?GetPdbDllPathFromFilePath@@YAHPEB_WPEA_W_K@Z 00000001400388c0 f   MSVCRTD:pdblkup.obj
 0001:00037d90       __get_entropy              0000000140038d90 f   MSVCRTD:gs_support.obj
 0001:00038420       $$000000                   0000000140039420     MSVCRTD:guard_dispatch.obj
 0001:00038440       $$000000                   0000000140039440     MSVCRTD:guard_xfg_dispatch.obj
 0001:00038460       ?dtor$0@?0???$_Construct@$00PEBD@?$basic_string@DU?$char_traits@D@std@@V?$allocator@D@2@@std@@AEAAXQEBD_K@Z@4HA 0000000140039460 f   alAELibCore.obj
 0001:00038490       ?dtor$0@?0???$_Uninitialized_copy_unchecked@PEAPEAUae_sensorExpoList@@PEAPEAU1@@std@@YAPEAPEAUae_sensorExpoList@@PEAPEAU1@QEAPEAU1@0@Z@4HA 0000000140039490 f   alAELibCore.obj
 0001:000384c0       ?dtor$0@?0???0?$basic_string@DU?$char_traits@D@std@@V?$allocator@D@2@@std@@QEAA@QEBD@Z@4HA 00000001400394c0 f   alAELibCore.obj
 0001:000384f0       ?dtor$0@?0???$use_facet@V?$codecvt@DDU_Mbstatet@@@std@@@std@@YAAEBV?$codecvt@DDU_Mbstatet@@@0@AEBVlocale@0@@Z@4HA 00000001400394f0 f   IspSoftAeApi.obj
 0001:00038520       ?dtor$1@?0???$use_facet@V?$codecvt@DDU_Mbstatet@@@std@@@std@@YAAEBV?$codecvt@DDU_Mbstatet@@@0@AEBVlocale@0@@Z@4HA 0000000140039520 f   IspSoftAeApi.obj
 0001:00038550       ?dtor$0@?0???0?$basic_fstream@DU?$char_traits@D@std@@@std@@QEAA@XZ@4HA 0000000140039550 f   IspSoftAeApi.obj
 0001:000385a0       ?dtor$1@?0???0?$basic_fstream@DU?$char_traits@D@std@@@std@@QEAA@XZ@4HA 00000001400395a0 f   IspSoftAeApi.obj
 0001:000385d0       ?dtor$0@?0???0?$basic_string@DU?$char_traits@D@std@@V?$allocator@D@2@@std@@QEAA@AEBV01@_K1AEBV?$allocator@D@1@@Z@4HA 00000001400395d0 f   IspSoftAeApi.obj
 0001:00038600       ?dtor$0@?0???0?$basic_string@DU?$char_traits@D@std@@V?$allocator@D@2@@std@@QEAA@U_String_constructor_concat_tag@1@AEBV01@QEBD_K23@Z@4HA 0000000140039600 f   IspSoftAeApi.obj
 0001:00038630       ?dtor$1@?0???0?$basic_string@DU?$char_traits@D@std@@V?$allocator@D@2@@std@@QEAA@U_String_constructor_concat_tag@1@AEBV01@QEBD_K23@Z@4HA 0000000140039630 f   IspSoftAeApi.obj
 0001:00038660       ?dtor$0@?0??AeLoadDebugSetting@@YAHPEAX0@Z@4HA 0000000140039660 f   IspSoftAeApi.obj
 0001:00038690       ?dtor$1@?0??AeLoadDebugSetting@@YAHPEAX0@Z@4HA 0000000140039690 f   IspSoftAeApi.obj
 0001:000386c0       ?dtor$0@?0??AeLoadTuningBin@@YAHPEAX0@Z@4HA 00000001400396c0 f   IspSoftAeApi.obj
 0001:000386f0       ?dtor$1@?0??AeLoadTuningBin@@YAHPEAX0@Z@4HA 00000001400396f0 f   IspSoftAeApi.obj
 0001:00038720       ?dtor$3@?0??AeLoadTuningBin@@YAHPEAX0@Z@4HA 0000000140039720 f   IspSoftAeApi.obj
 0001:00038750       ?dtor$0@?0??GetCurrMoudle@@YA?AV?$basic_string@DU?$char_traits@D@std@@V?$allocator@D@2@@std@@XZ@4HA 0000000140039750 f   IspSoftAeApi.obj
 0001:00038780       ?dtor$2@?0??GetCurrMoudle@@YA?AV?$basic_string@DU?$char_traits@D@std@@V?$allocator@D@2@@std@@XZ@4HA 0000000140039780 f   IspSoftAeApi.obj
 0001:000387c0       ?dtor$3@?0??GetCurrMoudle@@YA?AV?$basic_string@DU?$char_traits@D@std@@V?$allocator@D@2@@std@@XZ@4HA 00000001400397c0 f   IspSoftAeApi.obj
 0001:000387f0       ?dtor$0@?0??open@?$basic_filebuf@DU?$char_traits@D@std@@@std@@QEAAPEAV12@PEBDHH@Z@4HA 00000001400397f0 f   IspSoftAeApi.obj
 0001:00038820       ?dtor$0@?0??uflow@?$basic_filebuf@DU?$char_traits@D@std@@@std@@MEAAHXZ@4HA 0000000140039820 f   IspSoftAeApi.obj
 0001:00038850       ?dtor$0@?0???$?0AEAPEAV_CancellationTokenState@details@Concurrency@@AEAUscheduler_ptr@2@@?$_Ref_count_obj2@U?$_Task_impl@E@details@Concurrency@@@std@@QEAA@AEAPEAV_CancellationTokenState@details@Concurrency@@AEAUscheduler_ptr@4@@Z@4HA 0000000140039850 f   test.obj
 0001:00038880       ?dtor$0@?0???$?0AEBV<lambda_1>@?1???$?0V?$_Fake_no_copy_callable_adapter@AEAP6AHPEAXI0@ZAEAPEAXW4IspSoftAeProcessType@@PEAUIspSoftAeInImage@@@std@@@?$_Task_async_state@H@std@@QEAA@$$QEAV?$_Fake_no_copy_callable_adapter@AEAP6AHPEAXI0@ZAEAPEAXW4IspSoftAeProcessType@@PEAUIspSoftAeInImage@@@2@@Z@$0A@@?$function@$$A6AXXZ@std@@QEAA@AEBV<lambda_1>@?1???$?0V?$_Fake_no_copy_callable_adapter@AEAP6AHPEAXI0@ZAEAPEAXW4IspSoftAeProcessType@@PEAUIspSoftAeInImage@@@std@@@?$_Task_async_state@H@1@QEAA@$$QEAV?$_Fake_no_copy_callable_adapter@AEAP6AHPEAXI0@ZAEAPEAXW4IspSoftAeProcessType@@PEAUIspSoftAeInImage@@@1@@Z@@Z@4HA 0000000140039880 f   test.obj
 0001:000388b0       ?dtor$0@?0???$?0AEBVexception_ptr@std@@V_TaskCreationCallstack@details@Concurrency@@@?$_Ref_count_obj2@U_ExceptionHolder@details@Concurrency@@@std@@QEAA@AEBVexception_ptr@1@$$QEAV_TaskCreationCallstack@details@Concurrency@@@Z@4HA 00000001400398b0 f   test.obj
 0001:000388e0       ?dtor$0@?0???$?0V<lambda_1>@?1???$?0V?$_Fake_no_copy_callable_adapter@AEAP6AHPEAXI0@ZAEAPEAXW4IspSoftAeProcessType@@PEAUIspSoftAeInImage@@@std@@@?$_Task_async_state@H@std@@QEAA@$$QEAV?$_Fake_no_copy_callable_adapter@AEAP6AHPEAXI0@ZAEAPEAXW4IspSoftAeProcessType@@PEAUIspSoftAeInImage@@@2@@Z@@?$task@X@Concurrency@@QEAA@V<lambda_1>@?1???$?0V?$_Fake_no_copy_callable_adapter@AEAP6AHPEAXI0@ZAEAPEAXW4IspSoftAeProcessType@@PEAUIspSoftAeInImage@@@std@@@?$_Task_async_state@H@std@@QEAA@$$QEAV?$_Fake_no_copy_callable_adapter@AEAP6AHPEAXI0@ZAEAPEAXW4IspSoftAeProcessType@@PEAUIspSoftAeInImage@@@4@@Z@AEBVtask_options@1@@Z@4HA 00000001400398e0 f   test.obj
 0001:00038910       ?dtor$1@?0???$?0V<lambda_1>@?1???$?0V?$_Fake_no_copy_callable_adapter@AEAP6AHPEAXI0@ZAEAPEAXW4IspSoftAeProcessType@@PEAUIspSoftAeInImage@@@std@@@?$_Task_async_state@H@std@@QEAA@$$QEAV?$_Fake_no_copy_callable_adapter@AEAP6AHPEAXI0@ZAEAPEAXW4IspSoftAeProcessType@@PEAUIspSoftAeInImage@@@2@@Z@@?$task@X@Concurrency@@QEAA@V<lambda_1>@?1???$?0V?$_Fake_no_copy_callable_adapter@AEAP6AHPEAXI0@ZAEAPEAXW4IspSoftAeProcessType@@PEAUIspSoftAeInImage@@@std@@@?$_Task_async_state@H@std@@QEAA@$$QEAV?$_Fake_no_copy_callable_adapter@AEAP6AHPEAXI0@ZAEAPEAXW4IspSoftAeProcessType@@PEAUIspSoftAeInImage@@@4@@Z@AEBVtask_options@1@@Z@4HA 0000000140039910 f   test.obj
 0001:00038940       ?dtor$2@?0???$?0V<lambda_1>@?1???$?0V?$_Fake_no_copy_callable_adapter@AEAP6AHPEAXI0@ZAEAPEAXW4IspSoftAeProcessType@@PEAUIspSoftAeInImage@@@std@@@?$_Task_async_state@H@std@@QEAA@$$QEAV?$_Fake_no_copy_callable_adapter@AEAP6AHPEAXI0@ZAEAPEAXW4IspSoftAeProcessType@@PEAUIspSoftAeInImage@@@2@@Z@@?$task@X@Concurrency@@QEAA@V<lambda_1>@?1???$?0V?$_Fake_no_copy_callable_adapter@AEAP6AHPEAXI0@ZAEAPEAXW4IspSoftAeProcessType@@PEAUIspSoftAeInImage@@@std@@@?$_Task_async_state@H@std@@QEAA@$$QEAV?$_Fake_no_copy_callable_adapter@AEAP6AHPEAXI0@ZAEAPEAXW4IspSoftAeProcessType@@PEAUIspSoftAeInImage@@@4@@Z@AEBVtask_options@1@@Z@4HA 0000000140039940 f   test.obj
 0001:00038970       ?dtor$3@?0???$?0V<lambda_1>@?1???$?0V?$_Fake_no_copy_callable_adapter@AEAP6AHPEAXI0@ZAEAPEAXW4IspSoftAeProcessType@@PEAUIspSoftAeInImage@@@std@@@?$_Task_async_state@H@std@@QEAA@$$QEAV?$_Fake_no_copy_callable_adapter@AEAP6AHPEAXI0@ZAEAPEAXW4IspSoftAeProcessType@@PEAUIspSoftAeInImage@@@2@@Z@@?$task@X@Concurrency@@QEAA@V<lambda_1>@?1???$?0V?$_Fake_no_copy_callable_adapter@AEAP6AHPEAXI0@ZAEAPEAXW4IspSoftAeProcessType@@PEAUIspSoftAeInImage@@@std@@@?$_Task_async_state@H@std@@QEAA@$$QEAV?$_Fake_no_copy_callable_adapter@AEAP6AHPEAXI0@ZAEAPEAXW4IspSoftAeProcessType@@PEAUIspSoftAeInImage@@@4@@Z@AEBVtask_options@1@@Z@4HA 0000000140039970 f   test.obj
 0001:000389b0       ?dtor$4@?0???$?0V<lambda_1>@?1???$?0V?$_Fake_no_copy_callable_adapter@AEAP6AHPEAXI0@ZAEAPEAXW4IspSoftAeProcessType@@PEAUIspSoftAeInImage@@@std@@@?$_Task_async_state@H@std@@QEAA@$$QEAV?$_Fake_no_copy_callable_adapter@AEAP6AHPEAXI0@ZAEAPEAXW4IspSoftAeProcessType@@PEAUIspSoftAeInImage@@@2@@Z@@?$task@X@Concurrency@@QEAA@V<lambda_1>@?1???$?0V?$_Fake_no_copy_callable_adapter@AEAP6AHPEAXI0@ZAEAPEAXW4IspSoftAeProcessType@@PEAUIspSoftAeInImage@@@std@@@?$_Task_async_state@H@std@@QEAA@$$QEAV?$_Fake_no_copy_callable_adapter@AEAP6AHPEAXI0@ZAEAPEAXW4IspSoftAeProcessType@@PEAUIspSoftAeInImage@@@4@@Z@AEBVtask_options@1@@Z@4HA 00000001400399b0 f   test.obj
 0001:000389f0       ?dtor$0@?0???$?0V<lambda_1>@?1??_MakeVoidToUnitFunc@details@Concurrency@@YA?AV?$function@$$A6AEXZ@std@@AEBV?$function@$$A6AXXZ@5@@Z@$0A@@?$function@$$A6AEXZ@std@@QEAA@$$QEAV<lambda_1>@?1??_MakeVoidToUnitFunc@details@Concurrency@@YA?AV01@AEBV?$function@$$A6AXXZ@1@@Z@@Z@4HA 00000001400399f0 f   test.obj
 0001:00038a20       ?dtor$0@?0???$?0V<lambda_1>@?4??_ScheduleContinuationTask@_Task_impl_base@details@Concurrency@@QEAAXPEAU_ContinuationTaskHandleBase@34@@Z@$0A@@?$function@$$A6AXXZ@std@@QEAA@$$QEAV<lambda_1>@?4??_ScheduleContinuationTask@_Task_impl_base@details@Concurrency@@QEAAXPEAU_ContinuationTaskHandleBase@56@@Z@@Z@4HA 0000000140039a20 f   test.obj
 0001:00038a50       ?dtor$0@?0???$?0V<lambda_1>@?7???R0?4??_ScheduleContinuationTask@_Task_impl_base@details@Concurrency@@QEAAXPEAU_ContinuationTaskHandleBase@34@@Z@QEBA@XZ@$0A@@?$function@$$A6AXXZ@std@@QEAA@$$QEAV<lambda_1>@?7???R2?4??_ScheduleContinuationTask@_Task_impl_base@details@Concurrency@@QEAAXPEAU_ContinuationTaskHandleBase@56@@Z@QEBA@XZ@@Z@4HA 0000000140039a50 f   test.obj
 0001:00038a80       ?dtor$0@?0???$?0V<lambda_1>@?CC@??_CancelAndRunContinuations@?$_Task_impl@E@details@Concurrency@@UEAA_N_N00AEBV?$shared_ptr@U_ExceptionHolder@details@Concurrency@@@std@@@Z@$0A@@?$function@$$A6AXXZ@std@@QEAA@$$QEAV<lambda_1>@?CC@??_CancelAndRunContinuations@?$_Task_impl@E@details@Concurrency@@UEAA_N_N00AEBV?$shared_ptr@U_ExceptionHolder@details@Concurrency@@@1@@Z@@Z@4HA 0000000140039a80 f   test.obj
 0001:00038ab0       ?dtor$0@?0???$?0V?$_Fake_no_copy_callable_adapter@AEAP6AHPEAXI0@ZAEAPEAXW4IspSoftAeProcessType@@PEAUIspSoftAeInImage@@@std@@$0A@@?$function@$$A6AHXZ@std@@QEAA@$$QEAV?$_Fake_no_copy_callable_adapter@AEAP6AHPEAXI0@ZAEAPEAXW4IspSoftAeProcessType@@PEAUIspSoftAeInImage@@@1@@Z@4HA 0000000140039ab0 f   test.obj
 0001:00038ae0       ?dtor$0@?0???$?0V?$_Fake_no_copy_callable_adapter@AEAP6AHPEAXI0@ZAEAPEAXW4IspSoftAeProcessType@@PEAUIspSoftAeInImage@@@std@@@?$_Packaged_state@$$A6AHXZ@std@@QEAA@$$QEAV?$_Fake_no_copy_callable_adapter@AEAP6AHPEAXI0@ZAEAPEAXW4IspSoftAeProcessType@@PEAUIspSoftAeInImage@@@1@@Z@4HA 0000000140039ae0 f   test.obj
 0001:00038b10       ?dtor$0@?0???$?0V?$_Fake_no_copy_callable_adapter@AEAP6AHPEAXI0@ZAEAPEAXW4IspSoftAeProcessType@@PEAUIspSoftAeInImage@@@std@@@?$_Task_async_state@H@std@@QEAA@$$QEAV?$_Fake_no_copy_callable_adapter@AEAP6AHPEAXI0@ZAEAPEAXW4IspSoftAeProcessType@@PEAUIspSoftAeInImage@@@1@@Z@4HA 0000000140039b10 f   test.obj
 0001:00038b40       ?dtor$1@?0???$?0V?$_Fake_no_copy_callable_adapter@AEAP6AHPEAXI0@ZAEAPEAXW4IspSoftAeProcessType@@PEAUIspSoftAeInImage@@@std@@@?$_Task_async_state@H@std@@QEAA@$$QEAV?$_Fake_no_copy_callable_adapter@AEAP6AHPEAXI0@ZAEAPEAXW4IspSoftAeProcessType@@PEAUIspSoftAeInImage@@@1@@Z@4HA 0000000140039b40 f   test.obj
 0001:00038b70       ?dtor$0@?0???$_Construct_n@AEBQEAPEAXAEBQEAPEAX@?$vector@PEAXV?$allocator@PEAX@std@@@std@@AEAAX_KAEBQEAPEAX1@Z@4HA 0000000140039b70 f   test.obj
 0001:00038ba0       ?dtor$1@?0???$_Construct_n@AEBQEAPEAXAEBQEAPEAX@?$vector@PEAXV?$allocator@PEAX@std@@@std@@AEAAX_KAEBQEAPEAX1@Z@4HA 0000000140039ba0 f   test.obj
 0001:00038bd0       ?dtor$0@?0???$_Get_associated_state@HV?$_Fake_no_copy_callable_adapter@AEAP6AHPEAXI0@ZAEAPEAXW4IspSoftAeProcessType@@PEAUIspSoftAeInImage@@@std@@@std@@YAPEAV?$_Associated_state@H@0@W4launch@0@$$QEAV?$_Fake_no_copy_callable_adapter@AEAP6AHPEAXI0@ZAEAPEAXW4IspSoftAeProcessType@@PEAUIspSoftAeInImage@@@0@@Z@4HA 0000000140039bd0 f   test.obj
 0001:00038c00       ?dtor$1@?0???$_Get_associated_state@HV?$_Fake_no_copy_callable_adapter@AEAP6AHPEAXI0@ZAEAPEAXW4IspSoftAeProcessType@@PEAUIspSoftAeInImage@@@std@@@std@@YAPEAV?$_Associated_state@H@0@W4launch@0@$$QEAV?$_Fake_no_copy_callable_adapter@AEAP6AHPEAXI0@ZAEAPEAXW4IspSoftAeProcessType@@PEAUIspSoftAeInImage@@@0@@Z@4HA 0000000140039c00 f   test.obj
 0001:00038c30       ?dtor$0@?0???$_Global_new@V?$_Func_impl_no_alloc@V<lambda_1>@?1??_MakeVoidToUnitFunc@details@Concurrency@@YA?AV?$function@$$A6AEXZ@std@@AEBV?$function@$$A6AXXZ@6@@Z@E$$V@std@@AEBV<lambda_1>@?1??_MakeVoidToUnitFunc@details@Concurrency@@YA?AV?$function@$$A6AEXZ@2@AEBV?$function@$$A6AXXZ@2@@Z@@std@@YAPEAV?$_Func_impl_no_alloc@V<lambda_1>@?1??_MakeVoidToUnitFunc@details@Concurrency@@YA?AV?$function@$$A6AEXZ@std@@AEBV?$function@$$A6AXXZ@6@@Z@E$$V@0@AEBV<lambda_1>@?1??_MakeVoidToUnitFunc@details@Concurrency@@YA?AV?$function@$$A6AEXZ@0@AEBV?$function@$$A6AXXZ@0@@Z@@Z@4HA 0000000140039c30 f   test.obj
 0001:00038c60       ?dtor$0@?0???$_Global_new@V?$_Func_impl_no_alloc@V<lambda_1>@?1??_MakeVoidToUnitFunc@details@Concurrency@@YA?AV?$function@$$A6AEXZ@std@@AEBV?$function@$$A6AXXZ@6@@Z@E$$V@std@@V<lambda_1>@?1??_MakeVoidToUnitFunc@details@Concurrency@@YA?AV?$function@$$A6AEXZ@2@AEBV?$function@$$A6AXXZ@2@@Z@@std@@YAPEAV?$_Func_impl_no_alloc@V<lambda_1>@?1??_MakeVoidToUnitFunc@details@Concurrency@@YA?AV?$function@$$A6AEXZ@std@@AEBV?$function@$$A6AXXZ@6@@Z@E$$V@0@$$QEAV<lambda_1>@?1??_MakeVoidToUnitFunc@details@Concurrency@@YA?AV?$function@$$A6AEXZ@0@AEBV?$function@$$A6AXXZ@0@@Z@@Z@4HA 0000000140039c60 f   test.obj
 0001:00038c90       ?dtor$0@?0???$_LogWorkItemAndInvokeUserLambda@V?$function@$$A6AEXZ@std@@@?$_InitialTaskHandle@XV<lambda_1>@?1???$?0V?$_Fake_no_copy_callable_adapter@AEAP6AHPEAXI0@ZAEAPEAXW4IspSoftAeProcessType@@PEAUIspSoftAeInImage@@@std@@@?$_Task_async_state@H@std@@QEAA@$$QEAV?$_Fake_no_copy_callable_adapter@AEAP6AHPEAXI0@ZAEAPEAXW4IspSoftAeProcessType@@PEAUIspSoftAeInImage@@@3@@Z@U_TypeSelectorNoAsync@details@Concurrency@@@?$task@E@Concurrency@@QEBAEV?$function@$$A6AEXZ@std@@@Z@4HA 0000000140039c90 f   test.obj
 0001:00038cc0       ?dtor$1@?0???$_LogWorkItemAndInvokeUserLambda@V?$function@$$A6AEXZ@std@@@?$_InitialTaskHandle@XV<lambda_1>@?1???$?0V?$_Fake_no_copy_callable_adapter@AEAP6AHPEAXI0@ZAEAPEAXW4IspSoftAeProcessType@@PEAUIspSoftAeInImage@@@std@@@?$_Task_async_state@H@std@@QEAA@$$QEAV?$_Fake_no_copy_callable_adapter@AEAP6AHPEAXI0@ZAEAPEAXW4IspSoftAeProcessType@@PEAUIspSoftAeInImage@@@3@@Z@U_TypeSelectorNoAsync@details@Concurrency@@@?$task@E@Concurrency@@QEBAEV?$function@$$A6AEXZ@std@@@Z@4HA 0000000140039cc0 f   test.obj
 0001:00038cf0       ?catch$0@?0???$_Resize_reallocate@U_Value_init_tag@std@@@?$vector@PEAXV?$allocator@PEAX@std@@@std@@AEAAX_KAEBU_Value_init_tag@1@@Z@4HA 0000000140039cf0 f   test.obj
 0001:00038d04       __catch$??$_Resize_reallocate@U_Value_init_tag@std@@@?$vector@PEAXV?$allocator@PEAX@std@@@std@@AEAAX_KAEBU_Value_init_tag@1@@Z$0 0000000140039d04 f   test.obj
 0001:00038d50       ?dtor$0@?0???$_TaskInitWithFunctor@XV<lambda_1>@?1???$?0V?$_Fake_no_copy_callable_adapter@AEAP6AHPEAXI0@ZAEAPEAXW4IspSoftAeProcessType@@PEAUIspSoftAeInImage@@@std@@@?$_Task_async_state@H@std@@QEAA@$$QEAV?$_Fake_no_copy_callable_adapter@AEAP6AHPEAXI0@ZAEAPEAXW4IspSoftAeProcessType@@PEAUIspSoftAeInImage@@@3@@Z@@?$task@E@Concurrency@@AEAAXAEBV<lambda_1>@?1???$?0V?$_Fake_no_copy_callable_adapter@AEAP6AHPEAXI0@ZAEAPEAXW4IspSoftAeProcessType@@PEAUIspSoftAeInImage@@@std@@@?$_Task_async_state@H@std@@QEAA@$$QEAV?$_Fake_no_copy_callable_adapter@AEAP6AHPEAXI0@ZAEAPEAXW4IspSoftAeProcessType@@PEAUIspSoftAeInImage@@@4@@Z@@Z@4HA 0000000140039d50 f   test.obj
 0001:00038d80       ?dtor$0@?0???$_Uninitialized_copy@PEAPEAXPEAPEAXV?$allocator@PEAX@std@@@std@@YAPEAPEAXPEAPEAX00AEAV?$allocator@PEAX@0@@Z@4HA 0000000140039d80 f   test.obj
 0001:00038db0       ?dtor$0@?0???$_Uninitialized_copy_n@PEAPEAXV?$allocator@PEAX@std@@@std@@YAPEAPEAXPEAPEAX_K0AEAV?$allocator@PEAX@0@@Z@4HA 0000000140039db0 f   test.obj
 0001:00038de0       ?dtor$0@?0???$_Uninitialized_copy_unchecked@PEAPEAUIspFrameData@@PEAPEAU1@@std@@YAPEAPEAUIspFrameData@@PEAPEAU1@QEAPEAU1@0@Z@4HA 0000000140039de0 f   test.obj
 0001:00038e10       ?dtor$0@?0???$_Uninitialized_move@PEAPEAXV?$allocator@PEAX@std@@@std@@YAPEAPEAXQEAPEAX0PEAPEAXAEAV?$allocator@PEAX@0@@Z@4HA 0000000140039e10 f   test.obj
 0001:00038e40       ?dtor$0@?0???$_Uninitialized_value_construct_n@V?$allocator@PEAX@std@@@std@@YAPEAPEAXPEAPEAX_KAEAV?$allocator@PEAX@0@@Z@4HA 0000000140039e40 f   test.obj
 0001:00038e70       ?dtor$0@?0???$async@AEAP6AHPEAXI0@ZAEAPEAXW4IspSoftAeProcessType@@PEAUIspSoftAeInImage@@@std@@YA?AV?$future@H@0@W4launch@0@AEAP6AHPEAXI1@ZAEAPEAX$$QEAW4IspSoftAeProcessType@@$$QEAPEAUIspSoftAeInImage@@@Z@4HA 0000000140039e70 f   test.obj
 0001:00038ea0       ?dtor$0@?0???$call_once@V<lambda_1>@?1??_GetStaticAmbientSchedulerRef@details@Concurrency@@YAAEAV?$shared_ptr@Uscheduler_interface@Concurrency@@@std@@XZ@$$V@std@@YAXAEAUonce_flag@0@$$QEAV<lambda_1>@?1??_GetStaticAmbientSchedulerRef@details@Concurrency@@YAAEAV?$shared_ptr@Uscheduler_interface@Concurrency@@@0@XZ@@Z@4HA 0000000140039ea0 f   test.obj
 0001:00038ed0       ?dtor$0@?0???$create_task@V<lambda_1>@?1???$?0V?$_Fake_no_copy_callable_adapter@AEAP6AHPEAXI0@ZAEAPEAXW4IspSoftAeProcessType@@PEAUIspSoftAeInImage@@@std@@@?$_Task_async_state@H@std@@QEAA@$$QEAV?$_Fake_no_copy_callable_adapter@AEAP6AHPEAXI0@ZAEAPEAXW4IspSoftAeProcessType@@PEAUIspSoftAeInImage@@@3@@Z@@Concurrency@@YA?AV?$task@X@0@V<lambda_1>@?1???$?0V?$_Fake_no_copy_callable_adapter@AEAP6AHPEAXI0@ZAEAPEAXW4IspSoftAeProcessType@@PEAUIspSoftAeInImage@@@std@@@?$_Task_async_state@H@std@@QEAA@$$QEAV?$_Fake_no_copy_callable_adapter@AEAP6AHPEAXI0@ZAEAPEAXW4IspSoftAeProcessType@@PEAUIspSoftAeInImage@@@4@@Z@Vtask_options@0@@Z@4HA 0000000140039ed0 f   test.obj
 0001:00038f00       ?dtor$1@?0???$create_task@V<lambda_1>@?1???$?0V?$_Fake_no_copy_callable_adapter@AEAP6AHPEAXI0@ZAEAPEAXW4IspSoftAeProcessType@@PEAUIspSoftAeInImage@@@std@@@?$_Task_async_state@H@std@@QEAA@$$QEAV?$_Fake_no_copy_callable_adapter@AEAP6AHPEAXI0@ZAEAPEAXW4IspSoftAeProcessType@@PEAUIspSoftAeInImage@@@3@@Z@@Concurrency@@YA?AV?$task@X@0@V<lambda_1>@?1???$?0V?$_Fake_no_copy_callable_adapter@AEAP6AHPEAXI0@ZAEAPEAXW4IspSoftAeProcessType@@PEAUIspSoftAeInImage@@@std@@@?$_Task_async_state@H@std@@QEAA@$$QEAV?$_Fake_no_copy_callable_adapter@AEAP6AHPEAXI0@ZAEAPEAXW4IspSoftAeProcessType@@PEAUIspSoftAeInImage@@@4@@Z@Vtask_options@0@@Z@4HA 0000000140039f00 f   test.obj
 0001:00038f30       ?dtor$0@?0???$make_shared@U?$_Task_impl@E@details@Concurrency@@AEAPEAV_CancellationTokenState@23@AEAUscheduler_ptr@3@@std@@YA?AV?$shared_ptr@U?$_Task_impl@E@details@Concurrency@@@0@AEAPEAV_CancellationTokenState@details@Concurrency@@AEAUscheduler_ptr@4@@Z@4HA 0000000140039f30 f   test.obj
 0001:00038f60       ?dtor$0@?0???$make_shared@U_ExceptionHolder@details@Concurrency@@AEBVexception_ptr@std@@V_TaskCreationCallstack@23@@std@@YA?AV?$shared_ptr@U_ExceptionHolder@details@Concurrency@@@0@AEBVexception_ptr@0@$$QEAV_TaskCreationCallstack@details@Concurrency@@@Z@4HA 0000000140039f60 f   test.obj
 0001:00038f90       ?dtor$0@?0???0?$_Task_impl@E@details@Concurrency@@QEAA@PEAV_CancellationTokenState@12@Uscheduler_ptr@2@@Z@4HA 0000000140039f90 f   test.obj
 0001:00038fc0       ?dtor$0@?0???0?$basic_ifstream@DU?$char_traits@D@std@@@std@@QEAA@XZ@4HA 0000000140039fc0 f   test.obj
 0001:00039010       ?dtor$1@?0???0?$basic_ifstream@DU?$char_traits@D@std@@@std@@QEAA@XZ@4HA 000000014003a010 f   test.obj
 0001:00039040       ?dtor$0@?0???0?$function@$$A6AXXZ@std@@QEAA@AEBV01@@Z@4HA 000000014003a040 f   test.obj
 0001:00039070       ?dtor$0@?0???0_ExceptionHolder@details@Concurrency@@QEAA@AEBVexception_ptr@std@@AEBV_TaskCreationCallstack@12@@Z@4HA 000000014003a070 f   test.obj
 0001:000390a0       ?dtor$0@?0???0_System_error@std@@IEAA@Verror_code@1@@Z@4HA 000000014003a0a0 f   test.obj
 0001:000390d0       ?dtor$0@?0???0_Task_impl_base@details@Concurrency@@QEAA@PEAV_CancellationTokenState@12@Uscheduler_ptr@2@@Z@4HA 000000014003a0d0 f   test.obj
 0001:00039100       ?dtor$1@?0???0_Task_impl_base@details@Concurrency@@QEAA@PEAV_CancellationTokenState@12@Uscheduler_ptr@2@@Z@4HA 000000014003a100 f   test.obj
 0001:00039130       ?dtor$2@?0???0_Task_impl_base@details@Concurrency@@QEAA@PEAV_CancellationTokenState@12@Uscheduler_ptr@2@@Z@4HA 000000014003a130 f   test.obj
 0001:00039160       ?dtor$4@?0???0_Task_impl_base@details@Concurrency@@QEAA@PEAV_CancellationTokenState@12@Uscheduler_ptr@2@@Z@4HA 000000014003a160 f   test.obj
 0001:00039190       ?dtor$5@?0???0_Task_impl_base@details@Concurrency@@QEAA@PEAV_CancellationTokenState@12@Uscheduler_ptr@2@@Z@4HA 000000014003a190 f   test.obj
 0001:000391c0       ?dtor$1@?0???0task_options@Concurrency@@QEAA@XZ@4HA 000000014003a1c0 f   test.obj
 0001:000391f0       ?dtor$2@?0???0task_options@Concurrency@@QEAA@XZ@4HA 000000014003a1f0 f   test.obj
 0001:00039220       ?dtor$3@?0???0task_options@Concurrency@@QEAA@XZ@4HA 000000014003a220 f   test.obj
 0001:00039250       ?dtor$0@?0???R<lambda_1>@?1??_RegisterCancellation@_Task_impl_base@details@Concurrency@@QEAAXV?$weak_ptr@U_Task_impl_base@details@Concurrency@@@std@@@Z@QEBA@XZ@4HA 000000014003a250 f   test.obj
 0001:00039280       ?dtor$0@?0???R<lambda_1>@?4??_ScheduleContinuationTask@_Task_impl_base@details@Concurrency@@QEAAXPEAU_ContinuationTaskHandleBase@34@@Z@QEBA@XZ@4HA 000000014003a280 f   test.obj
 0001:000392b0       ?dtor$1@?0???R<lambda_1>@?4??_ScheduleContinuationTask@_Task_impl_base@details@Concurrency@@QEAAXPEAU_ContinuationTaskHandleBase@34@@Z@QEBA@XZ@4HA 000000014003a2b0 f   test.obj
 0001:000392e0       ?dtor$2@?0???R<lambda_1>@?4??_ScheduleContinuationTask@_Task_impl_base@details@Concurrency@@QEAAXPEAU_ContinuationTaskHandleBase@34@@Z@QEBA@XZ@4HA 000000014003a2e0 f   test.obj
 0001:00039310       ?dtor$4@?0???R<lambda_1>@?4??_ScheduleContinuationTask@_Task_impl_base@details@Concurrency@@QEAAXPEAU_ContinuationTaskHandleBase@34@@Z@QEBA@XZ@4HA 000000014003a310 f   test.obj
 0001:00039340       ?catch$5@?0???R<lambda_1>@?4??_ScheduleContinuationTask@_Task_impl_base@details@Concurrency@@QEAAXPEAU_ContinuationTaskHandleBase@34@@Z@QEBA@XZ@4HA 000000014003a340 f   test.obj
 0001:00039354       __catch$??R<lambda_1>@?4??_ScheduleContinuationTask@_Task_impl_base@details@Concurrency@@QEAAXPEAU_ContinuationTaskHandleBase@34@@Z@QEBA@XZ$0 000000014003a354 f   test.obj
 0001:000393b0       ?dtor$0@?0??_Bridge@_TaskProcThunk@details@Concurrency@@SAXPEAX@Z@4HA 000000014003a3b0 f   test.obj
 0001:000393e0       ?dtor$0@?0??_CallInContext@_ContextCallback@details@Concurrency@@QEBAXV?$function@$$A6AXXZ@std@@@Z@4HA 000000014003a3e0 f   test.obj
 0001:00039410       ?catch$1@?0??_Call_immediate@?$_Packaged_state@$$A6AHXZ@std@@QEAAXXZ@4HA 000000014003a410 f   test.obj
 0001:00039424       __catch$?_Call_immediate@?$_Packaged_state@$$A6AHXZ@std@@QEAAXXZ$0 000000014003a424 f   test.obj
 0001:00039470       ?dtor$1@?0??_Callback@_PPLTaskChore@_DefaultPPLTaskScheduler@details@Concurrency@@CAXPEAX@Z@4HA 000000014003a470 f   test.obj
 0001:000394a0       ?dtor$0@?0??_CancelAndRunContinuations@?$_Task_impl@E@details@Concurrency@@UEAA_N_N00AEBV?$shared_ptr@U_ExceptionHolder@details@Concurrency@@@std@@@Z@4HA 000000014003a4a0 f   test.obj
 0001:000394d0       ?dtor$1@?0??_CancelAndRunContinuations@?$_Task_impl@E@details@Concurrency@@UEAA_N_N00AEBV?$shared_ptr@U_ExceptionHolder@details@Concurrency@@@std@@@Z@4HA 000000014003a4d0 f   test.obj
 0001:00039500       ?dtor$0@?0??_CancelWithException@_Task_impl_base@details@Concurrency@@QEAA_NAEBVexception_ptr@std@@@Z@4HA 000000014003a500 f   test.obj
 0001:00039530       ?dtor$1@?0??_CancelWithException@_Task_impl_base@details@Concurrency@@QEAA_NAEBVexception_ptr@std@@@Z@4HA 000000014003a530 f   test.obj
 0001:00039560       ?dtor$0@?0??_CaptureCurrent@_ContextCallback@details@Concurrency@@SA?AV123@XZ@4HA 000000014003a560 f   test.obj
 0001:000395a0       ?dtor$0@?0??_CaptureMultiFramesCallstack@_TaskCreationCallstack@details@Concurrency@@SA?AV123@PEAX_K@Z@4HA 000000014003a5a0 f   test.obj
 0001:000395e0       ?dtor$0@?0??_CreateImpl@?$task@E@Concurrency@@QEAAXPEAV_CancellationTokenState@details@2@Uscheduler_ptr@2@@Z@4HA 000000014003a5e0 f   test.obj
 0001:00039610       ?dtor$0@?0??_DeregisterCallback@_CancellationTokenState@details@Concurrency@@QEAAXPEAV_CancellationTokenRegistration@23@@Z@4HA 000000014003a610 f   test.obj
 0001:00039640       ?dtor$1@?0??_DeregisterCallback@_CancellationTokenState@details@Concurrency@@QEAAXPEAV_CancellationTokenRegistration@23@@Z@4HA 000000014003a640 f   test.obj
 0001:00039670       ?dtor$0@?0??_FinalizeAndRunContinuations@?$_Task_impl@E@details@Concurrency@@QEAAXE@Z@4HA 000000014003a670 f   test.obj
 0001:000396a0       ?dtor$0@?0??_Get_value@?$_Associated_state@H@std@@UEAAAEAH_N@Z@4HA 000000014003a6a0 f   test.obj
 0001:000396d0       ?dtor$0@?0??_Make@?$_Task_ptr@E@details@Concurrency@@SA?AV?$shared_ptr@U?$_Task_impl@E@details@Concurrency@@@std@@PEAV_CancellationTokenState@23@Uscheduler_ptr@3@@Z@4HA 000000014003a6d0 f   test.obj
 0001:00039700       ?dtor$0@?0??_MakeVoidToUnitFunc@details@Concurrency@@YA?AV?$function@$$A6AEXZ@std@@AEBV?$function@$$A6AXXZ@4@@Z@4HA 000000014003a700 f   test.obj
 0001:00039730       ?dtor$0@?0??_Orphan_range_locked@?$vector@PEAXV?$allocator@PEAX@std@@@std@@AEBAXPEAPEAX0@Z@4HA 000000014003a730 f   test.obj
 0001:00039760       ?dtor$0@?0??_Perform@?$_Init_func_transformer@X@Concurrency@@SA?AV?$function@$$A6AEXZ@std@@V?$function@$$A6AXXZ@4@@Z@4HA 000000014003a760 f   test.obj
 0001:00039790       ?dtor$0@?0??_RegisterCallback@_CancellationTokenState@details@Concurrency@@QEAAXPEAV_CancellationTokenRegistration@23@@Z@4HA 000000014003a790 f   test.obj
 0001:000397c0       ?dtor$0@?0??_RegisterCancellation@_Task_impl_base@details@Concurrency@@QEAAXV?$weak_ptr@U_Task_impl_base@details@Concurrency@@@std@@@Z@4HA 000000014003a7c0 f   test.obj
 0001:000397f0       ?dtor$1@?0??_RegisterCancellation@_Task_impl_base@details@Concurrency@@QEAAXV?$weak_ptr@U_Task_impl_base@details@Concurrency@@@std@@@Z@4HA 000000014003a7f0 f   test.obj
 0001:00039820       ?dtor$2@?0??_RegisterCancellation@_Task_impl_base@details@Concurrency@@QEAAXV?$weak_ptr@U_Task_impl_base@details@Concurrency@@@std@@@Z@4HA 000000014003a820 f   test.obj
 0001:00039850       ?dtor$0@?0??_RunChoreBridge@_TaskProcHandle@details@Concurrency@@SAXPEAX@Z@4HA 000000014003a850 f   test.obj
 0001:00039880       ?dtor$0@?0??_RunContinuation@_Task_impl_base@details@Concurrency@@QEAAXPEAU_ContinuationTaskHandleBase@23@@Z@4HA 000000014003a880 f   test.obj
 0001:000398b0       ?dtor$0@?0??_RunTask@_TaskCollectionBaseImpl@details@Concurrency@@SAXP6AXPEAX@Z0W4_TaskInliningMode@23@@Z@4HA 000000014003a8b0 f   test.obj
 0001:000398e0       ?dtor$0@?0??_ScheduleContinuationTask@_Task_impl_base@details@Concurrency@@QEAAXPEAU_ContinuationTaskHandleBase@23@@Z@4HA 000000014003a8e0 f   test.obj
 0001:00039910       ?dtor$0@?0??_ScheduleFuncWithAutoInline@details@Concurrency@@YAXAEBV?$function@$$A6AXXZ@std@@W4_TaskInliningMode@12@@Z@4HA 000000014003a910 f   test.obj
 0001:00039940       ?dtor$0@?0??_ScheduleTask@_Task_impl_base@details@Concurrency@@QEAAXPEAU_TaskProcHandle@23@W4_TaskInliningMode@23@@Z@4HA 000000014003a940 f   test.obj
 0001:00039970       ?catch$1@?0??_ScheduleTask@_Task_impl_base@details@Concurrency@@QEAAXPEAU_TaskProcHandle@23@W4_TaskInliningMode@23@@Z@4HA 000000014003a970 f   test.obj
 0001:00039984       __catch$?_ScheduleTask@_Task_impl_base@details@Concurrency@@QEAAXPEAU_TaskProcHandle@23@W4_TaskInliningMode@23@@Z$0 000000014003a984 f   test.obj
 0001:000399f0       ?catch$2@?0??_ScheduleTask@_Task_impl_base@details@Concurrency@@QEAAXPEAU_TaskProcHandle@23@W4_TaskInliningMode@23@@Z@4HA 000000014003a9f0 f   test.obj
 0001:00039a04       __catch$?_ScheduleTask@_Task_impl_base@details@Concurrency@@QEAAXPEAU_TaskProcHandle@23@W4_TaskInliningMode@23@@Z$1 000000014003aa04 f   test.obj
 0001:00039a60       ?catch$3@?0??_ScheduleTask@_Task_impl_base@details@Concurrency@@QEAAXPEAU_TaskProcHandle@23@W4_TaskInliningMode@23@@Z@4HA 000000014003aa60 f   test.obj
 0001:00039a74       __catch$?_ScheduleTask@_Task_impl_base@details@Concurrency@@QEAAXPEAU_TaskProcHandle@23@W4_TaskInliningMode@23@@Z$2 000000014003aa74 f   test.obj
 0001:00039ae0       ?dtor$0@?0??_Set_exception@?$_Associated_state@H@std@@QEAAXVexception_ptr@2@_N@Z@4HA 000000014003aae0 f   test.obj
 0001:00039b10       ?dtor$1@?0??_Set_exception@?$_Associated_state@H@std@@QEAAXVexception_ptr@2@_N@Z@4HA 000000014003ab10 f   test.obj
 0001:00039b40       ?dtor$0@?0??_Set_exception_raw@?$_Associated_state@H@std@@QEAAXVexception_ptr@2@PEAV?$unique_lock@Vmutex@std@@@2@_N@Z@4HA 000000014003ab40 f   test.obj
 0001:00039b70       ?dtor$0@?0??_Set_value@?$_Associated_state@H@std@@QEAAX$$QEAH_N@Z@4HA 000000014003ab70 f   test.obj
 0001:00039ba0       ?dtor$0@?0??_TransitionedToStarted@?$_Task_impl@E@details@Concurrency@@QEAA_NXZ@4HA 000000014003aba0 f   test.obj
 0001:00039bd0       ?dtor$0@?0??_Wait@?$_Associated_state@H@std@@UEAAXXZ@4HA 000000014003abd0 f   test.obj
 0001:00039c00       ?dtor$0@?0??_Wait@_Task_impl_base@details@Concurrency@@QEAA?AW4task_group_status@3@XZ@4HA 000000014003ac00 f   test.obj
 0001:00039c30       ?catch$1@?0??_Wait@_Task_impl_base@details@Concurrency@@QEAA?AW4task_group_status@3@XZ@4HA 000000014003ac30 f   test.obj
 0001:00039c44       __catch$?_Wait@_Task_impl_base@details@Concurrency@@QEAA?AW4task_group_status@3@XZ$0 000000014003ac44 f   test.obj
 0001:00039ca0       ?catch$2@?0??_Wait@_Task_impl_base@details@Concurrency@@QEAA?AW4task_group_status@3@XZ@4HA 000000014003aca0 f   test.obj
 0001:00039cb4       __catch$?_Wait@_Task_impl_base@details@Concurrency@@QEAA?AW4task_group_status@3@XZ$1 000000014003acb4 f   test.obj
 0001:00039d20       ?catch$3@?0??_Wait@_Task_impl_base@details@Concurrency@@QEAA?AW4task_group_status@3@XZ@4HA 000000014003ad20 f   test.obj
 0001:00039d34       __catch$?_Wait@_Task_impl_base@details@Concurrency@@QEAA?AW4task_group_status@3@XZ$2 000000014003ad34 f   test.obj
 0001:00039dc0       ?dtor$0@?0??get@?$future@H@std@@QEAAHXZ@4HA 000000014003adc0 f   test.obj
 0001:00039df0       ?dtor$0@?0??invoke@?$_PPLTaskHandle@EU?$_InitialTaskHandle@XV<lambda_1>@?1???$?0V?$_Fake_no_copy_callable_adapter@AEAP6AHPEAXI0@ZAEAPEAXW4IspSoftAeProcessType@@PEAUIspSoftAeInImage@@@std@@@?$_Task_async_state@H@std@@QEAA@$$QEAV?$_Fake_no_copy_callable_adapter@AEAP6AHPEAXI0@ZAEAPEAXW4IspSoftAeProcessType@@PEAUIspSoftAeInImage@@@3@@Z@U_TypeSelectorNoAsync@details@Concurrency@@@?$task@E@Concurrency@@U_TaskProcHandle@details@3@@details@Concurrency@@UEBAXXZ@4HA 000000014003adf0 f   test.obj
 0001:00039e20       ?catch$1@?0??invoke@?$_PPLTaskHandle@EU?$_InitialTaskHandle@XV<lambda_1>@?1???$?0V?$_Fake_no_copy_callable_adapter@AEAP6AHPEAXI0@ZAEAPEAXW4IspSoftAeProcessType@@PEAUIspSoftAeInImage@@@std@@@?$_Task_async_state@H@std@@QEAA@$$QEAV?$_Fake_no_copy_callable_adapter@AEAP6AHPEAXI0@ZAEAPEAXW4IspSoftAeProcessType@@PEAUIspSoftAeInImage@@@3@@Z@U_TypeSelectorNoAsync@details@Concurrency@@@?$task@E@Concurrency@@U_TaskProcHandle@details@3@@details@Concurrency@@UEBAXXZ@4HA 000000014003ae20 f   test.obj
 0001:00039e34       __catch$?invoke@?$_PPLTaskHandle@EU?$_InitialTaskHandle@XV<lambda_1>@?1???$?0V?$_Fake_no_copy_callable_adapter@AEAP6AHPEAXI0@ZAEAPEAXW4IspSoftAeProcessType@@PEAUIspSoftAeInImage@@@std@@@?$_Task_async_state@H@std@@QEAA@$$QEAV?$_Fake_no_copy_callable_adapter@AEAP6AHPEAXI0@ZAEAPEAXW4IspSoftAeProcessType@@PEAUIspSoftAeInImage@@@3@@Z@U_TypeSelectorNoAsync@details@Concurrency@@@?$task@E@Concurrency@@U_TaskProcHandle@details@3@@details@Concurrency@@UEBAXXZ$0 000000014003ae34 f   test.obj
 0001:00039e70       ?catch$2@?0??invoke@?$_PPLTaskHandle@EU?$_InitialTaskHandle@XV<lambda_1>@?1???$?0V?$_Fake_no_copy_callable_adapter@AEAP6AHPEAXI0@ZAEAPEAXW4IspSoftAeProcessType@@PEAUIspSoftAeInImage@@@std@@@?$_Task_async_state@H@std@@QEAA@$$QEAV?$_Fake_no_copy_callable_adapter@AEAP6AHPEAXI0@ZAEAPEAXW4IspSoftAeProcessType@@PEAUIspSoftAeInImage@@@3@@Z@U_TypeSelectorNoAsync@details@Concurrency@@@?$task@E@Concurrency@@U_TaskProcHandle@details@3@@details@Concurrency@@UEBAXXZ@4HA 000000014003ae70 f   test.obj
 0001:00039e84       __catch$?invoke@?$_PPLTaskHandle@EU?$_InitialTaskHandle@XV<lambda_1>@?1???$?0V?$_Fake_no_copy_callable_adapter@AEAP6AHPEAXI0@ZAEAPEAXW4IspSoftAeProcessType@@PEAUIspSoftAeInImage@@@std@@@?$_Task_async_state@H@std@@QEAA@$$QEAV?$_Fake_no_copy_callable_adapter@AEAP6AHPEAXI0@ZAEAPEAXW4IspSoftAeProcessType@@PEAUIspSoftAeInImage@@@3@@Z@U_TypeSelectorNoAsync@details@Concurrency@@@?$task@E@Concurrency@@U_TaskProcHandle@details@3@@details@Concurrency@@UEBAXXZ$1 000000014003ae84 f   test.obj
 0001:00039ec0       ?catch$3@?0??invoke@?$_PPLTaskHandle@EU?$_InitialTaskHandle@XV<lambda_1>@?1???$?0V?$_Fake_no_copy_callable_adapter@AEAP6AHPEAXI0@ZAEAPEAXW4IspSoftAeProcessType@@PEAUIspSoftAeInImage@@@std@@@?$_Task_async_state@H@std@@QEAA@$$QEAV?$_Fake_no_copy_callable_adapter@AEAP6AHPEAXI0@ZAEAPEAXW4IspSoftAeProcessType@@PEAUIspSoftAeInImage@@@3@@Z@U_TypeSelectorNoAsync@details@Concurrency@@@?$task@E@Concurrency@@U_TaskProcHandle@details@3@@details@Concurrency@@UEBAXXZ@4HA 000000014003aec0 f   test.obj
 0001:00039ed4       __catch$?invoke@?$_PPLTaskHandle@EU?$_InitialTaskHandle@XV<lambda_1>@?1???$?0V?$_Fake_no_copy_callable_adapter@AEAP6AHPEAXI0@ZAEAPEAXW4IspSoftAeProcessType@@PEAUIspSoftAeInImage@@@std@@@?$_Task_async_state@H@std@@QEAA@$$QEAV?$_Fake_no_copy_callable_adapter@AEAP6AHPEAXI0@ZAEAPEAXW4IspSoftAeProcessType@@PEAUIspSoftAeInImage@@@3@@Z@U_TypeSelectorNoAsync@details@Concurrency@@@?$task@E@Concurrency@@U_TaskProcHandle@details@3@@details@Concurrency@@UEBAXXZ$2 000000014003aed4 f   test.obj
 0001:00039f40       ?dtor$0@?0??push_back@TokenRegistrationContainer@_CancellationTokenState@details@Concurrency@@QEAAXPEAV_CancellationTokenRegistration@34@@Z@4HA 000000014003af40 f   test.obj
 0001:00039f70       ?dtor$0@?0??rethrow_exception@std@@YAXVexception_ptr@1@@Z@4HA 000000014003af70 f   test.obj
 0001:00039fa0       ?dtor$0@?0??schedule@_DefaultPPLTaskScheduler@details@Concurrency@@UEAAXP6AXPEAX@Z0@Z@4HA 000000014003afa0 f   test.obj
 0001:00039fd0       main$dtor$0                000000014003afd0 f   test.obj
 0001:0003a000       main$dtor$1                000000014003b000 f   test.obj
 0001:0003a030       main$dtor$2                000000014003b030 f   test.obj
 0001:0003a060       main$dtor$3                000000014003b060 f   test.obj
 0001:0003a090       main$dtor$4                000000014003b090 f   test.obj
 0001:0003a0c0       main$dtor$5                000000014003b0c0 f   test.obj
 0001:0003a0f0       ?dtor$0@?0??_Facet_Register@std@@YAXPEAV_Facet_base@1@@Z@4HA 000000014003b0f0 f   msvcprtd:locale0_implib.obj
 0001:0003a110       ?fin$0@?0???_L@YAXPEAX_K1P6AX0@Z2@Z@4HA 000000014003b110 f   MSVCRTD:ehvecctr.obj
 0001:0003a140       ?fin$0@?0???_M@YAXPEAX_K1P6AX0@Z@Z@4HA 000000014003b140 f   MSVCRTD:ehvecdtr.obj
 0001:0003a170       ?filt$0@?0??__ArrayUnwind@@YAXPEAX_K1P6AX0@Z@Z@4HA 000000014003b170 f   MSVCRTD:ehvecdtr.obj
 0001:0003a1a0       __scrt_is_nonwritable_in_current_image$filt$0 000000014003b1a0 f   MSVCRTD:utility.obj
 0001:0003a1e0       ?filt$0@?0??notify_debugger@@YAXAEBUtagEXCEPTION_VISUALCPP_DEBUG_INFO@@@Z@4HA 000000014003b1e0 f   MSVCRTD:error.obj
 0001:0003a200       ?filt$0@?0??__scrt_common_main_seh@@YAHXZ@4HA 000000014003b200 f   MSVCRTD:exe_main.obj
 0001:0003a230       ??__FexpousureList@@YAXXZ  000000014003b230 f   alAELibCore.obj
 0001:0003a270       ??__FAeInEnquene@@YAXXZ    000000014003b270 f   test.obj
 0001:0003a2a0       ??__FAeOutEnquene@@YAXXZ   000000014003b2a0 f   test.obj
 0001:0003a2d0       ??__FAtfInEnquene@@YAXXZ   000000014003b2d0 f   test.obj
 0001:0003a300       ??__FAtfOutEnquene@@YAXXZ  000000014003b300 f   test.obj
 0001:0003a330       ??__FAwbInEnquene@@YAXXZ   000000014003b330 f   test.obj
 0001:0003a360       ??__FAwbOutEnquene@@YAXXZ  000000014003b360 f   test.obj
 0001:0003a3c0       ??__F_Fac_tidy_reg@std@@YAXXZ 000000014003b3c0 f   msvcprtd:locale0_implib.obj
 0002:000006e8       ?pre_cpp_initializer@@3P6AXXZEA 000000014003c6e8     MSVCRTD:exe_main.obj
 0002:000006f0       ?_Fac_tidy_reg$initializer$@std@@3P6AXXZEA 000000014003c6f0     msvcprtd:locale0_implib.obj
 0002:000006f8       ?expousureList$initializer$@@3P6AXXZEA 000000014003c6f8     alAELibCore.obj
 0002:00000700       ?AeOutEnquene$initializer$@@3P6AXXZEA 000000014003c700     test.obj
 0002:00000708       ?AwbOutEnquene$initializer$@@3P6AXXZEA 000000014003c708     test.obj
 0002:00000710       ?AtfOutEnquene$initializer$@@3P6AXXZEA 000000014003c710     test.obj
 0002:00000718       ?AeInEnquene$initializer$@@3P6AXXZEA 000000014003c718     test.obj
 0002:00000720       ?AwbInEnquene$initializer$@@3P6AXXZEA 000000014003c720     test.obj
 0002:00000728       ?AtfInEnquene$initializer$@@3P6AXXZEA 000000014003c728     test.obj
 0002:00000740       ?pre_c_initializer@@3P6AHXZEA 000000014003c740     MSVCRTD:exe_main.obj
 0002:00000748       ?post_pgo_initializer@@3P6AHXZEA 000000014003c748     MSVCRTD:exe_main.obj
 0002:00000790       fprintf$rtcName$0          000000014003c790     alAELibCore.obj
 0002:000007a0       fprintf$rtcVarDesc         000000014003c7a0     alAELibCore.obj
 0002:000007e0       fprintf$rtcFrameData       000000014003c7e0     alAELibCore.obj
 0002:000007f0       printf$rtcName$0           000000014003c7f0     alAELibCore.obj
 0002:00000800       printf$rtcVarDesc          000000014003c800     alAELibCore.obj
 0002:00000840       printf$rtcFrameData        000000014003c840     alAELibCore.obj
 0002:00000850       sprintf$rtcName$0          000000014003c850     alAELibCore.obj
 0002:00000860       sprintf$rtcVarDesc         000000014003c860     alAELibCore.obj
 0002:000008a0       sprintf$rtcFrameData       000000014003c8a0     alAELibCore.obj
 0002:000008b0       ?_Orphan_all_locked_v3@_Container_base12@std@@AEAAXXZ$rtcName$0 000000014003c8b0     alAELibCore.obj
 0002:000008c0       ?_Orphan_all_locked_v3@_Container_base12@std@@AEAAXXZ$rtcVarDesc 000000014003c8c0     alAELibCore.obj
 0002:00000900       ?_Orphan_all_locked_v3@_Container_base12@std@@AEAAXXZ$rtcFrameData 000000014003c900     alAELibCore.obj
 0002:00000910       ?_Swap_proxy_and_iterators_locked@_Container_base12@std@@AEAAXAEAU12@@Z$rtcName$0 000000014003c910     alAELibCore.obj
 0002:00000920       ?_Swap_proxy_and_iterators_locked@_Container_base12@std@@AEAAXAEAU12@@Z$rtcVarDesc 000000014003c920     alAELibCore.obj
 0002:00000960       ?_Swap_proxy_and_iterators_locked@_Container_base12@std@@AEAAXAEAU12@@Z$rtcFrameData 000000014003c960     alAELibCore.obj
 0002:00000970       ??1?$basic_string@DU?$char_traits@D@std@@V?$allocator@D@2@@std@@QEAA@XZ$rtcName$0 000000014003c970     alAELibCore.obj
 0002:00000980       ??1?$basic_string@DU?$char_traits@D@std@@V?$allocator@D@2@@std@@QEAA@XZ$rtcVarDesc 000000014003c980     alAELibCore.obj
 0002:000009c0       ??1?$basic_string@DU?$char_traits@D@std@@V?$allocator@D@2@@std@@QEAA@XZ$rtcFrameData 000000014003c9c0     alAELibCore.obj
 0002:000009d0       ?max_size@?$basic_string@DU?$char_traits@D@std@@V?$allocator@D@2@@std@@QEBA_KXZ$rtcName$0 000000014003c9d0     alAELibCore.obj
 0002:000009e0       ?max_size@?$basic_string@DU?$char_traits@D@std@@V?$allocator@D@2@@std@@QEBA_KXZ$rtcVarDesc 000000014003c9e0     alAELibCore.obj
 0002:00000a20       ?max_size@?$basic_string@DU?$char_traits@D@std@@V?$allocator@D@2@@std@@QEBA_KXZ$rtcFrameData 000000014003ca20     alAELibCore.obj
 0002:00000a30       ?_Calculate_growth@?$basic_string@DU?$char_traits@D@std@@V?$allocator@D@2@@std@@CA_K_K00@Z$rtcName$0 000000014003ca30     alAELibCore.obj
 0002:00000a40       ?_Calculate_growth@?$basic_string@DU?$char_traits@D@std@@V?$allocator@D@2@@std@@CA_K_K00@Z$rtcVarDesc 000000014003ca40     alAELibCore.obj
 0002:00000a80       ?_Calculate_growth@?$basic_string@DU?$char_traits@D@std@@V?$allocator@D@2@@std@@CA_K_K00@Z$rtcFrameData 000000014003ca80     alAELibCore.obj
 0002:00000a90       ?printf_log@@YAXW4LogLevel_em@@PEBD1H1ZZ$rtcName$0 000000014003ca90     alAELibCore.obj
 0002:00000a98       ?printf_log@@YAXW4LogLevel_em@@PEBD1H1ZZ$rtcName$1 000000014003ca98     alAELibCore.obj
 0002:00000aa0       ?printf_log@@YAXW4LogLevel_em@@PEBD1H1ZZ$rtcVarDesc 000000014003caa0     alAELibCore.obj
 0002:00000b20       ?printf_log@@YAXW4LogLevel_em@@PEBD1H1ZZ$rtcFrameData 000000014003cb20     alAELibCore.obj
 0002:00000b30       updateWeightTable$rtcName$0 000000014003cb30     alAELibCore.obj
 0002:00000b38       updateWeightTable$rtcName$1 000000014003cb38     alAELibCore.obj
 0002:00000b40       updateWeightTable$rtcVarDesc 000000014003cb40     alAELibCore.obj
 0002:00000bc0       updateWeightTable$rtcFrameData 000000014003cbc0     alAELibCore.obj
 0002:00000bd0       alAELib_GetExposureParameter$rtcName$0 000000014003cbd0     alAELibCore.obj
 0002:00000be8       alAELib_GetExposureParameter$rtcName$1 000000014003cbe8     alAELibCore.obj
 0002:00000bf8       alAELib_GetExposureParameter$rtcName$2 000000014003cbf8     alAELibCore.obj
 0002:00000c08       alAELib_GetExposureParameter$rtcName$3 000000014003cc08     alAELibCore.obj
 0002:00000c18       alAELib_GetExposureParameter$rtcName$4 000000014003cc18     alAELibCore.obj
 0002:00000c28       alAELib_GetExposureParameter$rtcName$5 000000014003cc28     alAELibCore.obj
 0002:00000c40       alAELib_GetExposureParameter$rtcVarDesc 000000014003cc40     alAELibCore.obj
 0002:00000dc0       alAELib_GetExposureParameter$rtcFrameData 000000014003cdc0     alAELibCore.obj
 0002:00000dd0       al3awrapper_dispatchhw3a_aestats$rtcName$0 000000014003cdd0     alAELibCore.obj
 0002:00000de0       al3awrapper_dispatchhw3a_aestats$rtcVarDesc 000000014003cde0     alAELibCore.obj
 0002:00000e20       al3awrapper_dispatchhw3a_aestats$rtcFrameData 000000014003ce20     alAELibCore.obj
 0002:00000e30       ?gazeAE@@YAIPEAX@Z$rtcName$0 000000014003ce30     alAELibCore.obj
 0002:00000e40       ?gazeAE@@YAIPEAX@Z$rtcName$1 000000014003ce40     alAELibCore.obj
 0002:00000e50       ?gazeAE@@YAIPEAX@Z$rtcName$2 000000014003ce50     alAELibCore.obj
 0002:00000e58       ?gazeAE@@YAIPEAX@Z$rtcName$3 000000014003ce58     alAELibCore.obj
 0002:00000e68       ?gazeAE@@YAIPEAX@Z$rtcName$4 000000014003ce68     alAELibCore.obj
 0002:00000e78       ?gazeAE@@YAIPEAX@Z$rtcName$5 000000014003ce78     alAELibCore.obj
 0002:00000e90       ?gazeAE@@YAIPEAX@Z$rtcName$6 000000014003ce90     alAELibCore.obj
 0002:00000eb0       ?gazeAE@@YAIPEAX@Z$rtcVarDesc 000000014003ceb0     alAELibCore.obj
 0002:00001070       ?gazeAE@@YAIPEAX@Z$rtcFrameData 000000014003d070     alAELibCore.obj
 0002:00001080       ??1?$deque@Uae_sensorExpoList@@V?$allocator@Uae_sensorExpoList@@@std@@@std@@QEAA@XZ$rtcName$0 000000014003d080     alAELibCore.obj
 0002:000010a0       ??1?$deque@Uae_sensorExpoList@@V?$allocator@Uae_sensorExpoList@@@std@@@std@@QEAA@XZ$rtcVarDesc 000000014003d0a0     alAELibCore.obj
 0002:000010e0       ??1?$deque@Uae_sensorExpoList@@V?$allocator@Uae_sensorExpoList@@@std@@@std@@QEAA@XZ$rtcFrameData 000000014003d0e0     alAELibCore.obj
 0002:000010f0       ?_Growmap@?$deque@Uae_sensorExpoList@@V?$allocator@Uae_sensorExpoList@@@std@@@std@@AEAAX_K@Z$rtcName$0 000000014003d0f0     alAELibCore.obj
 0002:000010f8       ?_Growmap@?$deque@Uae_sensorExpoList@@V?$allocator@Uae_sensorExpoList@@@std@@@std@@AEAAX_K@Z$rtcName$1 000000014003d0f8     alAELibCore.obj
 0002:00001110       ?_Growmap@?$deque@Uae_sensorExpoList@@V?$allocator@Uae_sensorExpoList@@@std@@@std@@AEAAX_K@Z$rtcVarDesc 000000014003d110     alAELibCore.obj
 0002:00001190       ?_Growmap@?$deque@Uae_sensorExpoList@@V?$allocator@Uae_sensorExpoList@@@std@@@std@@AEAAX_K@Z$rtcFrameData 000000014003d190     alAELibCore.obj
 0002:000011a0       ?_Tidy@?$deque@Uae_sensorExpoList@@V?$allocator@Uae_sensorExpoList@@@std@@@std@@AEAAXXZ$rtcName$0 000000014003d1a0     alAELibCore.obj
 0002:000011b0       ?_Tidy@?$deque@Uae_sensorExpoList@@V?$allocator@Uae_sensorExpoList@@@std@@@std@@AEAAXXZ$rtcVarDesc 000000014003d1b0     alAELibCore.obj
 0002:000011f0       ?_Tidy@?$deque@Uae_sensorExpoList@@V?$allocator@Uae_sensorExpoList@@@std@@@std@@AEAAXXZ$rtcFrameData 000000014003d1f0     alAELibCore.obj
 0002:00001200       ?_Orphan_off@?$deque@Uae_sensorExpoList@@V?$allocator@Uae_sensorExpoList@@@std@@@std@@AEBAX_K@Z$rtcName$0 000000014003d200     alAELibCore.obj
 0002:00001210       ?_Orphan_off@?$deque@Uae_sensorExpoList@@V?$allocator@Uae_sensorExpoList@@@std@@@std@@AEBAX_K@Z$rtcVarDesc 000000014003d210     alAELibCore.obj
 0002:00001250       ?_Orphan_off@?$deque@Uae_sensorExpoList@@V?$allocator@Uae_sensorExpoList@@@std@@@std@@AEBAX_K@Z$rtcFrameData 000000014003d250     alAELibCore.obj
 0002:00001260       ?alAE_set_param@@YAIPEAUae_set_param_t@@PEAUae_output_data_t@@PEAX@Z$rtcName$0 000000014003d260     alAELibCore.obj
 0002:00001270       ?alAE_set_param@@YAIPEAUae_set_param_t@@PEAUae_output_data_t@@PEAX@Z$rtcName$1 000000014003d270     alAELibCore.obj
 0002:00001280       ?alAE_set_param@@YAIPEAUae_set_param_t@@PEAUae_output_data_t@@PEAX@Z$rtcVarDesc 000000014003d280     alAELibCore.obj
 0002:00001300       ?alAE_set_param@@YAIPEAUae_set_param_t@@PEAUae_output_data_t@@PEAX@Z$rtcFrameData 000000014003d300     alAELibCore.obj
 0002:00001310       ?alAE_get_param@@YAIPEAUae_get_param_t@@PEAX@Z$rtcName$0 000000014003d310     alAELibCore.obj
 0002:00001318       ?alAE_get_param@@YAIPEAUae_get_param_t@@PEAX@Z$rtcName$1 000000014003d318     alAELibCore.obj
 0002:00001328       ?alAE_get_param@@YAIPEAUae_get_param_t@@PEAX@Z$rtcName$2 000000014003d328     alAELibCore.obj
 0002:00001340       ?alAE_get_param@@YAIPEAUae_get_param_t@@PEAX@Z$rtcVarDesc 000000014003d340     alAELibCore.obj
 0002:00001400       ?alAE_get_param@@YAIPEAUae_get_param_t@@PEAX@Z$rtcFrameData 000000014003d400     alAELibCore.obj
 0002:00001410       ?alAE_process@@YAIPEAX0Ualhw3a_ae_proc_data_t@@0PEAUae_output_data_t@@@Z$rtcName$0 000000014003d410     alAELibCore.obj
 0002:00001420       ?alAE_process@@YAIPEAX0Ualhw3a_ae_proc_data_t@@0PEAUae_output_data_t@@@Z$rtcName$1 000000014003d420     alAELibCore.obj
 0002:00001430       ?alAE_process@@YAIPEAX0Ualhw3a_ae_proc_data_t@@0PEAUae_output_data_t@@@Z$rtcName$2 000000014003d430     alAELibCore.obj
 0002:00001440       ?alAE_process@@YAIPEAX0Ualhw3a_ae_proc_data_t@@0PEAUae_output_data_t@@@Z$rtcName$3 000000014003d440     alAELibCore.obj
 0002:00001450       ?alAE_process@@YAIPEAX0Ualhw3a_ae_proc_data_t@@0PEAUae_output_data_t@@@Z$rtcName$4 000000014003d450     alAELibCore.obj
 0002:00001460       ?alAE_process@@YAIPEAX0Ualhw3a_ae_proc_data_t@@0PEAUae_output_data_t@@@Z$rtcName$5 000000014003d460     alAELibCore.obj
 0002:00001478       ?alAE_process@@YAIPEAX0Ualhw3a_ae_proc_data_t@@0PEAUae_output_data_t@@@Z$rtcName$6 000000014003d478     alAELibCore.obj
 0002:00001490       ?alAE_process@@YAIPEAX0Ualhw3a_ae_proc_data_t@@0PEAUae_output_data_t@@@Z$rtcName$7 000000014003d490     alAELibCore.obj
 0002:000014a0       ?alAE_process@@YAIPEAX0Ualhw3a_ae_proc_data_t@@0PEAUae_output_data_t@@@Z$rtcName$8 000000014003d4a0     alAELibCore.obj
 0002:000014b0       ?alAE_process@@YAIPEAX0Ualhw3a_ae_proc_data_t@@0PEAUae_output_data_t@@@Z$rtcVarDesc 000000014003d4b0     alAELibCore.obj
 0002:000016f0       ?alAE_process@@YAIPEAX0Ualhw3a_ae_proc_data_t@@0PEAUae_output_data_t@@@Z$rtcFrameData 000000014003d6f0     alAELibCore.obj
 0002:00001700       ?LoadDefaultAESetting@@YAIPEAX@Z$rtcName$0 000000014003d700     alAELibCore.obj
 0002:00001718       ?LoadDefaultAESetting@@YAIPEAX@Z$rtcName$1 000000014003d718     alAELibCore.obj
 0002:00001730       ?LoadDefaultAESetting@@YAIPEAX@Z$rtcName$2 000000014003d730     alAELibCore.obj
 0002:00001758       ?LoadDefaultAESetting@@YAIPEAX@Z$rtcName$3 000000014003d758     alAELibCore.obj
 0002:00001780       ?LoadDefaultAESetting@@YAIPEAX@Z$rtcName$4 000000014003d780     alAELibCore.obj
 0002:00001790       ?LoadDefaultAESetting@@YAIPEAX@Z$rtcName$5 000000014003d790     alAELibCore.obj
 0002:000017b0       ?LoadDefaultAESetting@@YAIPEAX@Z$rtcName$6 000000014003d7b0     alAELibCore.obj
 0002:000017c8       ?LoadDefaultAESetting@@YAIPEAX@Z$rtcName$7 000000014003d7c8     alAELibCore.obj
 0002:000017f0       ?LoadDefaultAESetting@@YAIPEAX@Z$rtcName$8 000000014003d7f0     alAELibCore.obj
 0002:00001810       ?LoadDefaultAESetting@@YAIPEAX@Z$rtcName$9 000000014003d810     alAELibCore.obj
 0002:00001828       ?LoadDefaultAESetting@@YAIPEAX@Z$rtcName$10 000000014003d828     alAELibCore.obj
 0002:00001840       ?LoadDefaultAESetting@@YAIPEAX@Z$rtcName$11 000000014003d840     alAELibCore.obj
 0002:00001850       ?LoadDefaultAESetting@@YAIPEAX@Z$rtcName$12 000000014003d850     alAELibCore.obj
 0002:00001860       ?LoadDefaultAESetting@@YAIPEAX@Z$rtcVarDesc 000000014003d860     alAELibCore.obj
 0002:00001ba0       ?LoadDefaultAESetting@@YAIPEAX@Z$rtcFrameData 000000014003dba0     alAELibCore.obj
 0002:00001bb0       ?UnicodeToAnsi_strCore@@YA?AV?$basic_string@DU?$char_traits@D@std@@V?$allocator@D@2@@std@@PEB_W@Z$rtcName$0 000000014003dbb0     alAELibCore.obj
 0002:00001bc0       ?UnicodeToAnsi_strCore@@YA?AV?$basic_string@DU?$char_traits@D@std@@V?$allocator@D@2@@std@@PEB_W@Z$rtcVarDesc 000000014003dbc0     alAELibCore.obj
 0002:00001c00       ?UnicodeToAnsi_strCore@@YA?AV?$basic_string@DU?$char_traits@D@std@@V?$allocator@D@2@@std@@PEB_W@Z$rtcFrameData 000000014003dc00     alAELibCore.obj
 0002:00001c10       ??$_Construct@$00PEBD@?$basic_string@DU?$char_traits@D@std@@V?$allocator@D@2@@std@@AEAAXQEBD_K@Z$rtcName$0 000000014003dc10     alAELibCore.obj
 0002:00001c18       ??$_Construct@$00PEBD@?$basic_string@DU?$char_traits@D@std@@V?$allocator@D@2@@std@@AEAAXQEBD_K@Z$rtcName$1 000000014003dc18     alAELibCore.obj
 0002:00001c20       ??$_Construct@$00PEBD@?$basic_string@DU?$char_traits@D@std@@V?$allocator@D@2@@std@@AEAAXQEBD_K@Z$rtcName$2 000000014003dc20     alAELibCore.obj
 0002:00001c30       ??$_Construct@$00PEBD@?$basic_string@DU?$char_traits@D@std@@V?$allocator@D@2@@std@@AEAAXQEBD_K@Z$rtcName$3 000000014003dc30     alAELibCore.obj
 0002:00001c40       ??$_Construct@$00PEBD@?$basic_string@DU?$char_traits@D@std@@V?$allocator@D@2@@std@@AEAAXQEBD_K@Z$rtcVarDesc 000000014003dc40     alAELibCore.obj
 0002:00001d40       ??$_Construct@$00PEBD@?$basic_string@DU?$char_traits@D@std@@V?$allocator@D@2@@std@@AEAAXQEBD_K@Z$rtcFrameData 000000014003dd40     alAELibCore.obj
 0002:00001d50       ??$uninitialized_copy@PEAPEAUae_sensorExpoList@@PEAPEAU1@@std@@YAPEAPEAUae_sensorExpoList@@QEAPEAU1@0PEAPEAU1@@Z$rtcName$0 000000014003dd50     alAELibCore.obj
 0002:00001d58       ??$uninitialized_copy@PEAPEAUae_sensorExpoList@@PEAPEAU1@@std@@YAPEAPEAUae_sensorExpoList@@QEAPEAU1@0PEAPEAU1@@Z$rtcName$1 000000014003dd58     alAELibCore.obj
 0002:00001d60       ??$uninitialized_copy@PEAPEAUae_sensorExpoList@@PEAPEAU1@@std@@YAPEAPEAUae_sensorExpoList@@QEAPEAU1@0PEAPEAU1@@Z$rtcVarDesc 000000014003dd60     alAELibCore.obj
 0002:00001de0       ??$uninitialized_copy@PEAPEAUae_sensorExpoList@@PEAPEAU1@@std@@YAPEAPEAUae_sensorExpoList@@QEAPEAU1@0PEAPEAU1@@Z$rtcFrameData 000000014003dde0     alAELibCore.obj
 0002:00001df0       ??$_Uninitialized_copy_unchecked@PEAPEAUae_sensorExpoList@@PEAPEAU1@@std@@YAPEAPEAUae_sensorExpoList@@PEAPEAU1@QEAPEAU1@0@Z$rtcName$0 000000014003ddf0     alAELibCore.obj
 0002:00001e00       ??$_Uninitialized_copy_unchecked@PEAPEAUae_sensorExpoList@@PEAPEAU1@@std@@YAPEAPEAUae_sensorExpoList@@PEAPEAU1@QEAPEAU1@0@Z$rtcVarDesc 000000014003de00     alAELibCore.obj
 0002:00001e40       ??$_Uninitialized_copy_unchecked@PEAPEAUae_sensorExpoList@@PEAPEAU1@@std@@YAPEAPEAUae_sensorExpoList@@PEAPEAU1@QEAPEAU1@0@Z$rtcFrameData 000000014003de40     alAELibCore.obj
 0002:00002ed0       ?printf_log@@YAXW4LogLevel_em@@PEBD1H1ZZ$rtcName$0 000000014003eed0     alAELib_iAE.obj
 0002:00002ed8       ?printf_log@@YAXW4LogLevel_em@@PEBD1H1ZZ$rtcName$1 000000014003eed8     alAELib_iAE.obj
 0002:00002ee0       ?printf_log@@YAXW4LogLevel_em@@PEBD1H1ZZ$rtcVarDesc 000000014003eee0     alAELib_iAE.obj
 0002:00002f60       ?printf_log@@YAXW4LogLevel_em@@PEBD1H1ZZ$rtcFrameData 000000014003ef60     alAELib_iAE.obj
 0002:00002f70       ?Calculate_DTC_GAIN@@YAXPEAUiAE_input@@PEAG11HPEAX@Z$rtcName$0 000000014003ef70     alAELib_iAE.obj
 0002:00002f80       ?Calculate_DTC_GAIN@@YAXPEAUiAE_input@@PEAG11HPEAX@Z$rtcName$1 000000014003ef80     alAELib_iAE.obj
 0002:00002f8c       ?Calculate_DTC_GAIN@@YAXPEAUiAE_input@@PEAG11HPEAX@Z$rtcName$2 000000014003ef8c     alAELib_iAE.obj
 0002:00002fa0       ?Calculate_DTC_GAIN@@YAXPEAUiAE_input@@PEAG11HPEAX@Z$rtcVarDesc 000000014003efa0     alAELib_iAE.obj
 0002:00003060       ?Calculate_DTC_GAIN@@YAXPEAUiAE_input@@PEAG11HPEAX@Z$rtcFrameData 000000014003f060     alAELib_iAE.obj
 0002:00003170       ?printf_log@@YAXW4LogLevel_em@@PEBD1H1ZZ$rtcName$0 000000014003f170     table.obj
 0002:00003178       ?printf_log@@YAXW4LogLevel_em@@PEBD1H1ZZ$rtcName$1 000000014003f178     table.obj
 0002:00003180       ?printf_log@@YAXW4LogLevel_em@@PEBD1H1ZZ$rtcVarDesc 000000014003f180     table.obj
 0002:00003200       ?printf_log@@YAXW4LogLevel_em@@PEBD1H1ZZ$rtcFrameData 000000014003f200     table.obj
 0002:00003210       ?matchExpoTable@@YAIPEAX0FH@Z$rtcName$0 000000014003f210     table.obj
 0002:00003220       ?matchExpoTable@@YAIPEAX0FH@Z$rtcName$1 000000014003f220     table.obj
 0002:00003230       ?matchExpoTable@@YAIPEAX0FH@Z$rtcVarDesc 000000014003f230     table.obj
 0002:000032b0       ?matchExpoTable@@YAIPEAX0FH@Z$rtcFrameData 000000014003f2b0     table.obj
 0002:000033f0       ??0?$basic_string@DU?$char_traits@D@std@@V?$allocator@D@2@@std@@QEAA@U_String_constructor_concat_tag@1@AEBV01@QEBD_K23@Z$rtcName$0 000000014003f3f0     IspSoftAeApi.obj
 0002:00003400       ??0?$basic_string@DU?$char_traits@D@std@@V?$allocator@D@2@@std@@QEAA@U_String_constructor_concat_tag@1@AEBV01@QEBD_K23@Z$rtcName$1 000000014003f400     IspSoftAeApi.obj
 0002:00003408       ??0?$basic_string@DU?$char_traits@D@std@@V?$allocator@D@2@@std@@QEAA@U_String_constructor_concat_tag@1@AEBV01@QEBD_K23@Z$rtcName$2 000000014003f408     IspSoftAeApi.obj
 0002:00003410       ??0?$basic_string@DU?$char_traits@D@std@@V?$allocator@D@2@@std@@QEAA@U_String_constructor_concat_tag@1@AEBV01@QEBD_K23@Z$rtcName$3 000000014003f410     IspSoftAeApi.obj
 0002:00003420       ??0?$basic_string@DU?$char_traits@D@std@@V?$allocator@D@2@@std@@QEAA@U_String_constructor_concat_tag@1@AEBV01@QEBD_K23@Z$rtcVarDesc 000000014003f420     IspSoftAeApi.obj
 0002:00003520       ??0?$basic_string@DU?$char_traits@D@std@@V?$allocator@D@2@@std@@QEAA@U_String_constructor_concat_tag@1@AEBV01@QEBD_K23@Z$rtcFrameData 000000014003f520     IspSoftAeApi.obj
 0002:00003530       ?printf_log@@YAXW4LogLevel_em@@PEBD1H1ZZ$rtcName$0 000000014003f530     IspSoftAeApi.obj
 0002:00003538       ?printf_log@@YAXW4LogLevel_em@@PEBD1H1ZZ$rtcName$1 000000014003f538     IspSoftAeApi.obj
 0002:00003540       ?printf_log@@YAXW4LogLevel_em@@PEBD1H1ZZ$rtcVarDesc 000000014003f540     IspSoftAeApi.obj
 0002:000035c0       ?printf_log@@YAXW4LogLevel_em@@PEBD1H1ZZ$rtcFrameData 000000014003f5c0     IspSoftAeApi.obj
 0002:000035d0       ?saveFileLog@@YAXXZ$rtcName$0 000000014003f5d0     IspSoftAeApi.obj
 0002:000035d8       ?saveFileLog@@YAXXZ$rtcName$1 000000014003f5d8     IspSoftAeApi.obj
 0002:000035f0       ?saveFileLog@@YAXXZ$rtcVarDesc 000000014003f5f0     IspSoftAeApi.obj
 0002:00003670       ?saveFileLog@@YAXXZ$rtcFrameData 000000014003f670     IspSoftAeApi.obj
 0002:00003680       IspSoftAeLoad$rtcName$0    000000014003f680     IspSoftAeApi.obj
 0002:00003688       IspSoftAeLoad$rtcName$1    000000014003f688     IspSoftAeApi.obj
 0002:000036a0       IspSoftAeLoad$rtcVarDesc   000000014003f6a0     IspSoftAeApi.obj
 0002:00003720       IspSoftAeLoad$rtcFrameData 000000014003f720     IspSoftAeApi.obj
 0002:00003730       ?UnicodeToAnsi_str@@YA?AV?$basic_string@DU?$char_traits@D@std@@V?$allocator@D@2@@std@@PEB_W@Z$rtcName$0 000000014003f730     IspSoftAeApi.obj
 0002:00003740       ?UnicodeToAnsi_str@@YA?AV?$basic_string@DU?$char_traits@D@std@@V?$allocator@D@2@@std@@PEB_W@Z$rtcVarDesc 000000014003f740     IspSoftAeApi.obj
 0002:00003780       ?UnicodeToAnsi_str@@YA?AV?$basic_string@DU?$char_traits@D@std@@V?$allocator@D@2@@std@@PEB_W@Z$rtcFrameData 000000014003f780     IspSoftAeApi.obj
 0002:00003790       ?GetCurrMoudle@@YA?AV?$basic_string@DU?$char_traits@D@std@@V?$allocator@D@2@@std@@XZ$rtcName$0 000000014003f790     IspSoftAeApi.obj
 0002:00003798       ?GetCurrMoudle@@YA?AV?$basic_string@DU?$char_traits@D@std@@V?$allocator@D@2@@std@@XZ$rtcName$1 000000014003f798     IspSoftAeApi.obj
 0002:000037a0       ?GetCurrMoudle@@YA?AV?$basic_string@DU?$char_traits@D@std@@V?$allocator@D@2@@std@@XZ$rtcName$2 000000014003f7a0     IspSoftAeApi.obj
 0002:000037a8       ?GetCurrMoudle@@YA?AV?$basic_string@DU?$char_traits@D@std@@V?$allocator@D@2@@std@@XZ$rtcName$3 000000014003f7a8     IspSoftAeApi.obj
 0002:000037b0       ?GetCurrMoudle@@YA?AV?$basic_string@DU?$char_traits@D@std@@V?$allocator@D@2@@std@@XZ$rtcName$4 000000014003f7b0     IspSoftAeApi.obj
 0002:000037c0       ?GetCurrMoudle@@YA?AV?$basic_string@DU?$char_traits@D@std@@V?$allocator@D@2@@std@@XZ$rtcVarDesc 000000014003f7c0     IspSoftAeApi.obj
 0002:00003900       ?GetCurrMoudle@@YA?AV?$basic_string@DU?$char_traits@D@std@@V?$allocator@D@2@@std@@XZ$rtcFrameData 000000014003f900     IspSoftAeApi.obj
 0002:00003910       ?AeInit@@YAPEAXPEAXP6AH0I0@Z0@Z$rtcName$0 000000014003f910     IspSoftAeApi.obj
 0002:00003920       ?AeInit@@YAPEAXPEAXP6AH0I0@Z0@Z$rtcVarDesc 000000014003f920     IspSoftAeApi.obj
 0002:00003960       ?AeInit@@YAPEAXPEAXP6AH0I0@Z0@Z$rtcFrameData 000000014003f960     IspSoftAeApi.obj
 0002:00003970       ?AeLoadTuningBin@@YAHPEAX0@Z$rtcName$0 000000014003f970     IspSoftAeApi.obj
 0002:00003978       ?AeLoadTuningBin@@YAHPEAX0@Z$rtcName$1 000000014003f978     IspSoftAeApi.obj
 0002:00003980       ?AeLoadTuningBin@@YAHPEAX0@Z$rtcName$2 000000014003f980     IspSoftAeApi.obj
 0002:00003988       ?AeLoadTuningBin@@YAHPEAX0@Z$rtcName$3 000000014003f988     IspSoftAeApi.obj
 0002:000039a0       ?AeLoadTuningBin@@YAHPEAX0@Z$rtcVarDesc 000000014003f9a0     IspSoftAeApi.obj
 0002:00003aa0       ?AeLoadTuningBin@@YAHPEAX0@Z$rtcFrameData 000000014003faa0     IspSoftAeApi.obj
